

Microchip MPLAB XC8 Assembler V2.35 build 20211206165544 
                                                                                               Thu Jun 02 19:20:02 2022

Microchip MPLAB XC8 C Compiler v2.35 (Free license) build 20211206165544 Og1 
     1                           	processor	16F887
     2                           	pagewidth 120
     3                           	opt	flic
     4                           	psect	cinit,global,class=CODE,merge=1,delta=2
     5                           	psect	bssBANK1,global,class=BANK1,space=1,delta=1,noexec
     6                           	psect	bssBANK3,global,class=BANK3,space=1,delta=1,noexec
     7                           	psect	cstackBANK3,global,class=BANK3,space=1,delta=1,noexec
     8                           	psect	cstackBANK1,global,class=BANK1,space=1,delta=1,noexec
     9                           	psect	cstackCOMMON,global,class=COMMON,space=1,delta=1,noexec
    10                           	psect	cstackBANK0,global,class=BANK0,space=1,delta=1,noexec
    11                           	psect	maintext,global,class=CODE,split=1,delta=2
    12                           	psect	text1,local,class=CODE,merge=1,delta=2
    13                           	psect	text2,local,class=CODE,merge=1,delta=2
    14                           	psect	text3,local,class=CODE,merge=1,delta=2
    15                           	psect	text4,local,class=CODE,merge=1,delta=2
    16                           	psect	text5,local,class=CODE,merge=1,delta=2
    17                           	psect	text6,local,class=CODE,merge=1,delta=2,group=1
    18                           	psect	text7,local,class=CODE,merge=1,delta=2,group=1
    19                           	psect	text8,local,class=CODE,merge=1,delta=2,group=1
    20                           	psect	text9,local,class=CODE,merge=1,delta=2,group=1
    21                           	psect	text10,local,class=CODE,merge=1,delta=2,group=1
    22                           	psect	text11,local,class=CODE,merge=1,delta=2,group=1
    23                           	psect	text12,local,class=CODE,merge=1,delta=2
    24                           	psect	intentry,global,class=CODE,delta=2
    25                           	psect	text13,local,class=CODE,merge=1,delta=2
    26                           	psect	text14,local,class=CODE,merge=1,delta=2
    27                           	psect	text15,local,class=CODE,merge=1,delta=2
    28                           	psect	text16,local,class=CODE,merge=1,delta=2
    29                           	psect	text17,local,class=CODE,merge=1,delta=2
    30                           	psect	text18,local,class=CODE,merge=1,delta=2
    31                           	psect	text19,local,class=CODE,merge=1,delta=2
    32                           	psect	text20,local,class=CODE,merge=1,delta=2
    33                           	psect	text21,local,class=CODE,merge=1,delta=2
    34                           	psect	text22,local,class=CODE,merge=1,delta=2
    35                           	psect	text23,local,class=CODE,merge=1,delta=2
    36                           	psect	idloc,global,abs,ovrld,class=IDLOC,space=5,delta=2,noexec
    37                           	psect	config,global,abs,ovrld,class=CONFIG,space=4,delta=2,noexec
    38                           	dabs	1,0x7E,2
    39  0000                     
    40                           ; Version 2.40
    41                           ; Generated 17/11/2021 GMT
    42                           ; 
    43                           ; Copyright © 2021, Microchip Technology Inc. and its subsidiaries ("Microchip")
    44                           ; All rights reserved.
    45                           ; 
    46                           ; This software is developed by Microchip Technology Inc. and its subsidiaries ("Microch
      +                          ip").
    47                           ; 
    48                           ; Redistribution and use in source and binary forms, with or without modification, are
    49                           ; permitted provided that the following conditions are met:
    50                           ; 
    51                           ;     1. Redistributions of source code must retain the above copyright notice, this lis
      +                          t of
    52                           ;        conditions and the following disclaimer.
    53                           ; 
    54                           ;     2. Redistributions in binary form must reproduce the above copyright notice, this 
      +                          list
    55                           ;        of conditions and the following disclaimer in the documentation and/or other
    56                           ;        materials provided with the distribution. Publication is not required when
    57                           ;        this file is used in an embedded application.
    58                           ; 
    59                           ;     3. Microchip's name may not be used to endorse or promote products derived from th
      +                          is
    60                           ;        software without specific prior written permission.
    61                           ; 
    62                           ; THIS SOFTWARE IS PROVIDED BY MICROCHIP "AS IS" AND ANY EXPRESS OR IMPLIED WARRANTIES,
    63                           ; INCLUDING, BUT NOT LIMITED TO, THE IMPLIED WARRANTIES OF MERCHANTABILITY AND FITNESS F
      +                          OR
    64                           ; PURPOSE ARE DISCLAIMED.  IN NO EVENT SHALL MICROCHIP BE LIABLE FOR ANY DIRECT, INDIREC
      +                          T,
    65                           ; INCIDENTAL, SPECIAL, EXEMPLARY, OR CONSEQUENTIAL DAMAGES (INCLUDING BUT NOT LIMITED TO
    66                           ; PROCUREMENT OF SUBSTITUTE GOODS OR SERVICES; LOSS OF USE, DATA OR PROFITS; OR BUSINESS
    67                           ; INTERRUPTION) HOWSOEVER CAUSED AND ON ANY THEORY OF LIABILITY, WHETHER IN CONTRACT, ST
      +                          RICT
    68                           ; LIABILITY, OR TORT (INCLUDING NEGLIGENCE OR OTHERWISE) ARISING IN ANY WAY OUT OF THE U
      +                          SE OF
    69                           ; THIS SOFTWARE, EVEN IF ADVISED OF THE POSSIBILITY OF SUCH DAMAGE.
    70                           ; 
    71                           ; 
    72                           ; Code-generator required, PIC16F887 Definitions
    73                           ; 
    74                           ; SFR Addresses
    75  0000                     	;# 
    76  0001                     	;# 
    77  0002                     	;# 
    78  0003                     	;# 
    79  0004                     	;# 
    80  0005                     	;# 
    81  0006                     	;# 
    82  0007                     	;# 
    83  0008                     	;# 
    84  0009                     	;# 
    85  000A                     	;# 
    86  000B                     	;# 
    87  000C                     	;# 
    88  000D                     	;# 
    89  000E                     	;# 
    90  000E                     	;# 
    91  000F                     	;# 
    92  0010                     	;# 
    93  0011                     	;# 
    94  0012                     	;# 
    95  0013                     	;# 
    96  0014                     	;# 
    97  0015                     	;# 
    98  0015                     	;# 
    99  0016                     	;# 
   100  0017                     	;# 
   101  0018                     	;# 
   102  0019                     	;# 
   103  001A                     	;# 
   104  001B                     	;# 
   105  001B                     	;# 
   106  001C                     	;# 
   107  001D                     	;# 
   108  001E                     	;# 
   109  001F                     	;# 
   110  0081                     	;# 
   111  0085                     	;# 
   112  0086                     	;# 
   113  0087                     	;# 
   114  0088                     	;# 
   115  0089                     	;# 
   116  008C                     	;# 
   117  008D                     	;# 
   118  008E                     	;# 
   119  008F                     	;# 
   120  0090                     	;# 
   121  0091                     	;# 
   122  0092                     	;# 
   123  0093                     	;# 
   124  0093                     	;# 
   125  0093                     	;# 
   126  0094                     	;# 
   127  0095                     	;# 
   128  0096                     	;# 
   129  0097                     	;# 
   130  0098                     	;# 
   131  0099                     	;# 
   132  009A                     	;# 
   133  009B                     	;# 
   134  009C                     	;# 
   135  009D                     	;# 
   136  009E                     	;# 
   137  009F                     	;# 
   138  0105                     	;# 
   139  0107                     	;# 
   140  0108                     	;# 
   141  0109                     	;# 
   142  010C                     	;# 
   143  010C                     	;# 
   144  010D                     	;# 
   145  010E                     	;# 
   146  010F                     	;# 
   147  0185                     	;# 
   148  0187                     	;# 
   149  0188                     	;# 
   150  0189                     	;# 
   151  018C                     	;# 
   152  018D                     	;# 
   153  0000                     	;# 
   154  0001                     	;# 
   155  0002                     	;# 
   156  0003                     	;# 
   157  0004                     	;# 
   158  0005                     	;# 
   159  0006                     	;# 
   160  0007                     	;# 
   161  0008                     	;# 
   162  0009                     	;# 
   163  000A                     	;# 
   164  000B                     	;# 
   165  000C                     	;# 
   166  000D                     	;# 
   167  000E                     	;# 
   168  000E                     	;# 
   169  000F                     	;# 
   170  0010                     	;# 
   171  0011                     	;# 
   172  0012                     	;# 
   173  0013                     	;# 
   174  0014                     	;# 
   175  0015                     	;# 
   176  0015                     	;# 
   177  0016                     	;# 
   178  0017                     	;# 
   179  0018                     	;# 
   180  0019                     	;# 
   181  001A                     	;# 
   182  001B                     	;# 
   183  001B                     	;# 
   184  001C                     	;# 
   185  001D                     	;# 
   186  001E                     	;# 
   187  001F                     	;# 
   188  0081                     	;# 
   189  0085                     	;# 
   190  0086                     	;# 
   191  0087                     	;# 
   192  0088                     	;# 
   193  0089                     	;# 
   194  008C                     	;# 
   195  008D                     	;# 
   196  008E                     	;# 
   197  008F                     	;# 
   198  0090                     	;# 
   199  0091                     	;# 
   200  0092                     	;# 
   201  0093                     	;# 
   202  0093                     	;# 
   203  0093                     	;# 
   204  0094                     	;# 
   205  0095                     	;# 
   206  0096                     	;# 
   207  0097                     	;# 
   208  0098                     	;# 
   209  0099                     	;# 
   210  009A                     	;# 
   211  009B                     	;# 
   212  009C                     	;# 
   213  009D                     	;# 
   214  009E                     	;# 
   215  009F                     	;# 
   216  0105                     	;# 
   217  0107                     	;# 
   218  0108                     	;# 
   219  0109                     	;# 
   220  010C                     	;# 
   221  010C                     	;# 
   222  010D                     	;# 
   223  010E                     	;# 
   224  010F                     	;# 
   225  0185                     	;# 
   226  0187                     	;# 
   227  0188                     	;# 
   228  0189                     	;# 
   229  018C                     	;# 
   230  018D                     	;# 
   231  0013                     _SSPBUF	set	19
   232  0014                     _SSPCONbits	set	20
   233  0012                     _T2CONbits	set	18
   234  001B                     _CCPR2L	set	27
   235  0015                     _CCPR1L	set	21
   236  001D                     _CCP2CONbits	set	29
   237  0017                     _CCP1CONbits	set	23
   238  0017                     _CCP1CON	set	23
   239  0007                     _PORTC	set	7
   240  0006                     _PORTB	set	6
   241  0008                     _PORTD	set	8
   242  0009                     _PORTE	set	9
   243  0005                     _PORTA	set	5
   244  001E                     _ADRESH	set	30
   245  001F                     _ADCON0bits	set	31
   246  000C                     _PIR1bits	set	12
   247  0008                     _PORTDbits	set	8
   248  0006                     _PORTBbits	set	6
   249  000B                     _INTCONbits	set	11
   250  008C                     _PIE1bits	set	140
   251  0094                     _SSPSTATbits	set	148
   252  0092                     _PR2	set	146
   253  0087                     _TRISCbits	set	135
   254  009F                     _ADCON1bits	set	159
   255  008F                     _OSCCONbits	set	143
   256  0087                     _TRISC	set	135
   257  0096                     _IOCBbits	set	150
   258  0095                     _WPUBbits	set	149
   259  0081                     _OPTION_REGbits	set	129
   260  0086                     _TRISB	set	134
   261  0088                     _TRISD	set	136
   262  0089                     _TRISE	set	137
   263  0085                     _TRISA	set	133
   264  010C                     _EEDAT	set	268
   265  010D                     _EEADR	set	269
   266  018D                     _EECON2	set	397
   267  018C                     _EECON1bits	set	396
   268  0189                     _ANSELH	set	393
   269  0188                     _ANSEL	set	392
   270                           
   271                           	psect	cinit
   272  0013                     start_initialization:	
   273                           ; #config settings
   274                           
   275  0013                     __initialization:
   276                           
   277                           ; Clear objects allocated to BANK1
   278  0013  1683               	bsf	3,5	;RP0=1, select bank1
   279  0014  1303               	bcf	3,6	;RP1=0, select bank1
   280  0015  01D2               	clrf	__pbssBANK1& (0+127)
   281  0016  01D3               	clrf	(__pbssBANK1+1)& (0+127)
   282  0017  01D4               	clrf	(__pbssBANK1+2)& (0+127)
   283  0018  01D5               	clrf	(__pbssBANK1+3)& (0+127)
   284  0019  01D6               	clrf	(__pbssBANK1+4)& (0+127)
   285  001A  01D7               	clrf	(__pbssBANK1+5)& (0+127)
   286  001B  01D8               	clrf	(__pbssBANK1+6)& (0+127)
   287  001C  01D9               	clrf	(__pbssBANK1+7)& (0+127)
   288  001D  01DA               	clrf	(__pbssBANK1+8)& (0+127)
   289                           
   290                           ; Clear objects allocated to BANK3
   291  001E  1683               	bsf	3,5	;RP0=1, select bank3
   292  001F  1703               	bsf	3,6	;RP1=1, select bank3
   293  0020  01E3               	clrf	__pbssBANK3& (0+127)
   294  0021  01E4               	clrf	(__pbssBANK3+1)& (0+127)
   295  0022                     end_of_initialization:	
   296                           ;End of C runtime variable initialization code
   297                           
   298  0022                     __end_of__initialization:
   299  0022  0183               	clrf	3
   300  0023  160A  118A  29EB   	ljmp	_main	;jump to C main() function
   301                           
   302                           	psect	bssBANK1
   303  00D2                     __pbssBANK1:
   304  00D2                     _CCPR_2:
   305  00D2                     	ds	2
   306  00D4                     _CCPR_1:
   307  00D4                     	ds	2
   308  00D6                     _mode_flag:
   309  00D6                     	ds	1
   310  00D7                     _pot_LP2:
   311  00D7                     	ds	1
   312  00D8                     _pot_LA1:
   313  00D8                     	ds	1
   314  00D9                     _pot_RP2:
   315  00D9                     	ds	1
   316  00DA                     _pot_RA1:
   317  00DA                     	ds	1
   318                           
   319                           	psect	bssBANK3
   320  01E3                     __pbssBANK3:
   321  01E3                     _wheel_flag_l:
   322  01E3                     	ds	1
   323  01E4                     _wheel_flag_r:
   324  01E4                     	ds	1
   325                           
   326                           	psect	cstackBANK3
   327  0190                     __pcstackBANK3:
   328  0190                     ___fldiv@rem:
   329                           
   330                           ; 4 bytes @ 0x0
   331  0190                     	ds	4
   332  0194                     ___fldiv@sign:
   333                           
   334                           ; 1 bytes @ 0x4
   335  0194                     	ds	1
   336  0195                     ___fldiv@new_exp:
   337                           
   338                           ; 2 bytes @ 0x5
   339  0195                     	ds	2
   340  0197                     ___fldiv@grs:
   341                           
   342                           ; 4 bytes @ 0x7
   343  0197                     	ds	4
   344  019B                     ___fldiv@bexp:
   345                           
   346                           ; 1 bytes @ 0xB
   347  019B                     	ds	1
   348  019C                     ___fldiv@aexp:
   349                           
   350                           ; 1 bytes @ 0xC
   351  019C                     	ds	1
   352  019D                     ?___flmul:
   353  019D                     ___flmul@b:	
   354                           ; 4 bytes @ 0xD
   355                           
   356                           
   357                           ; 4 bytes @ 0xD
   358  019D                     	ds	4
   359  01A1                     ___flmul@a:
   360                           
   361                           ; 4 bytes @ 0x11
   362  01A1                     	ds	4
   363  01A5                     ??___flmul:
   364                           
   365                           ; 1 bytes @ 0x15
   366  01A5                     	ds	5
   367  01AA                     ___flmul@sign:
   368                           
   369                           ; 1 bytes @ 0x1A
   370  01AA                     	ds	1
   371  01AB                     ___flmul@aexp:
   372                           
   373                           ; 1 bytes @ 0x1B
   374  01AB                     	ds	1
   375  01AC                     ___flmul@grs:
   376                           
   377                           ; 4 bytes @ 0x1C
   378  01AC                     	ds	4
   379  01B0                     ___flmul@bexp:
   380                           
   381                           ; 1 bytes @ 0x20
   382  01B0                     	ds	1
   383  01B1                     ___flmul@prod:
   384                           
   385                           ; 4 bytes @ 0x21
   386  01B1                     	ds	4
   387  01B5                     ___flmul@temp:
   388                           
   389                           ; 2 bytes @ 0x25
   390  01B5                     	ds	2
   391  01B7                     ?___fladd:
   392  01B7                     ___fladd@b:	
   393                           ; 4 bytes @ 0x27
   394                           
   395                           
   396                           ; 4 bytes @ 0x27
   397  01B7                     	ds	4
   398  01BB                     ___fladd@a:
   399                           
   400                           ; 4 bytes @ 0x2B
   401  01BB                     	ds	4
   402  01BF                     ??___fladd:
   403                           
   404                           ; 1 bytes @ 0x2F
   405  01BF                     	ds	8
   406  01C7                     ___fladd@signs:
   407                           
   408                           ; 1 bytes @ 0x37
   409  01C7                     	ds	1
   410  01C8                     ___fladd@aexp:
   411                           
   412                           ; 1 bytes @ 0x38
   413  01C8                     	ds	1
   414  01C9                     ___fladd@bexp:
   415                           
   416                           ; 1 bytes @ 0x39
   417  01C9                     	ds	1
   418  01CA                     ___fladd@grs:
   419                           
   420                           ; 1 bytes @ 0x3A
   421  01CA                     	ds	1
   422  01CB                     ?___fltol:
   423  01CB                     ___fltol@f1:	
   424                           ; 4 bytes @ 0x3B
   425                           
   426                           
   427                           ; 4 bytes @ 0x3B
   428  01CB                     	ds	4
   429  01CF                     ??___fltol:
   430                           
   431                           ; 1 bytes @ 0x3F
   432  01CF                     	ds	5
   433  01D4                     ?_interpole:
   434  01D4                     interpole@in_min:	
   435                           ; 2 bytes @ 0x44
   436                           
   437                           
   438                           ; 1 bytes @ 0x44
   439  01D4                     	ds	1
   440  01D5                     interpole@in_max:
   441                           
   442                           ; 1 bytes @ 0x45
   443  01D5                     	ds	1
   444  01D6                     interpole@out_min:
   445                           
   446                           ; 2 bytes @ 0x46
   447  01D6                     	ds	2
   448  01D8                     interpole@out_max:
   449                           
   450                           ; 2 bytes @ 0x48
   451  01D8                     	ds	2
   452  01DA                     interpole@value:
   453                           
   454                           ; 1 bytes @ 0x4A
   455  01DA                     	ds	1
   456  01DB                     ?_move_servo:
   457  01DB                     move_servo@interpole_val:	
   458                           ; 1 bytes @ 0x4B
   459                           
   460                           
   461                           ; 1 bytes @ 0x4B
   462  01DB                     	ds	1
   463  01DC                     ??_move_servo:
   464                           
   465                           ; 1 bytes @ 0x4C
   466  01DC                     	ds	2
   467  01DE                     move_servo@servo:
   468                           
   469                           ; 1 bytes @ 0x4E
   470  01DE                     	ds	1
   471  01DF                     move_servo@CCPR:
   472                           
   473                           ; 2 bytes @ 0x4F
   474  01DF                     	ds	2
   475  01E1                     ??_main:
   476                           
   477                           ; 1 bytes @ 0x51
   478  01E1                     	ds	2
   479                           
   480                           	psect	cstackBANK1
   481  00A0                     __pcstackBANK1:
   482  00A0                     ??i1___fltol:
   483                           
   484                           ; 1 bytes @ 0x0
   485  00A0                     	ds	5
   486  00A5                     ?i1_interpole:
   487  00A5                     i1interpole@in_min:	
   488                           ; 2 bytes @ 0x5
   489                           
   490                           
   491                           ; 1 bytes @ 0x5
   492  00A5                     	ds	1
   493  00A6                     i1interpole@in_max:
   494                           
   495                           ; 1 bytes @ 0x6
   496  00A6                     	ds	1
   497  00A7                     i1interpole@out_min:
   498                           
   499                           ; 2 bytes @ 0x7
   500  00A7                     	ds	2
   501  00A9                     i1interpole@out_max:
   502                           
   503                           ; 2 bytes @ 0x9
   504  00A9                     	ds	2
   505  00AB                     ??i1_move_servo:
   506                           
   507                           ; 1 bytes @ 0xB
   508  00AB                     	ds	2
   509  00AD                     i1move_servo@servo:
   510                           
   511                           ; 1 bytes @ 0xD
   512  00AD                     	ds	1
   513  00AE                     i1move_servo@CCPR:
   514                           
   515                           ; 2 bytes @ 0xE
   516  00AE                     	ds	2
   517  00B0                     ??_isr:
   518                           
   519                           ; 1 bytes @ 0x10
   520  00B0                     	ds	5
   521  00B5                     ??_read_EEPROM:
   522  00B5                     ??_send_data:	
   523                           ; 1 bytes @ 0x15
   524                           
   525  00B5                     ??_setup:	
   526                           ; 1 bytes @ 0x15
   527                           
   528  00B5                     ?__Umul8_16:	
   529                           ; 1 bytes @ 0x15
   530                           
   531  00B5                     ?___xxtofl:	
   532                           ; 2 bytes @ 0x15
   533                           
   534  00B5                     send_data@data:	
   535                           ; 4 bytes @ 0x15
   536                           
   537  00B5                     read_EEPROM@address:	
   538                           ; 1 bytes @ 0x15
   539                           
   540  00B5                     __Umul8_16@multiplicand:	
   541                           ; 1 bytes @ 0x15
   542                           
   543  00B5                     ___xxtofl@val:	
   544                           ; 1 bytes @ 0x15
   545                           
   546                           
   547                           ; 4 bytes @ 0x15
   548  00B5                     	ds	2
   549  00B7                     ??__Umul8_16:
   550                           
   551                           ; 1 bytes @ 0x17
   552  00B7                     	ds	2
   553  00B9                     ??___xxtofl:
   554  00B9                     __Umul8_16@product:	
   555                           ; 1 bytes @ 0x19
   556                           
   557                           
   558                           ; 2 bytes @ 0x19
   559  00B9                     	ds	2
   560  00BB                     __Umul8_16@word_mpld:
   561                           
   562                           ; 2 bytes @ 0x1B
   563  00BB                     	ds	2
   564  00BD                     __Umul8_16@multiplier:
   565  00BD                     ___xxtofl@sign:	
   566                           ; 1 bytes @ 0x1D
   567                           
   568                           
   569                           ; 1 bytes @ 0x1D
   570  00BD                     	ds	1
   571  00BE                     ___xxtofl@exp:
   572                           
   573                           ; 1 bytes @ 0x1E
   574  00BE                     	ds	1
   575  00BF                     ___xxtofl@arg:
   576                           
   577                           ; 4 bytes @ 0x1F
   578  00BF                     	ds	4
   579  00C3                     ?___fldiv:
   580  00C3                     ___fldiv@a:	
   581                           ; 4 bytes @ 0x23
   582                           
   583                           
   584                           ; 4 bytes @ 0x23
   585  00C3                     	ds	4
   586  00C7                     ___fldiv@b:
   587                           
   588                           ; 4 bytes @ 0x27
   589  00C7                     	ds	4
   590  00CB                     ??___fldiv:
   591                           
   592                           ; 1 bytes @ 0x2B
   593  00CB                     	ds	5
   594  00D0                     ___fltol@sign1:
   595                           
   596                           ; 1 bytes @ 0x30
   597  00D0                     	ds	1
   598  00D1                     ___fltol@exp1:
   599                           
   600                           ; 1 bytes @ 0x31
   601  00D1                     	ds	1
   602  00D2                     ??_interpole:
   603                           
   604                           	psect	cstackCOMMON
   605  0070                     __pcstackCOMMON:	
   606                           ; 1 bytes @ 0x32
   607                           
   608  0070                     ?_read_EEPROM:
   609  0070                     ?_send_data:	
   610                           ; 1 bytes @ 0x0
   611                           
   612  0070                     ?_write_EEPROM:	
   613                           ; 1 bytes @ 0x0
   614                           
   615  0070                     ?_setup:	
   616                           ; 1 bytes @ 0x0
   617                           
   618  0070                     ?_isr:	
   619                           ; 1 bytes @ 0x0
   620                           
   621  0070                     ?_main:	
   622                           ; 1 bytes @ 0x0
   623                           
   624  0070                     ?i1_send_data:	
   625                           ; 1 bytes @ 0x0
   626                           
   627  0070                     ??i1_send_data:	
   628                           ; 1 bytes @ 0x0
   629                           
   630  0070                     ?i1_read_EEPROM:	
   631                           ; 1 bytes @ 0x0
   632                           
   633  0070                     ??i1_read_EEPROM:	
   634                           ; 1 bytes @ 0x0
   635                           
   636  0070                     ?i1__Umul8_16:	
   637                           ; 1 bytes @ 0x0
   638                           
   639  0070                     ?i1___xxtofl:	
   640                           ; 2 bytes @ 0x0
   641                           
   642  0070                     write_EEPROM@data:	
   643                           ; 4 bytes @ 0x0
   644                           
   645  0070                     i1send_data@data:	
   646                           ; 1 bytes @ 0x0
   647                           
   648  0070                     i1read_EEPROM@address:	
   649                           ; 1 bytes @ 0x0
   650                           
   651  0070                     i1__Umul8_16@multiplicand:	
   652                           ; 1 bytes @ 0x0
   653                           
   654  0070                     i1___xxtofl@val:	
   655                           ; 1 bytes @ 0x0
   656                           
   657                           
   658                           ; 4 bytes @ 0x0
   659  0070                     	ds	1
   660  0071                     ??_write_EEPROM:
   661  0071                     write_EEPROM@address:	
   662                           ; 1 bytes @ 0x1
   663                           
   664                           
   665                           ; 1 bytes @ 0x1
   666  0071                     	ds	1
   667  0072                     ??i1__Umul8_16:
   668                           
   669                           ; 1 bytes @ 0x2
   670  0072                     	ds	2
   671  0074                     ??i1___xxtofl:
   672  0074                     i1__Umul8_16@product:	
   673                           ; 1 bytes @ 0x4
   674                           
   675                           
   676                           ; 2 bytes @ 0x4
   677  0074                     	ds	2
   678  0076                     i1__Umul8_16@word_mpld:
   679                           
   680                           ; 2 bytes @ 0x6
   681  0076                     	ds	2
   682  0078                     i1__Umul8_16@multiplier:
   683  0078                     i1___xxtofl@sign:	
   684                           ; 1 bytes @ 0x8
   685                           
   686                           
   687                           ; 1 bytes @ 0x8
   688  0078                     	ds	1
   689  0079                     i1___xxtofl@exp:
   690                           
   691                           ; 1 bytes @ 0x9
   692  0079                     	ds	1
   693  007A                     i1___xxtofl@arg:
   694                           
   695                           ; 4 bytes @ 0xA
   696  007A                     	ds	4
   697  007E                     ??i1_interpole:
   698                           
   699                           	psect	cstackBANK0
   700  0020                     __pcstackBANK0:	
   701                           ; 1 bytes @ 0xE
   702                           
   703  0020                     ?i1___fldiv:
   704  0020                     i1___fldiv@a:	
   705                           ; 4 bytes @ 0x0
   706                           
   707                           
   708                           ; 4 bytes @ 0x0
   709  0020                     	ds	4
   710  0024                     i1___fldiv@b:
   711                           
   712                           ; 4 bytes @ 0x4
   713  0024                     	ds	4
   714  0028                     ??i1___fldiv:
   715                           
   716                           ; 1 bytes @ 0x8
   717  0028                     	ds	5
   718  002D                     i1___fldiv@rem:
   719                           
   720                           ; 4 bytes @ 0xD
   721  002D                     	ds	4
   722  0031                     i1___fldiv@sign:
   723                           
   724                           ; 1 bytes @ 0x11
   725  0031                     	ds	1
   726  0032                     i1___fldiv@new_exp:
   727                           
   728                           ; 2 bytes @ 0x12
   729  0032                     	ds	2
   730  0034                     i1___fldiv@grs:
   731                           
   732                           ; 4 bytes @ 0x14
   733  0034                     	ds	4
   734  0038                     i1___fldiv@bexp:
   735                           
   736                           ; 1 bytes @ 0x18
   737  0038                     	ds	1
   738  0039                     i1___fldiv@aexp:
   739                           
   740                           ; 1 bytes @ 0x19
   741  0039                     	ds	1
   742  003A                     ?i1___flmul:
   743  003A                     i1___flmul@b:	
   744                           ; 4 bytes @ 0x1A
   745                           
   746                           
   747                           ; 4 bytes @ 0x1A
   748  003A                     	ds	4
   749  003E                     i1___flmul@a:
   750                           
   751                           ; 4 bytes @ 0x1E
   752  003E                     	ds	4
   753  0042                     ??i1___flmul:
   754                           
   755                           ; 1 bytes @ 0x22
   756  0042                     	ds	5
   757  0047                     i1___flmul@sign:
   758                           
   759                           ; 1 bytes @ 0x27
   760  0047                     	ds	1
   761  0048                     i1___flmul@grs:
   762                           
   763                           ; 4 bytes @ 0x28
   764  0048                     	ds	4
   765  004C                     i1___flmul@aexp:
   766                           
   767                           ; 1 bytes @ 0x2C
   768  004C                     	ds	1
   769  004D                     i1___flmul@bexp:
   770                           
   771                           ; 1 bytes @ 0x2D
   772  004D                     	ds	1
   773  004E                     i1___flmul@prod:
   774                           
   775                           ; 4 bytes @ 0x2E
   776  004E                     	ds	4
   777  0052                     i1___flmul@temp:
   778                           
   779                           ; 2 bytes @ 0x32
   780  0052                     	ds	2
   781  0054                     ?i1___fladd:
   782  0054                     i1___fladd@b:	
   783                           ; 4 bytes @ 0x34
   784                           
   785                           
   786                           ; 4 bytes @ 0x34
   787  0054                     	ds	4
   788  0058                     i1___fladd@a:
   789                           
   790                           ; 4 bytes @ 0x38
   791  0058                     	ds	4
   792  005C                     ??i1___fladd:
   793                           
   794                           ; 1 bytes @ 0x3C
   795  005C                     	ds	8
   796  0064                     i1___fladd@signs:
   797                           
   798                           ; 1 bytes @ 0x44
   799  0064                     	ds	1
   800  0065                     i1___fladd@aexp:
   801                           
   802                           ; 1 bytes @ 0x45
   803  0065                     	ds	1
   804  0066                     i1___fladd@bexp:
   805                           
   806                           ; 1 bytes @ 0x46
   807  0066                     	ds	1
   808  0067                     i1___fladd@grs:
   809                           
   810                           ; 1 bytes @ 0x47
   811  0067                     	ds	1
   812  0068                     ?i1___fltol:
   813  0068                     i1___fltol@f1:	
   814                           ; 4 bytes @ 0x48
   815                           
   816                           
   817                           ; 4 bytes @ 0x48
   818  0068                     	ds	4
   819  006C                     i1___fltol@sign1:
   820                           
   821                           ; 1 bytes @ 0x4C
   822  006C                     	ds	1
   823  006D                     i1___fltol@exp1:
   824                           
   825                           ; 1 bytes @ 0x4D
   826  006D                     	ds	1
   827  006E                     i1interpole@value:
   828                           
   829                           ; 1 bytes @ 0x4E
   830  006E                     	ds	1
   831  006F                     ?i1_move_servo:
   832  006F                     i1move_servo@interpole_val:	
   833                           ; 1 bytes @ 0x4F
   834                           
   835                           
   836                           ; 1 bytes @ 0x4F
   837  006F                     	ds	1
   838                           
   839                           	psect	maintext
   840  11EB                     __pmaintext:	
   841 ;;
   842 ;;Main: autosize = 0, tempsize = 2, incstack = 0, save=0
   843 ;;
   844 ;; *************** function _main *****************
   845 ;; Defined at:
   846 ;;		line 206 in file "main_master.c"
   847 ;; Parameters:    Size  Location     Type
   848 ;;		None
   849 ;; Auto vars:     Size  Location     Type
   850 ;;		None
   851 ;; Return value:  Size  Location     Type
   852 ;;                  1    wreg      void 
   853 ;; Registers used:
   854 ;;		wreg, status,2, status,0, btemp+1, pclath, cstack
   855 ;; Tracked objects:
   856 ;;		On entry : B00/0
   857 ;;		On exit  : 0/0
   858 ;;		Unchanged: 0/0
   859 ;; Data sizes:     COMMON   BANK0   BANK1   BANK3   BANK2
   860 ;;      Params:         0       0       0       0       0
   861 ;;      Locals:         0       0       0       0       0
   862 ;;      Temps:          0       0       0       2       0
   863 ;;      Totals:         0       0       0       2       0
   864 ;;Total ram usage:        2 bytes
   865 ;; Hardware stack levels required when called: 9
   866 ;; This function calls:
   867 ;;		_move_servo
   868 ;;		_read_EEPROM
   869 ;;		_send_data
   870 ;;		_setup
   871 ;; This function is called by:
   872 ;;		Startup code after reset
   873 ;; This function uses a non-reentrant model
   874 ;;
   875                           
   876  11EB                     _main:	
   877                           ;psect for function _main
   878                           
   879  11EB                     l4530:	
   880                           ;incstack = 0
   881 ;; hardware stack exceeded
   882                           ; Regs used in _main: [wreg+status,2+status,0+btemp+1+pclath+cstack]
   883                           
   884                           
   885                           ;main_master.c: 207:     setup();
   886  11EB  160A  158A  2479  160A  118A  	fcall	_setup
   887  11F0                     l4532:
   888                           
   889                           ;main_master.c: 209:     CCPR_1 = read_EEPROM(0x01);
   890  11F0  3001               	movlw	1
   891  11F1  160A  158A  2444  160A  118A  	fcall	_read_EEPROM
   892  11F6  1683               	bsf	3,5	;RP0=1, select bank3
   893  11F7  1703               	bsf	3,6	;RP1=1, select bank3
   894  11F8  00E1               	movwf	??_main^(0+384)
   895  11F9  01E2               	clrf	(??_main^(0+384)+1)
   896  11FA  0861               	movf	??_main^(0+384),w
   897  11FB  1683               	bsf	3,5	;RP0=1, select bank1
   898  11FC  1303               	bcf	3,6	;RP1=0, select bank1
   899  11FD  00D4               	movwf	_CCPR_1^(0+128)
   900  11FE  1683               	bsf	3,5	;RP0=1, select bank3
   901  11FF  1703               	bsf	3,6	;RP1=1, select bank3
   902  1200  0862               	movf	(??_main+1)^(0+384),w
   903  1201  1683               	bsf	3,5	;RP0=1, select bank1
   904  1202  1303               	bcf	3,6	;RP1=0, select bank1
   905  1203  00D5               	movwf	(_CCPR_1+1)^(0+128)
   906  1204                     l4534:
   907                           
   908                           ;main_master.c: 210:     move_servo (1,CCPR_1);
   909  1204  0854               	movf	_CCPR_1^(0+128),w
   910  1205  1683               	bsf	3,5	;RP0=1, select bank3
   911  1206  1703               	bsf	3,6	;RP1=1, select bank3
   912  1207  00E1               	movwf	??_main^(0+384)
   913  1208  0861               	movf	??_main^(0+384),w
   914  1209  00DB               	movwf	move_servo@interpole_val^(0+384)
   915  120A  3001               	movlw	1
   916  120B  160A  158A  2504  160A  118A  	fcall	_move_servo
   917  1210                     l4536:
   918                           
   919                           ;main_master.c: 212:     PORTDbits.RD1 = 0;
   920  1210  1283               	bcf	3,5	;RP0=0, select bank0
   921  1211  1303               	bcf	3,6	;RP1=0, select bank0
   922  1212  1088               	bcf	8,1	;volatile
   923  1213                     l4538:
   924                           
   925                           ;main_master.c: 213:     send_data(read_EEPROM (0x02));
   926  1213  3002               	movlw	2
   927  1214  160A  158A  2444  160A  118A  	fcall	_read_EEPROM
   928  1219  160A  158A  2463  160A  118A  	fcall	_send_data
   929  121E                     l4540:
   930                           
   931                           ;main_master.c: 214:     _delay((unsigned long)((50)*(500000/4000.0)));
   932  121E  3009               	movlw	9
   933  121F  1683               	bsf	3,5	;RP0=1, select bank3
   934  1220  1703               	bsf	3,6	;RP1=1, select bank3
   935  1221  00E2               	movwf	(??_main^(0+384)+1)
   936  1222  301B               	movlw	27
   937  1223  00E1               	movwf	??_main^(0+384)
   938  1224                     u7877:
   939  1224  0BE1               	decfsz	??_main^(0+384),f
   940  1225  2A24               	goto	u7877
   941  1226  0BE2               	decfsz	(??_main^(0+384)+1),f
   942  1227  2A24               	goto	u7877
   943  1228  2A29               	nop2
   944  1229                     l4542:
   945                           
   946                           ;main_master.c: 216:     CCPR_2 = read_EEPROM(0x03);
   947  1229  3003               	movlw	3
   948  122A  160A  158A  2444  160A  118A  	fcall	_read_EEPROM
   949  122F  1683               	bsf	3,5	;RP0=1, select bank3
   950  1230  1703               	bsf	3,6	;RP1=1, select bank3
   951  1231  00E1               	movwf	??_main^(0+384)
   952  1232  01E2               	clrf	(??_main^(0+384)+1)
   953  1233  0861               	movf	??_main^(0+384),w
   954  1234  1683               	bsf	3,5	;RP0=1, select bank1
   955  1235  1303               	bcf	3,6	;RP1=0, select bank1
   956  1236  00D2               	movwf	_CCPR_2^(0+128)
   957  1237  1683               	bsf	3,5	;RP0=1, select bank3
   958  1238  1703               	bsf	3,6	;RP1=1, select bank3
   959  1239  0862               	movf	(??_main+1)^(0+384),w
   960  123A  1683               	bsf	3,5	;RP0=1, select bank1
   961  123B  1303               	bcf	3,6	;RP1=0, select bank1
   962  123C  00D3               	movwf	(_CCPR_2+1)^(0+128)
   963  123D                     l4544:
   964                           
   965                           ;main_master.c: 217:     move_servo (2,CCPR_2);
   966  123D  0852               	movf	_CCPR_2^(0+128),w
   967  123E  1683               	bsf	3,5	;RP0=1, select bank3
   968  123F  1703               	bsf	3,6	;RP1=1, select bank3
   969  1240  00E1               	movwf	??_main^(0+384)
   970  1241  0861               	movf	??_main^(0+384),w
   971  1242  00DB               	movwf	move_servo@interpole_val^(0+384)
   972  1243  3002               	movlw	2
   973  1244  160A  158A  2504  160A  118A  	fcall	_move_servo
   974  1249                     l4546:
   975                           
   976                           ;main_master.c: 219:     PORTDbits.RD1 = 1;
   977  1249  1283               	bcf	3,5	;RP0=0, select bank0
   978  124A  1303               	bcf	3,6	;RP1=0, select bank0
   979  124B  1488               	bsf	8,1	;volatile
   980  124C                     l4548:
   981                           
   982                           ;main_master.c: 220:     send_data(read_EEPROM (0x04));
   983  124C  3004               	movlw	4
   984  124D  160A  158A  2444  160A  118A  	fcall	_read_EEPROM
   985  1252  160A  158A  2463  160A  118A  	fcall	_send_data
   986  1257                     l4550:
   987                           
   988                           ;main_master.c: 221:     _delay((unsigned long)((50)*(500000/4000.0)));
   989  1257  3009               	movlw	9
   990  1258  1683               	bsf	3,5	;RP0=1, select bank3
   991  1259  1703               	bsf	3,6	;RP1=1, select bank3
   992  125A  00E2               	movwf	(??_main^(0+384)+1)
   993  125B  301B               	movlw	27
   994  125C  00E1               	movwf	??_main^(0+384)
   995  125D                     u7887:
   996  125D  0BE1               	decfsz	??_main^(0+384),f
   997  125E  2A5D               	goto	u7887
   998  125F  0BE2               	decfsz	(??_main^(0+384)+1),f
   999  1260  2A5D               	goto	u7887
  1000  1261  2A62               	nop2
  1001  1262                     l4552:
  1002                           
  1003                           ;main_master.c: 224:         if (ADCON0bits.GO == 0) {
  1004  1262  1283               	bcf	3,5	;RP0=0, select bank0
  1005  1263  1303               	bcf	3,6	;RP1=0, select bank0
  1006  1264  189F               	btfsc	31,1	;volatile
  1007  1265  2A67               	goto	u7751
  1008  1266  2A68               	goto	u7750
  1009  1267                     u7751:
  1010  1267  2AD8               	goto	l4580
  1011  1268                     u7750:
  1012  1268                     l4554:
  1013                           
  1014                           ;main_master.c: 225:         if (ADCON0bits.CHS == 0b0000)
  1015  1268  0C1F               	rrf	31,w	;volatile
  1016  1269  1683               	bsf	3,5	;RP0=1, select bank3
  1017  126A  1703               	bsf	3,6	;RP1=1, select bank3
  1018  126B  00E1               	movwf	??_main^(0+384)
  1019  126C  0C61               	rrf	??_main^(0+384),w
  1020  126D  390F               	andlw	15
  1021  126E  3A00               	xorlw	0
  1022  126F  1D03               	skipz
  1023  1270  2A72               	goto	u7761
  1024  1271  2A73               	goto	u7760
  1025  1272                     u7761:
  1026  1272  2A7A               	goto	l4558
  1027  1273                     u7760:
  1028  1273                     l4556:
  1029                           
  1030                           ;main_master.c: 226:             ADCON0bits.CHS = 0b0001;
  1031  1273  1283               	bcf	3,5	;RP0=0, select bank0
  1032  1274  1303               	bcf	3,6	;RP1=0, select bank0
  1033  1275  081F               	movf	31,w	;volatile
  1034  1276  39C3               	andlw	-61
  1035  1277  3804               	iorlw	4
  1036  1278  009F               	movwf	31	;volatile
  1037  1279  2ACE               	goto	l4576
  1038  127A                     l4558:
  1039  127A  1283               	bcf	3,5	;RP0=0, select bank0
  1040  127B  1303               	bcf	3,6	;RP1=0, select bank0
  1041  127C  0C1F               	rrf	31,w	;volatile
  1042  127D  1683               	bsf	3,5	;RP0=1, select bank3
  1043  127E  1703               	bsf	3,6	;RP1=1, select bank3
  1044  127F  00E1               	movwf	??_main^(0+384)
  1045  1280  0C61               	rrf	??_main^(0+384),w
  1046  1281  390F               	andlw	15
  1047  1282  3A01               	xorlw	1
  1048  1283  1D03               	skipz
  1049  1284  2A86               	goto	u7771
  1050  1285  2A87               	goto	u7770
  1051  1286                     u7771:
  1052  1286  2A8E               	goto	l4562
  1053  1287                     u7770:
  1054  1287                     l4560:
  1055                           
  1056                           ;main_master.c: 229:             ADCON0bits.CHS = 0b0010;
  1057  1287  1283               	bcf	3,5	;RP0=0, select bank0
  1058  1288  1303               	bcf	3,6	;RP1=0, select bank0
  1059  1289  081F               	movf	31,w	;volatile
  1060  128A  39C3               	andlw	-61
  1061  128B  3808               	iorlw	8
  1062  128C  009F               	movwf	31	;volatile
  1063  128D  2ACE               	goto	l4576
  1064  128E                     l4562:
  1065  128E  1283               	bcf	3,5	;RP0=0, select bank0
  1066  128F  1303               	bcf	3,6	;RP1=0, select bank0
  1067  1290  0C1F               	rrf	31,w	;volatile
  1068  1291  1683               	bsf	3,5	;RP0=1, select bank3
  1069  1292  1703               	bsf	3,6	;RP1=1, select bank3
  1070  1293  00E1               	movwf	??_main^(0+384)
  1071  1294  0C61               	rrf	??_main^(0+384),w
  1072  1295  390F               	andlw	15
  1073  1296  3A02               	xorlw	2
  1074  1297  1D03               	skipz
  1075  1298  2A9A               	goto	u7781
  1076  1299  2A9B               	goto	u7780
  1077  129A                     u7781:
  1078  129A  2AA2               	goto	l4566
  1079  129B                     u7780:
  1080  129B                     l4564:
  1081                           
  1082                           ;main_master.c: 232:             ADCON0bits.CHS = 0b0011;
  1083  129B  1283               	bcf	3,5	;RP0=0, select bank0
  1084  129C  1303               	bcf	3,6	;RP1=0, select bank0
  1085  129D  081F               	movf	31,w	;volatile
  1086  129E  39C3               	andlw	-61
  1087  129F  380C               	iorlw	12
  1088  12A0  009F               	movwf	31	;volatile
  1089  12A1  2ACE               	goto	l4576
  1090  12A2                     l4566:
  1091  12A2  1283               	bcf	3,5	;RP0=0, select bank0
  1092  12A3  1303               	bcf	3,6	;RP1=0, select bank0
  1093  12A4  0C1F               	rrf	31,w	;volatile
  1094  12A5  1683               	bsf	3,5	;RP0=1, select bank3
  1095  12A6  1703               	bsf	3,6	;RP1=1, select bank3
  1096  12A7  00E1               	movwf	??_main^(0+384)
  1097  12A8  0C61               	rrf	??_main^(0+384),w
  1098  12A9  390F               	andlw	15
  1099  12AA  3A03               	xorlw	3
  1100  12AB  1D03               	skipz
  1101  12AC  2AAE               	goto	u7791
  1102  12AD  2AAF               	goto	u7790
  1103  12AE                     u7791:
  1104  12AE  2AB6               	goto	l4570
  1105  12AF                     u7790:
  1106  12AF                     l4568:
  1107                           
  1108                           ;main_master.c: 235:             ADCON0bits.CHS = 0b0100;
  1109  12AF  1283               	bcf	3,5	;RP0=0, select bank0
  1110  12B0  1303               	bcf	3,6	;RP1=0, select bank0
  1111  12B1  081F               	movf	31,w	;volatile
  1112  12B2  39C3               	andlw	-61
  1113  12B3  3810               	iorlw	16
  1114  12B4  009F               	movwf	31	;volatile
  1115  12B5  2ACE               	goto	l4576
  1116  12B6                     l4570:
  1117  12B6  1283               	bcf	3,5	;RP0=0, select bank0
  1118  12B7  1303               	bcf	3,6	;RP1=0, select bank0
  1119  12B8  0C1F               	rrf	31,w	;volatile
  1120  12B9  1683               	bsf	3,5	;RP0=1, select bank3
  1121  12BA  1703               	bsf	3,6	;RP1=1, select bank3
  1122  12BB  00E1               	movwf	??_main^(0+384)
  1123  12BC  0C61               	rrf	??_main^(0+384),w
  1124  12BD  390F               	andlw	15
  1125  12BE  3A04               	xorlw	4
  1126  12BF  1D03               	skipz
  1127  12C0  2AC2               	goto	u7801
  1128  12C1  2AC3               	goto	u7800
  1129  12C2                     u7801:
  1130  12C2  2ACA               	goto	l4574
  1131  12C3                     u7800:
  1132  12C3                     l4572:
  1133                           
  1134                           ;main_master.c: 238:             ADCON0bits.CHS = 0b0101;
  1135  12C3  1283               	bcf	3,5	;RP0=0, select bank0
  1136  12C4  1303               	bcf	3,6	;RP1=0, select bank0
  1137  12C5  081F               	movf	31,w	;volatile
  1138  12C6  39C3               	andlw	-61
  1139  12C7  3814               	iorlw	20
  1140  12C8  009F               	movwf	31	;volatile
  1141  12C9  2ACE               	goto	l4576
  1142  12CA                     l4574:
  1143                           
  1144                           ;main_master.c: 240:             ADCON0bits.CHS = 0b0000;
  1145  12CA  30C3               	movlw	-61
  1146  12CB  1283               	bcf	3,5	;RP0=0, select bank0
  1147  12CC  1303               	bcf	3,6	;RP1=0, select bank0
  1148  12CD  059F               	andwf	31,f	;volatile
  1149  12CE                     l4576:
  1150                           
  1151                           ;main_master.c: 242:         _delay((unsigned long)((1000)*(500000/4000000.0)));
  1152  12CE  3028               	movlw	40
  1153  12CF  1683               	bsf	3,5	;RP0=1, select bank3
  1154  12D0  1703               	bsf	3,6	;RP1=1, select bank3
  1155  12D1  00E1               	movwf	??_main^(0+384)
  1156  12D2                     u7897:
  1157  12D2  0BE1               	decfsz	??_main^(0+384),f
  1158  12D3  2AD2               	goto	u7897
  1159  12D4  2AD5               	nop2
  1160  12D5                     l4578:
  1161                           
  1162                           ;main_master.c: 243:         ADCON0bits.GO = 1;
  1163  12D5  1283               	bcf	3,5	;RP0=0, select bank0
  1164  12D6  1303               	bcf	3,6	;RP1=0, select bank0
  1165  12D7  149F               	bsf	31,1	;volatile
  1166  12D8                     l4580:
  1167                           
  1168                           ;main_master.c: 246:         if (mode_flag == 0){
  1169  12D8  1683               	bsf	3,5	;RP0=1, select bank1
  1170  12D9  1303               	bcf	3,6	;RP1=0, select bank1
  1171  12DA  0856               	movf	_mode_flag^(0+128),w
  1172  12DB  1D03               	btfss	3,2
  1173  12DC  2ADE               	goto	u7811
  1174  12DD  2ADF               	goto	u7810
  1175  12DE                     u7811:
  1176  12DE  2AE5               	goto	l4584
  1177  12DF                     u7810:
  1178  12DF                     l4582:
  1179                           
  1180                           ;main_master.c: 247:             PORTDbits.RD2 = 1;
  1181  12DF  1283               	bcf	3,5	;RP0=0, select bank0
  1182  12E0  1303               	bcf	3,6	;RP1=0, select bank0
  1183  12E1  1508               	bsf	8,2	;volatile
  1184                           
  1185                           ;main_master.c: 248:             PORTDbits.RD3 = 0;
  1186  12E2  1188               	bcf	8,3	;volatile
  1187                           
  1188                           ;main_master.c: 249:             PORTBbits.RB7 = 0;
  1189  12E3  1386               	bcf	6,7	;volatile
  1190                           
  1191                           ;main_master.c: 251:         }
  1192  12E4  2AF5               	goto	l4588
  1193  12E5                     l4584:
  1194  12E5  0356               	decf	_mode_flag^(0+128),w
  1195  12E6  1D03               	btfss	3,2
  1196  12E7  2AE9               	goto	u7821
  1197  12E8  2AEA               	goto	u7820
  1198  12E9                     u7821:
  1199  12E9  2AF0               	goto	l166
  1200  12EA                     u7820:
  1201  12EA                     l4586:
  1202                           
  1203                           ;main_master.c: 254:             PORTDbits.RD2 = 0;
  1204  12EA  1283               	bcf	3,5	;RP0=0, select bank0
  1205  12EB  1303               	bcf	3,6	;RP1=0, select bank0
  1206  12EC  1108               	bcf	8,2	;volatile
  1207                           
  1208                           ;main_master.c: 255:             PORTDbits.RD3 = 1;
  1209  12ED  1588               	bsf	8,3	;volatile
  1210                           
  1211                           ;main_master.c: 256:             PORTBbits.RB7 = 0;
  1212  12EE  1386               	bcf	6,7	;volatile
  1213                           
  1214                           ;main_master.c: 257:         }
  1215  12EF  2AF5               	goto	l4588
  1216  12F0                     l166:	
  1217                           ;main_master.c: 258:         else {
  1218                           
  1219                           
  1220                           ;main_master.c: 259:             PORTDbits.RD2 = 0;
  1221  12F0  1283               	bcf	3,5	;RP0=0, select bank0
  1222  12F1  1303               	bcf	3,6	;RP1=0, select bank0
  1223  12F2  1108               	bcf	8,2	;volatile
  1224                           
  1225                           ;main_master.c: 260:             PORTDbits.RD3 = 0;
  1226  12F3  1188               	bcf	8,3	;volatile
  1227                           
  1228                           ;main_master.c: 261:             PORTBbits.RB7 = 1;
  1229  12F4  1786               	bsf	6,7	;volatile
  1230  12F5                     l4588:
  1231                           
  1232                           ;main_master.c: 265:         if (wheel_flag_r == 1){
  1233  12F5  1683               	bsf	3,5	;RP0=1, select bank3
  1234  12F6  1703               	bsf	3,6	;RP1=1, select bank3
  1235  12F7  0364               	decf	_wheel_flag_r^(0+384),w
  1236  12F8  1D03               	btfss	3,2
  1237  12F9  2AFB               	goto	u7831
  1238  12FA  2AFC               	goto	u7830
  1239  12FB                     u7831:
  1240  12FB  2B13               	goto	l4596
  1241  12FC                     u7830:
  1242  12FC                     l4590:
  1243                           
  1244                           ;main_master.c: 267:             PORTBbits.RB3 = 1;
  1245  12FC  1283               	bcf	3,5	;RP0=0, select bank0
  1246  12FD  1303               	bcf	3,6	;RP1=0, select bank0
  1247  12FE  1586               	bsf	6,3	;volatile
  1248  12FF                     l4592:
  1249                           
  1250                           ;main_master.c: 268:             _delay((unsigned long)((10)*(500000/4000.0)));
  1251  12FF  30F9               	movlw	249
  1252  1300  1683               	bsf	3,5	;RP0=1, select bank3
  1253  1301  1703               	bsf	3,6	;RP1=1, select bank3
  1254  1302  00E1               	movwf	??_main^(0+384)
  1255  1303                     u7907:
  1256  1303  2B04               	nop2
  1257  1304  0BE1               	decfsz	??_main^(0+384),f
  1258  1305  2B03               	goto	u7907
  1259  1306  2B07               	nop2
  1260  1307                     l4594:
  1261                           
  1262                           ;main_master.c: 269:             PORTBbits.RB4 = 0;
  1263  1307  1283               	bcf	3,5	;RP0=0, select bank0
  1264  1308  1303               	bcf	3,6	;RP1=0, select bank0
  1265  1309  1206               	bcf	6,4	;volatile
  1266                           
  1267                           ;main_master.c: 270:             _delay((unsigned long)((10)*(500000/4000.0)));
  1268  130A  30F9               	movlw	249
  1269  130B  1683               	bsf	3,5	;RP0=1, select bank3
  1270  130C  1703               	bsf	3,6	;RP1=1, select bank3
  1271  130D  00E1               	movwf	??_main^(0+384)
  1272  130E                     u7917:
  1273  130E  2B0F               	nop2
  1274  130F  0BE1               	decfsz	??_main^(0+384),f
  1275  1310  2B0E               	goto	u7917
  1276  1311  2B12               	nop2
  1277                           
  1278                           ;main_master.c: 275:         }
  1279  1312  2B46               	goto	l4608
  1280  1313                     l4596:
  1281  1313  3002               	movlw	2
  1282  1314  0664               	xorwf	_wheel_flag_r^(0+384),w
  1283  1315  1D03               	btfss	3,2
  1284  1316  2B18               	goto	u7841
  1285  1317  2B19               	goto	u7840
  1286  1318                     u7841:
  1287  1318  2B30               	goto	l170
  1288  1319                     u7840:
  1289  1319                     l4598:
  1290                           
  1291                           ;main_master.c: 278:             PORTBbits.RB3 = 0;
  1292  1319  1283               	bcf	3,5	;RP0=0, select bank0
  1293  131A  1303               	bcf	3,6	;RP1=0, select bank0
  1294  131B  1186               	bcf	6,3	;volatile
  1295  131C                     l4600:
  1296                           
  1297                           ;main_master.c: 279:             _delay((unsigned long)((10)*(500000/4000.0)));
  1298  131C  30F9               	movlw	249
  1299  131D  1683               	bsf	3,5	;RP0=1, select bank3
  1300  131E  1703               	bsf	3,6	;RP1=1, select bank3
  1301  131F  00E1               	movwf	??_main^(0+384)
  1302  1320                     u7927:
  1303  1320  2B21               	nop2
  1304  1321  0BE1               	decfsz	??_main^(0+384),f
  1305  1322  2B20               	goto	u7927
  1306  1323  2B24               	nop2
  1307  1324                     l4602:
  1308                           
  1309                           ;main_master.c: 280:             PORTBbits.RB4 = 1;
  1310  1324  1283               	bcf	3,5	;RP0=0, select bank0
  1311  1325  1303               	bcf	3,6	;RP1=0, select bank0
  1312  1326  1606               	bsf	6,4	;volatile
  1313                           
  1314                           ;main_master.c: 281:             _delay((unsigned long)((10)*(500000/4000.0)));
  1315  1327  30F9               	movlw	249
  1316  1328  1683               	bsf	3,5	;RP0=1, select bank3
  1317  1329  1703               	bsf	3,6	;RP1=1, select bank3
  1318  132A  00E1               	movwf	??_main^(0+384)
  1319  132B                     u7937:
  1320  132B  2B2C               	nop2
  1321  132C  0BE1               	decfsz	??_main^(0+384),f
  1322  132D  2B2B               	goto	u7937
  1323  132E  2B2F               	nop2
  1324                           
  1325                           ;main_master.c: 286:         }
  1326  132F  2B46               	goto	l4608
  1327  1330                     l170:	
  1328                           ;main_master.c: 287:         else{
  1329                           
  1330                           
  1331                           ;main_master.c: 288:             PORTBbits.RB3 = 0;
  1332  1330  1283               	bcf	3,5	;RP0=0, select bank0
  1333  1331  1303               	bcf	3,6	;RP1=0, select bank0
  1334  1332  1186               	bcf	6,3	;volatile
  1335  1333                     l4604:
  1336                           
  1337                           ;main_master.c: 289:             _delay((unsigned long)((10)*(500000/4000.0)));
  1338  1333  30F9               	movlw	249
  1339  1334  1683               	bsf	3,5	;RP0=1, select bank3
  1340  1335  1703               	bsf	3,6	;RP1=1, select bank3
  1341  1336  00E1               	movwf	??_main^(0+384)
  1342  1337                     u7947:
  1343  1337  2B38               	nop2
  1344  1338  0BE1               	decfsz	??_main^(0+384),f
  1345  1339  2B37               	goto	u7947
  1346  133A  2B3B               	nop2
  1347  133B                     l4606:
  1348                           
  1349                           ;main_master.c: 290:             PORTBbits.RB4 = 0;
  1350  133B  1283               	bcf	3,5	;RP0=0, select bank0
  1351  133C  1303               	bcf	3,6	;RP1=0, select bank0
  1352  133D  1206               	bcf	6,4	;volatile
  1353                           
  1354                           ;main_master.c: 291:             _delay((unsigned long)((10)*(500000/4000.0)));
  1355  133E  30F9               	movlw	249
  1356  133F  1683               	bsf	3,5	;RP0=1, select bank3
  1357  1340  1703               	bsf	3,6	;RP1=1, select bank3
  1358  1341  00E1               	movwf	??_main^(0+384)
  1359  1342                     u7957:
  1360  1342  2B43               	nop2
  1361  1343  0BE1               	decfsz	??_main^(0+384),f
  1362  1344  2B42               	goto	u7957
  1363  1345  2B46               	nop2
  1364  1346                     l4608:
  1365                           
  1366                           ;main_master.c: 298:         if (wheel_flag_l == 1){
  1367  1346  1683               	bsf	3,5	;RP0=1, select bank3
  1368  1347  1703               	bsf	3,6	;RP1=1, select bank3
  1369  1348  0363               	decf	_wheel_flag_l^(0+384),w
  1370  1349  1D03               	btfss	3,2
  1371  134A  2B4C               	goto	u7851
  1372  134B  2B4D               	goto	u7850
  1373  134C                     u7851:
  1374  134C  2B64               	goto	l4616
  1375  134D                     u7850:
  1376  134D                     l4610:
  1377                           
  1378                           ;main_master.c: 300:             PORTBbits.RB5 = 1;
  1379  134D  1283               	bcf	3,5	;RP0=0, select bank0
  1380  134E  1303               	bcf	3,6	;RP1=0, select bank0
  1381  134F  1686               	bsf	6,5	;volatile
  1382  1350                     l4612:
  1383                           
  1384                           ;main_master.c: 301:             _delay((unsigned long)((10)*(500000/4000.0)));
  1385  1350  30F9               	movlw	249
  1386  1351  1683               	bsf	3,5	;RP0=1, select bank3
  1387  1352  1703               	bsf	3,6	;RP1=1, select bank3
  1388  1353  00E1               	movwf	??_main^(0+384)
  1389  1354                     u7967:
  1390  1354  2B55               	nop2
  1391  1355  0BE1               	decfsz	??_main^(0+384),f
  1392  1356  2B54               	goto	u7967
  1393  1357  2B58               	nop2
  1394  1358                     l4614:
  1395                           
  1396                           ;main_master.c: 302:             PORTBbits.RB6 = 0;
  1397  1358  1283               	bcf	3,5	;RP0=0, select bank0
  1398  1359  1303               	bcf	3,6	;RP1=0, select bank0
  1399  135A  1306               	bcf	6,6	;volatile
  1400                           
  1401                           ;main_master.c: 303:             _delay((unsigned long)((10)*(500000/4000.0)));
  1402  135B  30F9               	movlw	249
  1403  135C  1683               	bsf	3,5	;RP0=1, select bank3
  1404  135D  1703               	bsf	3,6	;RP1=1, select bank3
  1405  135E  00E1               	movwf	??_main^(0+384)
  1406  135F                     u7977:
  1407  135F  2B60               	nop2
  1408  1360  0BE1               	decfsz	??_main^(0+384),f
  1409  1361  2B5F               	goto	u7977
  1410  1362  2B63               	nop2
  1411                           
  1412                           ;main_master.c: 308:         }
  1413  1363  2A62               	goto	l4552
  1414  1364                     l4616:
  1415  1364  3002               	movlw	2
  1416  1365  0663               	xorwf	_wheel_flag_l^(0+384),w
  1417  1366  1D03               	btfss	3,2
  1418  1367  2B69               	goto	u7861
  1419  1368  2B6A               	goto	u7860
  1420  1369                     u7861:
  1421  1369  2B81               	goto	l174
  1422  136A                     u7860:
  1423  136A                     l4618:
  1424                           
  1425                           ;main_master.c: 310:             PORTBbits.RB5 = 0;
  1426  136A  1283               	bcf	3,5	;RP0=0, select bank0
  1427  136B  1303               	bcf	3,6	;RP1=0, select bank0
  1428  136C  1286               	bcf	6,5	;volatile
  1429  136D                     l4620:
  1430                           
  1431                           ;main_master.c: 311:             _delay((unsigned long)((10)*(500000/4000.0)));
  1432  136D  30F9               	movlw	249
  1433  136E  1683               	bsf	3,5	;RP0=1, select bank3
  1434  136F  1703               	bsf	3,6	;RP1=1, select bank3
  1435  1370  00E1               	movwf	??_main^(0+384)
  1436  1371                     u7987:
  1437  1371  2B72               	nop2
  1438  1372  0BE1               	decfsz	??_main^(0+384),f
  1439  1373  2B71               	goto	u7987
  1440  1374  2B75               	nop2
  1441  1375                     l4622:
  1442                           
  1443                           ;main_master.c: 312:             PORTBbits.RB6 = 1;
  1444  1375  1283               	bcf	3,5	;RP0=0, select bank0
  1445  1376  1303               	bcf	3,6	;RP1=0, select bank0
  1446  1377  1706               	bsf	6,6	;volatile
  1447                           
  1448                           ;main_master.c: 313:             _delay((unsigned long)((10)*(500000/4000.0)));
  1449  1378  30F9               	movlw	249
  1450  1379  1683               	bsf	3,5	;RP0=1, select bank3
  1451  137A  1703               	bsf	3,6	;RP1=1, select bank3
  1452  137B  00E1               	movwf	??_main^(0+384)
  1453  137C                     u7997:
  1454  137C  2B7D               	nop2
  1455  137D  0BE1               	decfsz	??_main^(0+384),f
  1456  137E  2B7C               	goto	u7997
  1457  137F  2B80               	nop2
  1458                           
  1459                           ;main_master.c: 318:         }
  1460  1380  2A62               	goto	l4552
  1461  1381                     l174:	
  1462                           ;main_master.c: 319:         else{
  1463                           
  1464                           
  1465                           ;main_master.c: 320:             PORTBbits.RB5 = 0;
  1466  1381  1283               	bcf	3,5	;RP0=0, select bank0
  1467  1382  1303               	bcf	3,6	;RP1=0, select bank0
  1468  1383  1286               	bcf	6,5	;volatile
  1469  1384                     l4624:
  1470                           
  1471                           ;main_master.c: 321:             _delay((unsigned long)((10)*(500000/4000.0)));
  1472  1384  30F9               	movlw	249
  1473  1385  1683               	bsf	3,5	;RP0=1, select bank3
  1474  1386  1703               	bsf	3,6	;RP1=1, select bank3
  1475  1387  00E1               	movwf	??_main^(0+384)
  1476  1388                     u8007:
  1477  1388  2B89               	nop2
  1478  1389  0BE1               	decfsz	??_main^(0+384),f
  1479  138A  2B88               	goto	u8007
  1480  138B  2B8C               	nop2
  1481  138C                     l4626:
  1482                           
  1483                           ;main_master.c: 322:             PORTBbits.RB6 = 0;
  1484  138C  1283               	bcf	3,5	;RP0=0, select bank0
  1485  138D  1303               	bcf	3,6	;RP1=0, select bank0
  1486  138E  1306               	bcf	6,6	;volatile
  1487                           
  1488                           ;main_master.c: 323:             _delay((unsigned long)((10)*(500000/4000.0)));
  1489  138F  30F9               	movlw	249
  1490  1390  1683               	bsf	3,5	;RP0=1, select bank3
  1491  1391  1703               	bsf	3,6	;RP1=1, select bank3
  1492  1392  00E1               	movwf	??_main^(0+384)
  1493  1393                     u8017:
  1494  1393  2B94               	nop2
  1495  1394  0BE1               	decfsz	??_main^(0+384),f
  1496  1395  2B93               	goto	u8017
  1497  1396  2B97               	nop2
  1498  1397  2A62               	goto	l4552
  1499  1398  120A  118A  2810   	ljmp	start
  1500  139B                     __end_of_main:
  1501                           
  1502                           	psect	text1
  1503  1C79                     __ptext1:	
  1504 ;; *************** function _setup *****************
  1505 ;; Defined at:
  1506 ;;		line 337 in file "main_master.c"
  1507 ;; Parameters:    Size  Location     Type
  1508 ;;		None
  1509 ;; Auto vars:     Size  Location     Type
  1510 ;;		None
  1511 ;; Return value:  Size  Location     Type
  1512 ;;                  1    wreg      void 
  1513 ;; Registers used:
  1514 ;;		wreg, status,2, status,0
  1515 ;; Tracked objects:
  1516 ;;		On entry : 0/0
  1517 ;;		On exit  : 0/0
  1518 ;;		Unchanged: 0/0
  1519 ;; Data sizes:     COMMON   BANK0   BANK1   BANK3   BANK2
  1520 ;;      Params:         0       0       0       0       0
  1521 ;;      Locals:         0       0       0       0       0
  1522 ;;      Temps:          0       0       0       0       0
  1523 ;;      Totals:         0       0       0       0       0
  1524 ;;Total ram usage:        0 bytes
  1525 ;; Hardware stack levels used: 1
  1526 ;; Hardware stack levels required when called: 5
  1527 ;; This function calls:
  1528 ;;		Nothing
  1529 ;; This function is called by:
  1530 ;;		_main
  1531 ;; This function uses a non-reentrant model
  1532 ;;
  1533                           
  1534  1C79                     _setup:	
  1535                           ;psect for function _setup
  1536                           
  1537  1C79                     l3566:	
  1538                           ;incstack = 0
  1539                           ; Regs used in _setup: [wreg+status,2+status,0]
  1540                           
  1541                           
  1542                           ;main_master.c: 339:     ANSEL = 0b11111111;
  1543  1C79  30FF               	movlw	255
  1544  1C7A  1683               	bsf	3,5	;RP0=1, select bank3
  1545  1C7B  1703               	bsf	3,6	;RP1=1, select bank3
  1546  1C7C  0088               	movwf	8	;volatile
  1547  1C7D                     l3568:
  1548                           
  1549                           ;main_master.c: 340:     ANSELH = 0;
  1550  1C7D  0189               	clrf	9	;volatile
  1551  1C7E                     l3570:
  1552                           
  1553                           ;main_master.c: 342:     TRISA = 0b11111111;
  1554  1C7E  30FF               	movlw	255
  1555  1C7F  1683               	bsf	3,5	;RP0=1, select bank1
  1556  1C80  1303               	bcf	3,6	;RP1=0, select bank1
  1557  1C81  0085               	movwf	5	;volatile
  1558                           
  1559                           ;main_master.c: 343:     PORTA = 0;
  1560  1C82  1283               	bcf	3,5	;RP0=0, select bank0
  1561  1C83  1303               	bcf	3,6	;RP1=0, select bank0
  1562  1C84  0185               	clrf	5	;volatile
  1563  1C85                     l3572:
  1564                           
  1565                           ;main_master.c: 345:     TRISE = 0b1111;
  1566  1C85  300F               	movlw	15
  1567  1C86  1683               	bsf	3,5	;RP0=1, select bank1
  1568  1C87  1303               	bcf	3,6	;RP1=0, select bank1
  1569  1C88  0089               	movwf	9	;volatile
  1570  1C89                     l3574:
  1571                           
  1572                           ;main_master.c: 346:     PORTE = 0;
  1573  1C89  1283               	bcf	3,5	;RP0=0, select bank0
  1574  1C8A  1303               	bcf	3,6	;RP1=0, select bank0
  1575  1C8B  0189               	clrf	9	;volatile
  1576  1C8C                     l3576:
  1577                           
  1578                           ;main_master.c: 348:     TRISD = 0b00000000;
  1579  1C8C  1683               	bsf	3,5	;RP0=1, select bank1
  1580  1C8D  1303               	bcf	3,6	;RP1=0, select bank1
  1581  1C8E  0188               	clrf	8	;volatile
  1582  1C8F                     l3578:
  1583                           
  1584                           ;main_master.c: 349:     PORTD = 0b00000000;
  1585  1C8F  1283               	bcf	3,5	;RP0=0, select bank0
  1586  1C90  1303               	bcf	3,6	;RP1=0, select bank0
  1587  1C91  0188               	clrf	8	;volatile
  1588                           
  1589                           ;main_master.c: 352:     TRISB = 0b00000111;
  1590  1C92  3007               	movlw	7
  1591  1C93  1683               	bsf	3,5	;RP0=1, select bank1
  1592  1C94  1303               	bcf	3,6	;RP1=0, select bank1
  1593  1C95  0086               	movwf	6	;volatile
  1594  1C96                     l3580:
  1595                           
  1596                           ;main_master.c: 353:     PORTB = 0;
  1597  1C96  1283               	bcf	3,5	;RP0=0, select bank0
  1598  1C97  1303               	bcf	3,6	;RP1=0, select bank0
  1599  1C98  0186               	clrf	6	;volatile
  1600  1C99                     l3582:
  1601                           
  1602                           ;main_master.c: 355:     OPTION_REGbits.nRBPU = 0;
  1603  1C99  1683               	bsf	3,5	;RP0=1, select bank1
  1604  1C9A  1303               	bcf	3,6	;RP1=0, select bank1
  1605  1C9B  1381               	bcf	1,7	;volatile
  1606  1C9C                     l3584:
  1607                           
  1608                           ;main_master.c: 356:     WPUBbits.WPUB0 = 1;
  1609  1C9C  1415               	bsf	21,0	;volatile
  1610  1C9D                     l3586:
  1611                           
  1612                           ;main_master.c: 357:     WPUBbits.WPUB1 = 1;
  1613  1C9D  1495               	bsf	21,1	;volatile
  1614  1C9E                     l3588:
  1615                           
  1616                           ;main_master.c: 358:     WPUBbits.WPUB2 = 1;
  1617  1C9E  1515               	bsf	21,2	;volatile
  1618  1C9F                     l3590:
  1619                           
  1620                           ;main_master.c: 360:     INTCONbits.RBIE = 1;
  1621  1C9F  158B               	bsf	11,3	;volatile
  1622  1CA0                     l3592:
  1623                           
  1624                           ;main_master.c: 361:     IOCBbits.IOCB0 = 1;
  1625  1CA0  1416               	bsf	22,0	;volatile
  1626  1CA1                     l3594:
  1627                           
  1628                           ;main_master.c: 362:     IOCBbits.IOCB1 = 1;
  1629  1CA1  1496               	bsf	22,1	;volatile
  1630  1CA2                     l3596:
  1631                           
  1632                           ;main_master.c: 363:     IOCBbits.IOCB2 = 1;
  1633  1CA2  1516               	bsf	22,2	;volatile
  1634  1CA3                     l3598:
  1635                           
  1636                           ;main_master.c: 365:     INTCONbits.RBIF = 0;
  1637  1CA3  100B               	bcf	11,0	;volatile
  1638  1CA4                     l3600:
  1639                           
  1640                           ;main_master.c: 368:     TRISC = 0b00010000;
  1641  1CA4  3010               	movlw	16
  1642  1CA5  0087               	movwf	7	;volatile
  1643                           
  1644                           ;main_master.c: 369:     PORTC = 0;
  1645  1CA6  1283               	bcf	3,5	;RP0=0, select bank0
  1646  1CA7  1303               	bcf	3,6	;RP1=0, select bank0
  1647  1CA8  0187               	clrf	7	;volatile
  1648  1CA9                     l3602:
  1649                           
  1650                           ;main_master.c: 372:     OSCCONbits.IRCF = 0b011;
  1651  1CA9  1683               	bsf	3,5	;RP0=1, select bank1
  1652  1CAA  1303               	bcf	3,6	;RP1=0, select bank1
  1653  1CAB  080F               	movf	15,w	;volatile
  1654  1CAC  398F               	andlw	-113
  1655  1CAD  3830               	iorlw	48
  1656  1CAE  008F               	movwf	15	;volatile
  1657  1CAF                     l3604:
  1658                           
  1659                           ;main_master.c: 373:     OSCCONbits.SCS = 1;
  1660  1CAF  140F               	bsf	15,0	;volatile
  1661  1CB0                     l3606:
  1662                           
  1663                           ;main_master.c: 376:     ADCON0bits.ADCS = 0b01;
  1664  1CB0  1283               	bcf	3,5	;RP0=0, select bank0
  1665  1CB1  1303               	bcf	3,6	;RP1=0, select bank0
  1666  1CB2  081F               	movf	31,w	;volatile
  1667  1CB3  393F               	andlw	-193
  1668  1CB4  3840               	iorlw	64
  1669  1CB5  009F               	movwf	31	;volatile
  1670  1CB6                     l3608:
  1671                           
  1672                           ;main_master.c: 377:     ADCON1bits.VCFG0 = 0;
  1673  1CB6  1683               	bsf	3,5	;RP0=1, select bank1
  1674  1CB7  1303               	bcf	3,6	;RP1=0, select bank1
  1675  1CB8  121F               	bcf	31,4	;volatile
  1676  1CB9                     l3610:
  1677                           
  1678                           ;main_master.c: 378:     ADCON1bits.VCFG1 = 0;
  1679  1CB9  129F               	bcf	31,5	;volatile
  1680  1CBA                     l3612:
  1681                           
  1682                           ;main_master.c: 379:     ADCON0bits.CHS = 0b0000;
  1683  1CBA  30C3               	movlw	-61
  1684  1CBB  1283               	bcf	3,5	;RP0=0, select bank0
  1685  1CBC  1303               	bcf	3,6	;RP1=0, select bank0
  1686  1CBD  059F               	andwf	31,f	;volatile
  1687  1CBE                     l3614:
  1688                           
  1689                           ;main_master.c: 380:     ADCON1bits.ADFM = 0;
  1690  1CBE  1683               	bsf	3,5	;RP0=1, select bank1
  1691  1CBF  1303               	bcf	3,6	;RP1=0, select bank1
  1692  1CC0  139F               	bcf	31,7	;volatile
  1693  1CC1                     l3616:
  1694                           
  1695                           ;main_master.c: 381:     ADCON0bits.ADON = 1;
  1696  1CC1  1283               	bcf	3,5	;RP0=0, select bank0
  1697  1CC2  1303               	bcf	3,6	;RP1=0, select bank0
  1698  1CC3  141F               	bsf	31,0	;volatile
  1699  1CC4                     l3618:
  1700                           
  1701                           ;main_master.c: 382:     _delay((unsigned long)((40)*(500000/4000000.0)));
  1702  1CC4  2CC5               	nop2	;2 cycle nop
  1703  1CC5  2CC6               	nop2	;2 cycle nop
  1704  1CC6  0000               	nop
  1705  1CC7                     l3620:
  1706                           
  1707                           ;main_master.c: 385:     TRISCbits.TRISC2 = 1;
  1708  1CC7  1683               	bsf	3,5	;RP0=1, select bank1
  1709  1CC8  1303               	bcf	3,6	;RP1=0, select bank1
  1710  1CC9  1507               	bsf	7,2	;volatile
  1711  1CCA                     l3622:
  1712                           
  1713                           ;main_master.c: 386:     TRISCbits.TRISC1 = 1;
  1714  1CCA  1487               	bsf	7,1	;volatile
  1715  1CCB                     l3624:
  1716                           
  1717                           ;main_master.c: 387:     PR2 = 156;
  1718  1CCB  309C               	movlw	156
  1719  1CCC  0092               	movwf	18	;volatile
  1720  1CCD                     l3626:
  1721                           
  1722                           ;main_master.c: 390:     CCP1CON = 0;
  1723  1CCD  1283               	bcf	3,5	;RP0=0, select bank0
  1724  1CCE  1303               	bcf	3,6	;RP1=0, select bank0
  1725  1CCF  0197               	clrf	23	;volatile
  1726  1CD0                     l3628:
  1727                           
  1728                           ;main_master.c: 391:     CCP1CONbits.P1M = 0;
  1729  1CD0  303F               	movlw	-193
  1730  1CD1  0597               	andwf	23,f	;volatile
  1731  1CD2                     l3630:
  1732                           
  1733                           ;main_master.c: 393:     CCP1CONbits.CCP1M = 0b1100;
  1734  1CD2  0817               	movf	23,w	;volatile
  1735  1CD3  39F0               	andlw	-16
  1736  1CD4  380C               	iorlw	12
  1737  1CD5  0097               	movwf	23	;volatile
  1738  1CD6                     l3632:
  1739                           
  1740                           ;main_master.c: 394:     CCP2CONbits.CCP2M = 0b1100;
  1741  1CD6  081D               	movf	29,w	;volatile
  1742  1CD7  39F0               	andlw	-16
  1743  1CD8  380C               	iorlw	12
  1744  1CD9  009D               	movwf	29	;volatile
  1745                           
  1746                           ;main_master.c: 396:     CCPR1L = 155>>2;
  1747  1CDA  3026               	movlw	38
  1748  1CDB  0095               	movwf	21	;volatile
  1749  1CDC                     l3634:
  1750                           
  1751                           ;main_master.c: 397:     CCP1CONbits.DC1B = 155 & 0b11;
  1752  1CDC  3030               	movlw	48
  1753  1CDD  0497               	iorwf	23,f	;volatile
  1754  1CDE                     l3636:
  1755                           
  1756                           ;main_master.c: 399:     CCPR2L = 155>>2;
  1757  1CDE  3026               	movlw	38
  1758  1CDF  009B               	movwf	27	;volatile
  1759  1CE0                     l3638:
  1760                           
  1761                           ;main_master.c: 400:     CCP2CONbits.DC2B0 = 155 & 0b01;
  1762  1CE0  161D               	bsf	29,4	;volatile
  1763  1CE1                     l3640:
  1764                           
  1765                           ;main_master.c: 401:     CCP2CONbits.DC2B1 = 155 & 0b10;
  1766  1CE1  129D               	bcf	29,5	;volatile
  1767  1CE2                     l3642:
  1768                           
  1769                           ;main_master.c: 404:     PIR1bits.TMR2IF = 0;
  1770  1CE2  108C               	bcf	12,1	;volatile
  1771                           
  1772                           ;main_master.c: 405:     T2CONbits.T2CKPS = 0b11;
  1773  1CE3  3003               	movlw	3
  1774  1CE4  0492               	iorwf	18,f	;volatile
  1775  1CE5                     l3644:
  1776                           
  1777                           ;main_master.c: 406:     T2CONbits.TMR2ON = 1;
  1778  1CE5  1512               	bsf	18,2	;volatile
  1779  1CE6                     l181:	
  1780                           ;main_master.c: 407:     while(!PIR1bits.TMR2IF);
  1781                           
  1782  1CE6  1C8C               	btfss	12,1	;volatile
  1783  1CE7  2CE9               	goto	u5981
  1784  1CE8  2CEA               	goto	u5980
  1785  1CE9                     u5981:
  1786  1CE9  2CE6               	goto	l181
  1787  1CEA                     u5980:
  1788  1CEA                     l183:
  1789                           
  1790                           ;main_master.c: 408:     PIR1bits.TMR2IF = 0;
  1791  1CEA  108C               	bcf	12,1	;volatile
  1792                           
  1793                           ;main_master.c: 410:     TRISCbits.TRISC2 = 0;
  1794  1CEB  1683               	bsf	3,5	;RP0=1, select bank1
  1795  1CEC  1303               	bcf	3,6	;RP1=0, select bank1
  1796  1CED  1107               	bcf	7,2	;volatile
  1797                           
  1798                           ;main_master.c: 411:     TRISCbits.TRISC1 = 0;
  1799  1CEE  1087               	bcf	7,1	;volatile
  1800  1CEF                     l3646:
  1801                           
  1802                           ;main_master.c: 416:     SSPCONbits.SSPM = 0b0000;
  1803  1CEF  30F0               	movlw	-16
  1804  1CF0  1283               	bcf	3,5	;RP0=0, select bank0
  1805  1CF1  1303               	bcf	3,6	;RP1=0, select bank0
  1806  1CF2  0594               	andwf	20,f	;volatile
  1807  1CF3                     l3648:
  1808                           
  1809                           ;main_master.c: 417:     SSPCONbits.CKP = 0;
  1810  1CF3  1214               	bcf	20,4	;volatile
  1811  1CF4                     l3650:
  1812                           
  1813                           ;main_master.c: 418:     SSPCONbits.SSPEN = 1;
  1814  1CF4  1694               	bsf	20,5	;volatile
  1815  1CF5                     l3652:
  1816                           
  1817                           ;main_master.c: 420:     SSPSTATbits.CKE = 1;
  1818  1CF5  1683               	bsf	3,5	;RP0=1, select bank1
  1819  1CF6  1303               	bcf	3,6	;RP1=0, select bank1
  1820  1CF7  1714               	bsf	20,6	;volatile
  1821  1CF8                     l3654:
  1822                           
  1823                           ;main_master.c: 421:     SSPSTATbits.SMP = 1;
  1824  1CF8  1794               	bsf	20,7	;volatile
  1825  1CF9                     l3656:
  1826                           
  1827                           ;main_master.c: 422:     SSPBUF = 0xFF;
  1828  1CF9  30FF               	movlw	255
  1829  1CFA  1283               	bcf	3,5	;RP0=0, select bank0
  1830  1CFB  1303               	bcf	3,6	;RP1=0, select bank0
  1831  1CFC  0093               	movwf	19	;volatile
  1832  1CFD                     l3658:
  1833                           
  1834                           ;main_master.c: 425:     INTCONbits.PEIE = 1;
  1835  1CFD  170B               	bsf	11,6	;volatile
  1836  1CFE                     l3660:
  1837                           
  1838                           ;main_master.c: 426:     INTCONbits.GIE = 1;
  1839  1CFE  178B               	bsf	11,7	;volatile
  1840  1CFF                     l3662:
  1841                           
  1842                           ;main_master.c: 428:     PIR1bits.ADIF = 0;
  1843  1CFF  130C               	bcf	12,6	;volatile
  1844  1D00                     l3664:
  1845                           
  1846                           ;main_master.c: 429:     PIE1bits.ADIE = 1;
  1847  1D00  1683               	bsf	3,5	;RP0=1, select bank1
  1848  1D01  1303               	bcf	3,6	;RP1=0, select bank1
  1849  1D02  170C               	bsf	12,6	;volatile
  1850  1D03                     l184:
  1851  1D03  0008               	return
  1852  1D04                     __end_of_setup:
  1853                           
  1854                           	psect	text2
  1855  1C63                     __ptext2:	
  1856 ;; *************** function _send_data *****************
  1857 ;; Defined at:
  1858 ;;		line 462 in file "main_master.c"
  1859 ;; Parameters:    Size  Location     Type
  1860 ;;  data            1    wreg     unsigned char 
  1861 ;; Auto vars:     Size  Location     Type
  1862 ;;  data            1   21[BANK1 ] unsigned char 
  1863 ;; Return value:  Size  Location     Type
  1864 ;;                  1    wreg      void 
  1865 ;; Registers used:
  1866 ;;		wreg
  1867 ;; Tracked objects:
  1868 ;;		On entry : 0/0
  1869 ;;		On exit  : 0/0
  1870 ;;		Unchanged: 0/0
  1871 ;; Data sizes:     COMMON   BANK0   BANK1   BANK3   BANK2
  1872 ;;      Params:         0       0       0       0       0
  1873 ;;      Locals:         0       0       1       0       0
  1874 ;;      Temps:          0       0       0       0       0
  1875 ;;      Totals:         0       0       1       0       0
  1876 ;;Total ram usage:        1 bytes
  1877 ;; Hardware stack levels used: 1
  1878 ;; Hardware stack levels required when called: 5
  1879 ;; This function calls:
  1880 ;;		Nothing
  1881 ;; This function is called by:
  1882 ;;		_main
  1883 ;; This function uses a non-reentrant model
  1884 ;;
  1885                           
  1886  1C63                     _send_data:	
  1887                           ;psect for function _send_data
  1888                           
  1889                           
  1890                           ;incstack = 0
  1891                           ; Regs used in _send_data: [wreg]
  1892                           ;send_data@data stored from wreg
  1893  1C63  1683               	bsf	3,5	;RP0=1, select bank1
  1894  1C64  1303               	bcf	3,6	;RP1=0, select bank1
  1895  1C65  00B5               	movwf	send_data@data^(0+128)
  1896  1C66                     l3542:
  1897                           
  1898                           ;main_master.c: 464:     PORTDbits.RD0 = 0;
  1899  1C66  1283               	bcf	3,5	;RP0=0, select bank0
  1900  1C67  1303               	bcf	3,6	;RP1=0, select bank0
  1901  1C68  1008               	bcf	8,0	;volatile
  1902  1C69                     l3544:
  1903                           
  1904                           ;main_master.c: 465:     SSPBUF = data;
  1905  1C69  1683               	bsf	3,5	;RP0=1, select bank1
  1906  1C6A  1303               	bcf	3,6	;RP1=0, select bank1
  1907  1C6B  0835               	movf	send_data@data^(0+128),w
  1908  1C6C  1283               	bcf	3,5	;RP0=0, select bank0
  1909  1C6D  1303               	bcf	3,6	;RP1=0, select bank0
  1910  1C6E  0093               	movwf	19	;volatile
  1911  1C6F                     l195:	
  1912                           ;main_master.c: 466:     while(!SSPSTATbits.BF){}
  1913                           
  1914  1C6F  1683               	bsf	3,5	;RP0=1, select bank1
  1915  1C70  1303               	bcf	3,6	;RP1=0, select bank1
  1916  1C71  1C14               	btfss	20,0	;volatile
  1917  1C72  2C74               	goto	u5971
  1918  1C73  2C75               	goto	u5970
  1919  1C74                     u5971:
  1920  1C74  2C6F               	goto	l195
  1921  1C75                     u5970:
  1922  1C75                     l197:
  1923                           
  1924                           ;main_master.c: 467:     PORTDbits.RD0 = 1;
  1925  1C75  1283               	bcf	3,5	;RP0=0, select bank0
  1926  1C76  1303               	bcf	3,6	;RP1=0, select bank0
  1927  1C77  1408               	bsf	8,0	;volatile
  1928  1C78                     l198:	
  1929                           ;main_master.c: 469:     return;
  1930                           
  1931  1C78  0008               	return
  1932  1C79                     __end_of_send_data:
  1933                           
  1934                           	psect	text3
  1935  1C44                     __ptext3:	
  1936 ;; *************** function _read_EEPROM *****************
  1937 ;; Defined at:
  1938 ;;		line 473 in file "main_master.c"
  1939 ;; Parameters:    Size  Location     Type
  1940 ;;  address         1    wreg     unsigned char 
  1941 ;; Auto vars:     Size  Location     Type
  1942 ;;  address         1   21[BANK1 ] unsigned char 
  1943 ;; Return value:  Size  Location     Type
  1944 ;;                  1    wreg      unsigned char 
  1945 ;; Registers used:
  1946 ;;		wreg
  1947 ;; Tracked objects:
  1948 ;;		On entry : 0/0
  1949 ;;		On exit  : 0/0
  1950 ;;		Unchanged: 0/0
  1951 ;; Data sizes:     COMMON   BANK0   BANK1   BANK3   BANK2
  1952 ;;      Params:         0       0       0       0       0
  1953 ;;      Locals:         0       0       1       0       0
  1954 ;;      Temps:          0       0       0       0       0
  1955 ;;      Totals:         0       0       1       0       0
  1956 ;;Total ram usage:        1 bytes
  1957 ;; Hardware stack levels used: 1
  1958 ;; Hardware stack levels required when called: 5
  1959 ;; This function calls:
  1960 ;;		Nothing
  1961 ;; This function is called by:
  1962 ;;		_main
  1963 ;; This function uses a non-reentrant model
  1964 ;;
  1965                           
  1966  1C44                     _read_EEPROM:	
  1967                           ;psect for function _read_EEPROM
  1968                           
  1969                           
  1970                           ;incstack = 0
  1971                           ; Regs used in _read_EEPROM: [wreg]
  1972                           ;read_EEPROM@address stored from wreg
  1973  1C44  1683               	bsf	3,5	;RP0=1, select bank1
  1974  1C45  1303               	bcf	3,6	;RP1=0, select bank1
  1975  1C46  00B5               	movwf	read_EEPROM@address^(0+128)
  1976  1C47                     l3514:
  1977                           
  1978                           ;main_master.c: 474:     EEADR = address;
  1979  1C47  0835               	movf	read_EEPROM@address^(0+128),w
  1980  1C48  1283               	bcf	3,5	;RP0=0, select bank2
  1981  1C49  1703               	bsf	3,6	;RP1=1, select bank2
  1982  1C4A  008D               	movwf	13	;volatile
  1983  1C4B                     l3516:
  1984                           
  1985                           ;main_master.c: 475:     EECON1bits.EEPGD = 0;
  1986  1C4B  1683               	bsf	3,5	;RP0=1, select bank3
  1987  1C4C  1703               	bsf	3,6	;RP1=1, select bank3
  1988  1C4D  138C               	bcf	12,7	;volsfr
  1989  1C4E                     l3518:
  1990                           
  1991                           ;main_master.c: 476:     EECON1bits.RD = 1;
  1992  1C4E  140C               	bsf	12,0	;volsfr
  1993                           
  1994                           ;main_master.c: 477:     return EEDAT;
  1995  1C4F  1283               	bcf	3,5	;RP0=0, select bank2
  1996  1C50  1703               	bsf	3,6	;RP1=1, select bank2
  1997  1C51  080C               	movf	12,w	;volatile
  1998  1C52                     l201:
  1999  1C52  0008               	return
  2000  1C53                     __end_of_read_EEPROM:
  2001                           
  2002                           	psect	text4
  2003  1D04                     __ptext4:	
  2004 ;; *************** function _move_servo *****************
  2005 ;; Defined at:
  2006 ;;		line 444 in file "main_master.c"
  2007 ;; Parameters:    Size  Location     Type
  2008 ;;  servo           1    wreg     unsigned char 
  2009 ;;  interpole_va    1   75[BANK3 ] unsigned char 
  2010 ;; Auto vars:     Size  Location     Type
  2011 ;;  servo           1   78[BANK3 ] unsigned char 
  2012 ;;  CCPR            2   79[BANK3 ] unsigned short 
  2013 ;; Return value:  Size  Location     Type
  2014 ;;                  1    wreg      void 
  2015 ;; Registers used:
  2016 ;;		wreg, status,2, status,0, btemp+1, pclath, cstack
  2017 ;; Tracked objects:
  2018 ;;		On entry : 0/0
  2019 ;;		On exit  : 0/0
  2020 ;;		Unchanged: 0/0
  2021 ;; Data sizes:     COMMON   BANK0   BANK1   BANK3   BANK2
  2022 ;;      Params:         0       0       0       1       0
  2023 ;;      Locals:         0       0       0       3       0
  2024 ;;      Temps:          0       0       0       2       0
  2025 ;;      Totals:         0       0       0       6       0
  2026 ;;Total ram usage:        6 bytes
  2027 ;; Hardware stack levels used: 1
  2028 ;; Hardware stack levels required when called: 8
  2029 ;; This function calls:
  2030 ;;		_interpole
  2031 ;; This function is called by:
  2032 ;;		_main
  2033 ;; This function uses a non-reentrant model
  2034 ;;
  2035                           
  2036  1D04                     _move_servo:	
  2037                           ;psect for function _move_servo
  2038                           
  2039                           
  2040                           ;incstack = 0
  2041 ;; hardware stack exceeded
  2042                           ; Regs used in _move_servo: [wreg+status,2+status,0+btemp+1+pclath+cstack]
  2043                           ;move_servo@servo stored from wreg
  2044  1D04  1683               	bsf	3,5	;RP0=1, select bank3
  2045  1D05  1703               	bsf	3,6	;RP1=1, select bank3
  2046  1D06  00DE               	movwf	move_servo@servo^(0+384)
  2047  1D07                     l4510:
  2048  1D07                     l4512:
  2049                           
  2050                           ;main_master.c: 447:     if (servo == 1){
  2051  1D07  035E               	decf	move_servo@servo^(0+384),w
  2052  1D08  1D03               	btfss	3,2
  2053  1D09  2D0B               	goto	u7741
  2054  1D0A  2D0C               	goto	u7740
  2055  1D0B                     u7741:
  2056  1D0B  2D45               	goto	l4520
  2057  1D0C                     u7740:
  2058  1D0C                     l4514:
  2059                           
  2060                           ;main_master.c: 448:         CCPR = interpole(interpole_val, 0, 255, 20, 80);
  2061  1D0C  01D4               	clrf	interpole@in_min^(0+384)
  2062  1D0D  30FF               	movlw	255
  2063  1D0E  00DC               	movwf	??_move_servo^(0+384)
  2064  1D0F  085C               	movf	??_move_servo^(0+384),w
  2065  1D10  00D5               	movwf	interpole@in_max^(0+384)
  2066  1D11  3014               	movlw	20
  2067  1D12  00D6               	movwf	interpole@out_min^(0+384)
  2068  1D13  3000               	movlw	0
  2069  1D14  00D7               	movwf	(interpole@out_min^(0+384)+1)
  2070  1D15  3050               	movlw	80
  2071  1D16  00D8               	movwf	interpole@out_max^(0+384)
  2072  1D17  3000               	movlw	0
  2073  1D18  00D9               	movwf	(interpole@out_max^(0+384)+1)
  2074  1D19  085B               	movf	move_servo@interpole_val^(0+384),w
  2075  1D1A  160A  118A  210D  160A  158A  	fcall	_interpole
  2076  1D1F  1683               	bsf	3,5	;RP0=1, select bank3
  2077  1D20  1703               	bsf	3,6	;RP1=1, select bank3
  2078  1D21  0855               	movf	(?_interpole+1)^(0+384),w
  2079  1D22  00E0               	movwf	(move_servo@CCPR+1)^(0+384)
  2080  1D23  0854               	movf	?_interpole^(0+384),w
  2081  1D24  00DF               	movwf	move_servo@CCPR^(0+384)
  2082  1D25                     l4516:
  2083                           
  2084                           ;main_master.c: 449:         CCPR1L = (uint8_t)(CCPR>>2);
  2085  1D25  0860               	movf	(move_servo@CCPR+1)^(0+384),w
  2086  1D26  00DD               	movwf	(??_move_servo^(0+384)+1)
  2087  1D27  085F               	movf	move_servo@CCPR^(0+384),w
  2088  1D28  00DC               	movwf	??_move_servo^(0+384)
  2089  1D29  1003               	clrc
  2090  1D2A  0CDD               	rrf	(??_move_servo^(0+384)+1),f
  2091  1D2B  0CDC               	rrf	??_move_servo^(0+384),f
  2092  1D2C  1003               	clrc
  2093  1D2D  0CDD               	rrf	(??_move_servo^(0+384)+1),f
  2094  1D2E  0CDC               	rrf	??_move_servo^(0+384),f
  2095  1D2F  085C               	movf	??_move_servo^(0+384),w
  2096  1D30  1283               	bcf	3,5	;RP0=0, select bank0
  2097  1D31  1303               	bcf	3,6	;RP1=0, select bank0
  2098  1D32  0095               	movwf	21	;volatile
  2099  1D33                     l4518:
  2100                           
  2101                           ;main_master.c: 450:         CCP1CONbits.DC1B = CCPR & 0b11;
  2102  1D33  1683               	bsf	3,5	;RP0=1, select bank3
  2103  1D34  1703               	bsf	3,6	;RP1=1, select bank3
  2104  1D35  085F               	movf	move_servo@CCPR^(0+384),w
  2105  1D36  3903               	andlw	3
  2106  1D37  00DC               	movwf	??_move_servo^(0+384)
  2107  1D38  0EDC               	swapf	??_move_servo^(0+384),f
  2108  1D39  1283               	bcf	3,5	;RP0=0, select bank0
  2109  1D3A  1303               	bcf	3,6	;RP1=0, select bank0
  2110  1D3B  0817               	movf	23,w	;volatile
  2111  1D3C  1683               	bsf	3,5	;RP0=1, select bank3
  2112  1D3D  1703               	bsf	3,6	;RP1=1, select bank3
  2113  1D3E  065C               	xorwf	??_move_servo^(0+384),w
  2114  1D3F  39CF               	andlw	-49
  2115  1D40  065C               	xorwf	??_move_servo^(0+384),w
  2116  1D41  1283               	bcf	3,5	;RP0=0, select bank0
  2117  1D42  1303               	bcf	3,6	;RP1=0, select bank0
  2118  1D43  0097               	movwf	23	;volatile
  2119                           
  2120                           ;main_master.c: 451:     }
  2121  1D44  2D8F               	goto	l192
  2122  1D45                     l4520:
  2123                           
  2124                           ;main_master.c: 453:         CCPR = interpole(interpole_val, 0, 255, 20, 80);
  2125  1D45  01D4               	clrf	interpole@in_min^(0+384)
  2126  1D46  30FF               	movlw	255
  2127  1D47  00DC               	movwf	??_move_servo^(0+384)
  2128  1D48  085C               	movf	??_move_servo^(0+384),w
  2129  1D49  00D5               	movwf	interpole@in_max^(0+384)
  2130  1D4A  3014               	movlw	20
  2131  1D4B  00D6               	movwf	interpole@out_min^(0+384)
  2132  1D4C  3000               	movlw	0
  2133  1D4D  00D7               	movwf	(interpole@out_min^(0+384)+1)
  2134  1D4E  3050               	movlw	80
  2135  1D4F  00D8               	movwf	interpole@out_max^(0+384)
  2136  1D50  3000               	movlw	0
  2137  1D51  00D9               	movwf	(interpole@out_max^(0+384)+1)
  2138  1D52  085B               	movf	move_servo@interpole_val^(0+384),w
  2139  1D53  160A  118A  210D  160A  158A  	fcall	_interpole
  2140  1D58  1683               	bsf	3,5	;RP0=1, select bank3
  2141  1D59  1703               	bsf	3,6	;RP1=1, select bank3
  2142  1D5A  0855               	movf	(?_interpole+1)^(0+384),w
  2143  1D5B  00E0               	movwf	(move_servo@CCPR+1)^(0+384)
  2144  1D5C  0854               	movf	?_interpole^(0+384),w
  2145  1D5D  00DF               	movwf	move_servo@CCPR^(0+384)
  2146  1D5E                     l4522:
  2147                           
  2148                           ;main_master.c: 454:         CCPR2L = (uint8_t) (CCPR>>2);
  2149  1D5E  0860               	movf	(move_servo@CCPR+1)^(0+384),w
  2150  1D5F  00DD               	movwf	(??_move_servo^(0+384)+1)
  2151  1D60  085F               	movf	move_servo@CCPR^(0+384),w
  2152  1D61  00DC               	movwf	??_move_servo^(0+384)
  2153  1D62  1003               	clrc
  2154  1D63  0CDD               	rrf	(??_move_servo^(0+384)+1),f
  2155  1D64  0CDC               	rrf	??_move_servo^(0+384),f
  2156  1D65  1003               	clrc
  2157  1D66  0CDD               	rrf	(??_move_servo^(0+384)+1),f
  2158  1D67  0CDC               	rrf	??_move_servo^(0+384),f
  2159  1D68  085C               	movf	??_move_servo^(0+384),w
  2160  1D69  1283               	bcf	3,5	;RP0=0, select bank0
  2161  1D6A  1303               	bcf	3,6	;RP1=0, select bank0
  2162  1D6B  009B               	movwf	27	;volatile
  2163  1D6C                     l4524:
  2164                           
  2165                           ;main_master.c: 455:         CCP2CONbits.DC2B0 = CCPR & 0b10;
  2166  1D6C  1683               	bsf	3,5	;RP0=1, select bank3
  2167  1D6D  1703               	bsf	3,6	;RP1=1, select bank3
  2168  1D6E  085F               	movf	move_servo@CCPR^(0+384),w
  2169  1D6F  3902               	andlw	2
  2170  1D70  00DC               	movwf	??_move_servo^(0+384)
  2171  1D71  0EDC               	swapf	??_move_servo^(0+384),f
  2172  1D72  1283               	bcf	3,5	;RP0=0, select bank0
  2173  1D73  1303               	bcf	3,6	;RP1=0, select bank0
  2174  1D74  081D               	movf	29,w	;volatile
  2175  1D75  1683               	bsf	3,5	;RP0=1, select bank3
  2176  1D76  1703               	bsf	3,6	;RP1=1, select bank3
  2177  1D77  065C               	xorwf	??_move_servo^(0+384),w
  2178  1D78  39EF               	andlw	-17
  2179  1D79  065C               	xorwf	??_move_servo^(0+384),w
  2180  1D7A  1283               	bcf	3,5	;RP0=0, select bank0
  2181  1D7B  1303               	bcf	3,6	;RP1=0, select bank0
  2182  1D7C  009D               	movwf	29	;volatile
  2183  1D7D                     l4526:
  2184                           
  2185                           ;main_master.c: 456:         CCP2CONbits.DC2B1 = CCPR & 0b01;
  2186  1D7D  1683               	bsf	3,5	;RP0=1, select bank3
  2187  1D7E  1703               	bsf	3,6	;RP1=1, select bank3
  2188  1D7F  085F               	movf	move_servo@CCPR^(0+384),w
  2189  1D80  3901               	andlw	1
  2190  1D81  00DC               	movwf	??_move_servo^(0+384)
  2191  1D82  0EDC               	swapf	??_move_servo^(0+384),f
  2192  1D83  0DDC               	rlf	??_move_servo^(0+384),f
  2193  1D84  1283               	bcf	3,5	;RP0=0, select bank0
  2194  1D85  1303               	bcf	3,6	;RP1=0, select bank0
  2195  1D86  081D               	movf	29,w	;volatile
  2196  1D87  1683               	bsf	3,5	;RP0=1, select bank3
  2197  1D88  1703               	bsf	3,6	;RP1=1, select bank3
  2198  1D89  065C               	xorwf	??_move_servo^(0+384),w
  2199  1D8A  39DF               	andlw	-33
  2200  1D8B  065C               	xorwf	??_move_servo^(0+384),w
  2201  1D8C  1283               	bcf	3,5	;RP0=0, select bank0
  2202  1D8D  1303               	bcf	3,6	;RP1=0, select bank0
  2203  1D8E  009D               	movwf	29	;volatile
  2204  1D8F                     l192:
  2205  1D8F  0008               	return
  2206  1D90                     __end_of_move_servo:
  2207                           
  2208                           	psect	text5
  2209  110D                     __ptext5:	
  2210 ;; *************** function _interpole *****************
  2211 ;; Defined at:
  2212 ;;		line 437 in file "main_master.c"
  2213 ;; Parameters:    Size  Location     Type
  2214 ;;  value           1    wreg     unsigned char 
  2215 ;;  in_min          1   68[BANK3 ] unsigned char 
  2216 ;;  in_max          1   69[BANK3 ] unsigned char 
  2217 ;;  out_min         2   70[BANK3 ] unsigned short 
  2218 ;;  out_max         2   72[BANK3 ] unsigned short 
  2219 ;; Auto vars:     Size  Location     Type
  2220 ;;  value           1   74[BANK3 ] unsigned char 
  2221 ;; Return value:  Size  Location     Type
  2222 ;;                  2   68[BANK3 ] unsigned short 
  2223 ;; Registers used:
  2224 ;;		wreg, status,2, status,0, btemp+1, pclath, cstack
  2225 ;; Tracked objects:
  2226 ;;		On entry : 0/0
  2227 ;;		On exit  : 0/0
  2228 ;;		Unchanged: 0/0
  2229 ;; Data sizes:     COMMON   BANK0   BANK1   BANK3   BANK2
  2230 ;;      Params:         0       0       0       6       0
  2231 ;;      Locals:         0       0       0       1       0
  2232 ;;      Temps:          0       0       0       0       0
  2233 ;;      Totals:         0       0       0       7       0
  2234 ;;Total ram usage:        7 bytes
  2235 ;; Hardware stack levels used: 1
  2236 ;; Hardware stack levels required when called: 7
  2237 ;; This function calls:
  2238 ;;		___fladd
  2239 ;;		___fldiv
  2240 ;;		___flmul
  2241 ;;		___fltol
  2242 ;;		___xxtofl
  2243 ;; This function is called by:
  2244 ;;		_move_servo
  2245 ;; This function uses a non-reentrant model
  2246 ;;
  2247                           
  2248  110D                     _interpole:	
  2249                           ;psect for function _interpole
  2250                           
  2251                           
  2252                           ;incstack = 0
  2253 ;; hardware stack exceeded
  2254                           ; Regs used in _interpole: [wreg+status,2+status,0+btemp+1+pclath+cstack]
  2255                           ;interpole@value stored from wreg
  2256  110D  1683               	bsf	3,5	;RP0=1, select bank3
  2257  110E  1703               	bsf	3,6	;RP1=1, select bank3
  2258  110F  00DA               	movwf	interpole@value^(0+384)
  2259  1110                     l4506:
  2260                           
  2261                           ;main_master.c: 437: unsigned short interpole(uint8_t value, uint8_t in_min, uint8_t in_
      +                          max,;main_master.c: 438:                          unsigned short out_min, unsigned short
      +                           out_max){;main_master.c: 440:     return (unsigned short)(out_min+((float)(out_max-out_
      +                          min)/(in_max-in_min))*(value-in_min));
  2262  1110  0856               	movf	interpole@out_min^(0+384),w
  2263  1111  1683               	bsf	3,5	;RP0=1, select bank1
  2264  1112  1303               	bcf	3,6	;RP1=0, select bank1
  2265  1113  00B5               	movwf	___xxtofl@val^(0+128)
  2266  1114  1683               	bsf	3,5	;RP0=1, select bank3
  2267  1115  1703               	bsf	3,6	;RP1=1, select bank3
  2268  1116  0857               	movf	(interpole@out_min+1)^(0+384),w
  2269  1117  1683               	bsf	3,5	;RP0=1, select bank1
  2270  1118  1303               	bcf	3,6	;RP1=0, select bank1
  2271  1119  00B6               	movwf	(___xxtofl@val^(0+128)+1)
  2272  111A  01B7               	clrf	(___xxtofl@val^(0+128)+2)
  2273  111B  01B8               	clrf	(___xxtofl@val^(0+128)+3)
  2274  111C  3000               	movlw	0
  2275  111D  120A  118A  2742  160A  118A  	fcall	___xxtofl
  2276  1122  1683               	bsf	3,5	;RP0=1, select bank1
  2277  1123  1303               	bcf	3,6	;RP1=0, select bank1
  2278  1124  0838               	movf	(?___xxtofl+3)^(0+128),w
  2279  1125  1683               	bsf	3,5	;RP0=1, select bank3
  2280  1126  1703               	bsf	3,6	;RP1=1, select bank3
  2281  1127  00BE               	movwf	(___fladd@a+3)^(0+384)
  2282  1128  1683               	bsf	3,5	;RP0=1, select bank1
  2283  1129  1303               	bcf	3,6	;RP1=0, select bank1
  2284  112A  0837               	movf	(?___xxtofl+2)^(0+128),w
  2285  112B  1683               	bsf	3,5	;RP0=1, select bank3
  2286  112C  1703               	bsf	3,6	;RP1=1, select bank3
  2287  112D  00BD               	movwf	(___fladd@a+2)^(0+384)
  2288  112E  1683               	bsf	3,5	;RP0=1, select bank1
  2289  112F  1303               	bcf	3,6	;RP1=0, select bank1
  2290  1130  0836               	movf	(?___xxtofl+1)^(0+128),w
  2291  1131  1683               	bsf	3,5	;RP0=1, select bank3
  2292  1132  1703               	bsf	3,6	;RP1=1, select bank3
  2293  1133  00BC               	movwf	(___fladd@a+1)^(0+384)
  2294  1134  1683               	bsf	3,5	;RP0=1, select bank1
  2295  1135  1303               	bcf	3,6	;RP1=0, select bank1
  2296  1136  0835               	movf	?___xxtofl^(0+128),w
  2297  1137  1683               	bsf	3,5	;RP0=1, select bank3
  2298  1138  1703               	bsf	3,6	;RP1=1, select bank3
  2299  1139  00BB               	movwf	___fladd@a^(0+384)
  2300  113A  0856               	movf	interpole@out_min^(0+384),w
  2301  113B  0258               	subwf	interpole@out_max^(0+384),w
  2302  113C  1683               	bsf	3,5	;RP0=1, select bank1
  2303  113D  1303               	bcf	3,6	;RP1=0, select bank1
  2304  113E  00B5               	movwf	___xxtofl@val^(0+128)
  2305  113F  1683               	bsf	3,5	;RP0=1, select bank3
  2306  1140  1703               	bsf	3,6	;RP1=1, select bank3
  2307  1141  0857               	movf	(interpole@out_min+1)^(0+384),w
  2308  1142  1C03               	skipc
  2309  1143  0A57               	incf	(interpole@out_min+1)^(0+384),w
  2310  1144  0259               	subwf	(interpole@out_max+1)^(0+384),w
  2311  1145  1683               	bsf	3,5	;RP0=1, select bank1
  2312  1146  1303               	bcf	3,6	;RP1=0, select bank1
  2313  1147  00B6               	movwf	(___xxtofl@val+1)^(0+128)
  2314  1148  01B7               	clrf	(___xxtofl@val+2)^(0+128)
  2315  1149  01B8               	clrf	(___xxtofl@val+3)^(0+128)
  2316  114A  3000               	movlw	0
  2317  114B  120A  118A  2742  160A  118A  	fcall	___xxtofl
  2318  1150  1683               	bsf	3,5	;RP0=1, select bank1
  2319  1151  1303               	bcf	3,6	;RP1=0, select bank1
  2320  1152  0838               	movf	(?___xxtofl+3)^(0+128),w
  2321  1153  00CA               	movwf	(___fldiv@b+3)^(0+128)
  2322  1154  0837               	movf	(?___xxtofl+2)^(0+128),w
  2323  1155  00C9               	movwf	(___fldiv@b+2)^(0+128)
  2324  1156  0836               	movf	(?___xxtofl+1)^(0+128),w
  2325  1157  00C8               	movwf	(___fldiv@b+1)^(0+128)
  2326  1158  0835               	movf	?___xxtofl^(0+128),w
  2327  1159  00C7               	movwf	___fldiv@b^(0+128)
  2328  115A  1683               	bsf	3,5	;RP0=1, select bank3
  2329  115B  1703               	bsf	3,6	;RP1=1, select bank3
  2330  115C  0854               	movf	interpole@in_min^(0+384),w
  2331  115D  0255               	subwf	interpole@in_max^(0+384),w
  2332  115E  1683               	bsf	3,5	;RP0=1, select bank1
  2333  115F  1303               	bcf	3,6	;RP1=0, select bank1
  2334  1160  00B5               	movwf	___xxtofl@val^(0+128)
  2335  1161  01B6               	clrf	(___xxtofl@val^(0+128)+1)
  2336  1162  1C03               	skipc
  2337  1163  03B6               	decf	(___xxtofl@val+1)^(0+128),f
  2338  1164  01B7               	clrf	(___xxtofl@val^(0+128)+2)
  2339  1165  1BB6               	btfsc	(___xxtofl@val^(0+128)+1),7
  2340  1166  03B7               	decf	(___xxtofl@val+2)^(0+128),f
  2341  1167  0837               	movf	(___xxtofl@val^(0+128)+2),w
  2342  1168  00B8               	movwf	(___xxtofl@val+3)^(0+128)
  2343  1169  3001               	movlw	1
  2344  116A  120A  118A  2742  160A  118A  	fcall	___xxtofl
  2345  116F  1683               	bsf	3,5	;RP0=1, select bank1
  2346  1170  1303               	bcf	3,6	;RP1=0, select bank1
  2347  1171  0838               	movf	(?___xxtofl+3)^(0+128),w
  2348  1172  00C6               	movwf	(___fldiv@a+3)^(0+128)
  2349  1173  0837               	movf	(?___xxtofl+2)^(0+128),w
  2350  1174  00C5               	movwf	(___fldiv@a+2)^(0+128)
  2351  1175  0836               	movf	(?___xxtofl+1)^(0+128),w
  2352  1176  00C4               	movwf	(___fldiv@a+1)^(0+128)
  2353  1177  0835               	movf	?___xxtofl^(0+128),w
  2354  1178  00C3               	movwf	___fldiv@a^(0+128)
  2355  1179  120A  158A  22A8  160A  118A  	fcall	___fldiv
  2356  117E  1683               	bsf	3,5	;RP0=1, select bank1
  2357  117F  1303               	bcf	3,6	;RP1=0, select bank1
  2358  1180  0846               	movf	(?___fldiv+3)^(0+128),w
  2359  1181  1683               	bsf	3,5	;RP0=1, select bank3
  2360  1182  1703               	bsf	3,6	;RP1=1, select bank3
  2361  1183  00A4               	movwf	(___flmul@a+3)^(0+384)
  2362  1184  1683               	bsf	3,5	;RP0=1, select bank1
  2363  1185  1303               	bcf	3,6	;RP1=0, select bank1
  2364  1186  0845               	movf	(?___fldiv+2)^(0+128),w
  2365  1187  1683               	bsf	3,5	;RP0=1, select bank3
  2366  1188  1703               	bsf	3,6	;RP1=1, select bank3
  2367  1189  00A3               	movwf	(___flmul@a+2)^(0+384)
  2368  118A  1683               	bsf	3,5	;RP0=1, select bank1
  2369  118B  1303               	bcf	3,6	;RP1=0, select bank1
  2370  118C  0844               	movf	(?___fldiv+1)^(0+128),w
  2371  118D  1683               	bsf	3,5	;RP0=1, select bank3
  2372  118E  1703               	bsf	3,6	;RP1=1, select bank3
  2373  118F  00A2               	movwf	(___flmul@a+1)^(0+384)
  2374  1190  1683               	bsf	3,5	;RP0=1, select bank1
  2375  1191  1303               	bcf	3,6	;RP1=0, select bank1
  2376  1192  0843               	movf	?___fldiv^(0+128),w
  2377  1193  1683               	bsf	3,5	;RP0=1, select bank3
  2378  1194  1703               	bsf	3,6	;RP1=1, select bank3
  2379  1195  00A1               	movwf	___flmul@a^(0+384)
  2380  1196  0854               	movf	interpole@in_min^(0+384),w
  2381  1197  025A               	subwf	interpole@value^(0+384),w
  2382  1198  1683               	bsf	3,5	;RP0=1, select bank1
  2383  1199  1303               	bcf	3,6	;RP1=0, select bank1
  2384  119A  00B5               	movwf	___xxtofl@val^(0+128)
  2385  119B  01B6               	clrf	(___xxtofl@val^(0+128)+1)
  2386  119C  1C03               	skipc
  2387  119D  03B6               	decf	(___xxtofl@val+1)^(0+128),f
  2388  119E  01B7               	clrf	(___xxtofl@val^(0+128)+2)
  2389  119F  1BB6               	btfsc	(___xxtofl@val^(0+128)+1),7
  2390  11A0  03B7               	decf	(___xxtofl@val+2)^(0+128),f
  2391  11A1  0837               	movf	(___xxtofl@val^(0+128)+2),w
  2392  11A2  00B8               	movwf	(___xxtofl@val+3)^(0+128)
  2393  11A3  3001               	movlw	1
  2394  11A4  120A  118A  2742  160A  118A  	fcall	___xxtofl
  2395  11A9  1683               	bsf	3,5	;RP0=1, select bank1
  2396  11AA  1303               	bcf	3,6	;RP1=0, select bank1
  2397  11AB  0838               	movf	(?___xxtofl+3)^(0+128),w
  2398  11AC  1683               	bsf	3,5	;RP0=1, select bank3
  2399  11AD  1703               	bsf	3,6	;RP1=1, select bank3
  2400  11AE  00A0               	movwf	(___flmul@b+3)^(0+384)
  2401  11AF  1683               	bsf	3,5	;RP0=1, select bank1
  2402  11B0  1303               	bcf	3,6	;RP1=0, select bank1
  2403  11B1  0837               	movf	(?___xxtofl+2)^(0+128),w
  2404  11B2  1683               	bsf	3,5	;RP0=1, select bank3
  2405  11B3  1703               	bsf	3,6	;RP1=1, select bank3
  2406  11B4  009F               	movwf	(___flmul@b+2)^(0+384)
  2407  11B5  1683               	bsf	3,5	;RP0=1, select bank1
  2408  11B6  1303               	bcf	3,6	;RP1=0, select bank1
  2409  11B7  0836               	movf	(?___xxtofl+1)^(0+128),w
  2410  11B8  1683               	bsf	3,5	;RP0=1, select bank3
  2411  11B9  1703               	bsf	3,6	;RP1=1, select bank3
  2412  11BA  009E               	movwf	(___flmul@b+1)^(0+384)
  2413  11BB  1683               	bsf	3,5	;RP0=1, select bank1
  2414  11BC  1303               	bcf	3,6	;RP1=0, select bank1
  2415  11BD  0835               	movf	?___xxtofl^(0+128),w
  2416  11BE  1683               	bsf	3,5	;RP0=1, select bank3
  2417  11BF  1703               	bsf	3,6	;RP1=1, select bank3
  2418  11C0  009D               	movwf	___flmul@b^(0+384)
  2419  11C1  120A  118A  2026  160A  118A  	fcall	___flmul
  2420  11C6  1683               	bsf	3,5	;RP0=1, select bank3
  2421  11C7  1703               	bsf	3,6	;RP1=1, select bank3
  2422  11C8  0820               	movf	(?___flmul+3)^(0+384),w
  2423  11C9  00BA               	movwf	(___fladd@b+3)^(0+384)
  2424  11CA  081F               	movf	(?___flmul+2)^(0+384),w
  2425  11CB  00B9               	movwf	(___fladd@b+2)^(0+384)
  2426  11CC  081E               	movf	(?___flmul+1)^(0+384),w
  2427  11CD  00B8               	movwf	(___fladd@b+1)^(0+384)
  2428  11CE  081D               	movf	?___flmul^(0+384),w
  2429  11CF  00B7               	movwf	___fladd@b^(0+384)
  2430  11D0  120A  158A  2020  160A  118A  	fcall	___fladd
  2431  11D5  1683               	bsf	3,5	;RP0=1, select bank3
  2432  11D6  1703               	bsf	3,6	;RP1=1, select bank3
  2433  11D7  083A               	movf	(?___fladd+3)^(0+384),w
  2434  11D8  00CE               	movwf	(___fltol@f1+3)^(0+384)
  2435  11D9  0839               	movf	(?___fladd+2)^(0+384),w
  2436  11DA  00CD               	movwf	(___fltol@f1+2)^(0+384)
  2437  11DB  0838               	movf	(?___fladd+1)^(0+384),w
  2438  11DC  00CC               	movwf	(___fltol@f1+1)^(0+384)
  2439  11DD  0837               	movf	?___fladd^(0+384),w
  2440  11DE  00CB               	movwf	___fltol@f1^(0+384)
  2441  11DF  160A  158A  2620  160A  118A  	fcall	___fltol
  2442  11E4  1683               	bsf	3,5	;RP0=1, select bank3
  2443  11E5  1703               	bsf	3,6	;RP1=1, select bank3
  2444  11E6  084C               	movf	(?___fltol+1)^(0+384),w
  2445  11E7  00D5               	movwf	(?_interpole+1)^(0+384)
  2446  11E8  084B               	movf	?___fltol^(0+384),w
  2447  11E9  00D4               	movwf	?_interpole^(0+384)
  2448  11EA                     l187:
  2449  11EA  0008               	return
  2450  11EB                     __end_of_interpole:
  2451                           
  2452                           	psect	text6
  2453  0742                     __ptext6:	
  2454 ;; *************** function ___xxtofl *****************
  2455 ;; Defined at:
  2456 ;;		line 10 in file "C:\Program Files\Microchip\xc8\v2.35\pic\sources\c90\common\xxtofl.c"
  2457 ;; Parameters:    Size  Location     Type
  2458 ;;  sign            1    wreg     unsigned char 
  2459 ;;  val             4   21[BANK1 ] long 
  2460 ;; Auto vars:     Size  Location     Type
  2461 ;;  sign            1   29[BANK1 ] unsigned char 
  2462 ;;  arg             4   31[BANK1 ] unsigned long 
  2463 ;;  exp             1   30[BANK1 ] unsigned char 
  2464 ;; Return value:  Size  Location     Type
  2465 ;;                  4   21[BANK1 ] unsigned char 
  2466 ;; Registers used:
  2467 ;;		wreg, status,2, status,0
  2468 ;; Tracked objects:
  2469 ;;		On entry : 0/0
  2470 ;;		On exit  : 0/0
  2471 ;;		Unchanged: 0/0
  2472 ;; Data sizes:     COMMON   BANK0   BANK1   BANK3   BANK2
  2473 ;;      Params:         0       0       4       0       0
  2474 ;;      Locals:         0       0       6       0       0
  2475 ;;      Temps:          0       0       4       0       0
  2476 ;;      Totals:         0       0      14       0       0
  2477 ;;Total ram usage:       14 bytes
  2478 ;; Hardware stack levels used: 1
  2479 ;; Hardware stack levels required when called: 5
  2480 ;; This function calls:
  2481 ;;		Nothing
  2482 ;; This function is called by:
  2483 ;;		_interpole
  2484 ;; This function uses a non-reentrant model
  2485 ;;
  2486                           
  2487  0742                     ___xxtofl:	
  2488                           ;psect for function ___xxtofl
  2489                           
  2490                           
  2491                           ;incstack = 0
  2492                           ; Regs used in ___xxtofl: [wreg+status,2+status,0]
  2493                           ;___xxtofl@sign stored from wreg
  2494  0742  1683               	bsf	3,5	;RP0=1, select bank1
  2495  0743  1303               	bcf	3,6	;RP1=0, select bank1
  2496  0744  00BD               	movwf	___xxtofl@sign^(0+128)
  2497  0745                     l4462:
  2498  0745  083D               	movf	___xxtofl@sign^(0+128),w
  2499  0746  1903               	btfsc	3,2
  2500  0747  2F49               	goto	u7601
  2501  0748  2F4A               	goto	u7600
  2502  0749                     u7601:
  2503  0749  2F5E               	goto	l4468
  2504  074A                     u7600:
  2505  074A                     l4464:
  2506  074A  1FB8               	btfss	(___xxtofl@val+3)^(0+128),7
  2507  074B  2F4D               	goto	u7611
  2508  074C  2F4E               	goto	u7610
  2509  074D                     u7611:
  2510  074D  2F5E               	goto	l4468
  2511  074E                     u7610:
  2512  074E                     l4466:
  2513  074E  0935               	comf	___xxtofl@val^(0+128),w
  2514  074F  00BF               	movwf	___xxtofl@arg^(0+128)
  2515  0750  0936               	comf	(___xxtofl@val^(0+128)+1),w
  2516  0751  00C0               	movwf	(___xxtofl@arg+1)^(0+128)
  2517  0752  0937               	comf	(___xxtofl@val^(0+128)+2),w
  2518  0753  00C1               	movwf	(___xxtofl@arg+2)^(0+128)
  2519  0754  0938               	comf	(___xxtofl@val^(0+128)+3),w
  2520  0755  00C2               	movwf	(___xxtofl@arg+3)^(0+128)
  2521  0756  0ABF               	incf	___xxtofl@arg^(0+128),f
  2522  0757  1903               	skipnz
  2523  0758  0AC0               	incf	(___xxtofl@arg+1)^(0+128),f
  2524  0759  1903               	skipnz
  2525  075A  0AC1               	incf	(___xxtofl@arg+2)^(0+128),f
  2526  075B  1903               	skipnz
  2527  075C  0AC2               	incf	(___xxtofl@arg+3)^(0+128),f
  2528  075D  2F66               	goto	l723
  2529  075E                     l4468:
  2530  075E  0838               	movf	(___xxtofl@val+3)^(0+128),w
  2531  075F  00C2               	movwf	(___xxtofl@arg+3)^(0+128)
  2532  0760  0837               	movf	(___xxtofl@val+2)^(0+128),w
  2533  0761  00C1               	movwf	(___xxtofl@arg+2)^(0+128)
  2534  0762  0836               	movf	(___xxtofl@val+1)^(0+128),w
  2535  0763  00C0               	movwf	(___xxtofl@arg+1)^(0+128)
  2536  0764  0835               	movf	___xxtofl@val^(0+128),w
  2537  0765  00BF               	movwf	___xxtofl@arg^(0+128)
  2538  0766                     l723:
  2539  0766  0838               	movf	(___xxtofl@val+3)^(0+128),w
  2540  0767  0437               	iorwf	(___xxtofl@val+2)^(0+128),w
  2541  0768  0436               	iorwf	(___xxtofl@val+1)^(0+128),w
  2542  0769  0435               	iorwf	___xxtofl@val^(0+128),w
  2543  076A  1D03               	skipz
  2544  076B  2F6D               	goto	u7621
  2545  076C  2F6E               	goto	u7620
  2546  076D                     u7621:
  2547  076D  2F77               	goto	l4474
  2548  076E                     u7620:
  2549  076E                     l4470:
  2550  076E  3000               	movlw	0
  2551  076F  00B8               	movwf	(?___xxtofl+3)^(0+128)
  2552  0770  3000               	movlw	0
  2553  0771  00B7               	movwf	(?___xxtofl+2)^(0+128)
  2554  0772  3000               	movlw	0
  2555  0773  00B6               	movwf	(?___xxtofl+1)^(0+128)
  2556  0774  3000               	movlw	0
  2557  0775  00B5               	movwf	?___xxtofl^(0+128)
  2558  0776  2FFD               	goto	l725
  2559  0777                     l4474:
  2560  0777  3096               	movlw	150
  2561  0778  00B9               	movwf	??___xxtofl^(0+128)
  2562  0779  0839               	movf	??___xxtofl^(0+128),w
  2563  077A  00BE               	movwf	___xxtofl@exp^(0+128)
  2564  077B  2F89               	goto	l4478
  2565  077C                     l4476:
  2566  077C  3001               	movlw	1
  2567  077D  00B9               	movwf	??___xxtofl^(0+128)
  2568  077E  0839               	movf	??___xxtofl^(0+128),w
  2569  077F  07BE               	addwf	___xxtofl@exp^(0+128),f
  2570  0780  3001               	movlw	1
  2571  0781                     u7635:
  2572  0781  1003               	clrc
  2573  0782  0CC2               	rrf	(___xxtofl@arg+3)^(0+128),f
  2574  0783  0CC1               	rrf	(___xxtofl@arg+2)^(0+128),f
  2575  0784  0CC0               	rrf	(___xxtofl@arg+1)^(0+128),f
  2576  0785  0CBF               	rrf	___xxtofl@arg^(0+128),f
  2577  0786  3EFF               	addlw	-1
  2578  0787  1D03               	skipz
  2579  0788  2F81               	goto	u7635
  2580  0789                     l4478:
  2581  0789  30FE               	movlw	254
  2582  078A  0542               	andwf	(___xxtofl@arg+3)^(0+128),w
  2583  078B  1D03               	btfss	3,2
  2584  078C  2F8E               	goto	u7641
  2585  078D  2F8F               	goto	u7640
  2586  078E                     u7641:
  2587  078E  2F7C               	goto	l4476
  2588  078F                     u7640:
  2589  078F  2FAB               	goto	l729
  2590  0790                     l4480:
  2591  0790  3001               	movlw	1
  2592  0791  00B9               	movwf	??___xxtofl^(0+128)
  2593  0792  0839               	movf	??___xxtofl^(0+128),w
  2594  0793  07BE               	addwf	___xxtofl@exp^(0+128),f
  2595  0794                     l4482:
  2596  0794  3001               	movlw	1
  2597  0795  07BF               	addwf	___xxtofl@arg^(0+128),f
  2598  0796  3000               	movlw	0
  2599  0797  1803               	skipnc
  2600  0798  3001               	movlw	1
  2601  0799  07C0               	addwf	(___xxtofl@arg+1)^(0+128),f
  2602  079A  3000               	movlw	0
  2603  079B  1803               	skipnc
  2604  079C  3001               	movlw	1
  2605  079D  07C1               	addwf	(___xxtofl@arg+2)^(0+128),f
  2606  079E  3000               	movlw	0
  2607  079F  1803               	skipnc
  2608  07A0  3001               	movlw	1
  2609  07A1  07C2               	addwf	(___xxtofl@arg+3)^(0+128),f
  2610  07A2                     l4484:
  2611  07A2  3001               	movlw	1
  2612  07A3                     u7655:
  2613  07A3  1003               	clrc
  2614  07A4  0CC2               	rrf	(___xxtofl@arg+3)^(0+128),f
  2615  07A5  0CC1               	rrf	(___xxtofl@arg+2)^(0+128),f
  2616  07A6  0CC0               	rrf	(___xxtofl@arg+1)^(0+128),f
  2617  07A7  0CBF               	rrf	___xxtofl@arg^(0+128),f
  2618  07A8  3EFF               	addlw	-1
  2619  07A9  1D03               	skipz
  2620  07AA  2FA3               	goto	u7655
  2621  07AB                     l729:
  2622  07AB  30FF               	movlw	255
  2623  07AC  0542               	andwf	(___xxtofl@arg+3)^(0+128),w
  2624  07AD  1D03               	btfss	3,2
  2625  07AE  2FB0               	goto	u7661
  2626  07AF  2FB1               	goto	u7660
  2627  07B0                     u7661:
  2628  07B0  2F90               	goto	l4480
  2629  07B1                     u7660:
  2630  07B1  2FBD               	goto	l4488
  2631  07B2                     l4486:
  2632  07B2  3001               	movlw	1
  2633  07B3  02BE               	subwf	___xxtofl@exp^(0+128),f
  2634  07B4  3001               	movlw	1
  2635  07B5  00B9               	movwf	??___xxtofl^(0+128)
  2636  07B6                     u7675:
  2637  07B6  1003               	clrc
  2638  07B7  0DBF               	rlf	___xxtofl@arg^(0+128),f
  2639  07B8  0DC0               	rlf	(___xxtofl@arg+1)^(0+128),f
  2640  07B9  0DC1               	rlf	(___xxtofl@arg+2)^(0+128),f
  2641  07BA  0DC2               	rlf	(___xxtofl@arg+3)^(0+128),f
  2642  07BB  0BB9               	decfsz	??___xxtofl^(0+128),f
  2643  07BC  2FB6               	goto	u7675
  2644  07BD                     l4488:
  2645  07BD  1BC1               	btfsc	(___xxtofl@arg+2)^(0+128),7
  2646  07BE  2FC0               	goto	u7681
  2647  07BF  2FC1               	goto	u7680
  2648  07C0                     u7681:
  2649  07C0  2FC7               	goto	l736
  2650  07C1                     u7680:
  2651  07C1                     l4490:
  2652  07C1  3002               	movlw	2
  2653  07C2  023E               	subwf	___xxtofl@exp^(0+128),w
  2654  07C3  1803               	skipnc
  2655  07C4  2FC6               	goto	u7691
  2656  07C5  2FC7               	goto	u7690
  2657  07C6                     u7691:
  2658  07C6  2FB2               	goto	l4486
  2659  07C7                     u7690:
  2660  07C7                     l736:
  2661  07C7  183E               	btfsc	___xxtofl@exp^(0+128),0
  2662  07C8  2FCA               	goto	u7701
  2663  07C9  2FCB               	goto	u7700
  2664  07CA                     u7701:
  2665  07CA  2FD3               	goto	l737
  2666  07CB                     u7700:
  2667  07CB                     l4492:
  2668  07CB  30FF               	movlw	255
  2669  07CC  05BF               	andwf	___xxtofl@arg^(0+128),f
  2670  07CD  30FF               	movlw	255
  2671  07CE  05C0               	andwf	(___xxtofl@arg+1)^(0+128),f
  2672  07CF  307F               	movlw	127
  2673  07D0  05C1               	andwf	(___xxtofl@arg+2)^(0+128),f
  2674  07D1  30FF               	movlw	255
  2675  07D2  05C2               	andwf	(___xxtofl@arg+3)^(0+128),f
  2676  07D3                     l737:
  2677  07D3  1003               	clrc
  2678  07D4  0CBE               	rrf	___xxtofl@exp^(0+128),f
  2679  07D5                     l4494:
  2680  07D5  083E               	movf	___xxtofl@exp^(0+128),w
  2681  07D6  00B9               	movwf	??___xxtofl^(0+128)
  2682  07D7  01BA               	clrf	(??___xxtofl^(0+128)+1)
  2683  07D8  01BB               	clrf	(??___xxtofl^(0+128)+2)
  2684  07D9  01BC               	clrf	(??___xxtofl^(0+128)+3)
  2685  07DA  3018               	movlw	24
  2686  07DB                     u7715:
  2687  07DB  1003               	clrc
  2688  07DC  0DB9               	rlf	??___xxtofl^(0+128),f
  2689  07DD  0DBA               	rlf	(??___xxtofl^(0+128)+1),f
  2690  07DE  0DBB               	rlf	(??___xxtofl^(0+128)+2),f
  2691  07DF  0DBC               	rlf	(??___xxtofl^(0+128)+3),f
  2692  07E0                     u7710:
  2693  07E0  3EFF               	addlw	-1
  2694  07E1  1D03               	skipz
  2695  07E2  2FDB               	goto	u7715
  2696  07E3  0839               	movf	??___xxtofl^(0+128),w
  2697  07E4  04BF               	iorwf	___xxtofl@arg^(0+128),f
  2698  07E5  083A               	movf	(??___xxtofl+1)^(0+128),w
  2699  07E6  04C0               	iorwf	(___xxtofl@arg+1)^(0+128),f
  2700  07E7  083B               	movf	(??___xxtofl+2)^(0+128),w
  2701  07E8  04C1               	iorwf	(___xxtofl@arg+2)^(0+128),f
  2702  07E9  083C               	movf	(??___xxtofl+3)^(0+128),w
  2703  07EA  04C2               	iorwf	(___xxtofl@arg+3)^(0+128),f
  2704  07EB                     l4496:
  2705  07EB  083D               	movf	___xxtofl@sign^(0+128),w
  2706  07EC  1903               	btfsc	3,2
  2707  07ED  2FEF               	goto	u7721
  2708  07EE  2FF0               	goto	u7720
  2709  07EF                     u7721:
  2710  07EF  2FF5               	goto	l4502
  2711  07F0                     u7720:
  2712  07F0                     l4498:
  2713  07F0  1FB8               	btfss	(___xxtofl@val+3)^(0+128),7
  2714  07F1  2FF3               	goto	u7731
  2715  07F2  2FF4               	goto	u7730
  2716  07F3                     u7731:
  2717  07F3  2FF5               	goto	l4502
  2718  07F4                     u7730:
  2719  07F4                     l4500:
  2720  07F4  17C2               	bsf	(___xxtofl@arg^(0+128)+3),7
  2721  07F5                     l4502:
  2722  07F5  0842               	movf	(___xxtofl@arg+3)^(0+128),w
  2723  07F6  00B8               	movwf	(?___xxtofl+3)^(0+128)
  2724  07F7  0841               	movf	(___xxtofl@arg+2)^(0+128),w
  2725  07F8  00B7               	movwf	(?___xxtofl+2)^(0+128)
  2726  07F9  0840               	movf	(___xxtofl@arg+1)^(0+128),w
  2727  07FA  00B6               	movwf	(?___xxtofl+1)^(0+128)
  2728  07FB  083F               	movf	___xxtofl@arg^(0+128),w
  2729  07FC  00B5               	movwf	?___xxtofl^(0+128)
  2730  07FD                     l725:
  2731  07FD  0008               	return
  2732  07FE                     __end_of___xxtofl:
  2733                           
  2734                           	psect	text7
  2735  1E20                     __ptext7:	
  2736 ;; *************** function ___fltol *****************
  2737 ;; Defined at:
  2738 ;;		line 43 in file "C:\Program Files\Microchip\xc8\v2.35\pic\sources\c90\common\fltol.c"
  2739 ;; Parameters:    Size  Location     Type
  2740 ;;  f1              4   59[BANK3 ] unsigned char 
  2741 ;; Auto vars:     Size  Location     Type
  2742 ;;  exp1            1   49[BANK1 ] unsigned char 
  2743 ;;  sign1           1   48[BANK1 ] unsigned char 
  2744 ;; Return value:  Size  Location     Type
  2745 ;;                  4   59[BANK3 ] long 
  2746 ;; Registers used:
  2747 ;;		wreg, status,2, status,0
  2748 ;; Tracked objects:
  2749 ;;		On entry : 0/0
  2750 ;;		On exit  : 0/0
  2751 ;;		Unchanged: 0/0
  2752 ;; Data sizes:     COMMON   BANK0   BANK1   BANK3   BANK2
  2753 ;;      Params:         0       0       0       4       0
  2754 ;;      Locals:         0       0       2       0       0
  2755 ;;      Temps:          0       0       0       5       0
  2756 ;;      Totals:         0       0       2       9       0
  2757 ;;Total ram usage:       11 bytes
  2758 ;; Hardware stack levels used: 1
  2759 ;; Hardware stack levels required when called: 5
  2760 ;; This function calls:
  2761 ;;		Nothing
  2762 ;; This function is called by:
  2763 ;;		_interpole
  2764 ;; This function uses a non-reentrant model
  2765 ;;
  2766                           
  2767  1E20                     ___fltol:	
  2768                           ;psect for function ___fltol
  2769                           
  2770  1E20                     l3950:	
  2771                           ;incstack = 0
  2772                           ; Regs used in ___fltol: [wreg+status,2+status,0]
  2773                           
  2774  1E20  1003               	clrc
  2775  1E21  1683               	bsf	3,5	;RP0=1, select bank3
  2776  1E22  1703               	bsf	3,6	;RP1=1, select bank3
  2777  1E23  0D4D               	rlf	(___fltol@f1+2)^(0+384),w
  2778  1E24  0D4E               	rlf	(___fltol@f1+3)^(0+384),w
  2779  1E25  00CF               	movwf	??___fltol^(0+384)
  2780  1E26  084F               	movf	??___fltol^(0+384),w
  2781  1E27  1683               	bsf	3,5	;RP0=1, select bank1
  2782  1E28  1303               	bcf	3,6	;RP1=0, select bank1
  2783  1E29  00D1               	movwf	___fltol@exp1^(0+128)
  2784  1E2A  0851               	movf	___fltol@exp1^(0+128),w
  2785  1E2B  1D03               	btfss	3,2
  2786  1E2C  2E2E               	goto	u6371
  2787  1E2D  2E2F               	goto	u6370
  2788  1E2E                     u6371:
  2789  1E2E  2E3A               	goto	l3956
  2790  1E2F                     u6370:
  2791  1E2F                     l3952:
  2792  1E2F  3000               	movlw	0
  2793  1E30  1683               	bsf	3,5	;RP0=1, select bank3
  2794  1E31  1703               	bsf	3,6	;RP1=1, select bank3
  2795  1E32  00CE               	movwf	(?___fltol+3)^(0+384)
  2796  1E33  3000               	movlw	0
  2797  1E34  00CD               	movwf	(?___fltol+2)^(0+384)
  2798  1E35  3000               	movlw	0
  2799  1E36  00CC               	movwf	(?___fltol+1)^(0+384)
  2800  1E37  3000               	movlw	0
  2801  1E38  00CB               	movwf	?___fltol^(0+384)
  2802  1E39  2EB1               	goto	l476
  2803  1E3A                     l3956:
  2804  1E3A  1683               	bsf	3,5	;RP0=1, select bank3
  2805  1E3B  1703               	bsf	3,6	;RP1=1, select bank3
  2806  1E3C  084B               	movf	___fltol@f1^(0+384),w
  2807  1E3D  00CF               	movwf	??___fltol^(0+384)
  2808  1E3E  084C               	movf	(___fltol@f1+1)^(0+384),w
  2809  1E3F  00D0               	movwf	(??___fltol^(0+384)+1)
  2810  1E40  084D               	movf	(___fltol@f1+2)^(0+384),w
  2811  1E41  00D1               	movwf	(??___fltol^(0+384)+2)
  2812  1E42  084E               	movf	(___fltol@f1+3)^(0+384),w
  2813  1E43  00D2               	movwf	(??___fltol^(0+384)+3)
  2814  1E44  301F               	movlw	31
  2815  1E45                     u6385:
  2816  1E45  1003               	clrc
  2817  1E46  0CD2               	rrf	(??___fltol^(0+384)+3),f
  2818  1E47  0CD1               	rrf	(??___fltol^(0+384)+2),f
  2819  1E48  0CD0               	rrf	(??___fltol^(0+384)+1),f
  2820  1E49  0CCF               	rrf	??___fltol^(0+384),f
  2821  1E4A                     u6380:
  2822  1E4A  3EFF               	addlw	-1
  2823  1E4B  1D03               	skipz
  2824  1E4C  2E45               	goto	u6385
  2825  1E4D  084F               	movf	??___fltol^(0+384),w
  2826  1E4E  00D3               	movwf	(??___fltol+4)^(0+384)
  2827  1E4F  0853               	movf	(??___fltol+4)^(0+384),w
  2828  1E50  1683               	bsf	3,5	;RP0=1, select bank1
  2829  1E51  1303               	bcf	3,6	;RP1=0, select bank1
  2830  1E52  00D0               	movwf	___fltol@sign1^(0+128)
  2831  1E53                     l3958:
  2832  1E53  1683               	bsf	3,5	;RP0=1, select bank3
  2833  1E54  1703               	bsf	3,6	;RP1=1, select bank3
  2834  1E55  17CD               	bsf	(___fltol@f1^(0+384)+2),7
  2835  1E56                     l3960:
  2836  1E56  30FF               	movlw	255
  2837  1E57  05CB               	andwf	___fltol@f1^(0+384),f
  2838  1E58  30FF               	movlw	255
  2839  1E59  05CC               	andwf	(___fltol@f1+1)^(0+384),f
  2840  1E5A  30FF               	movlw	255
  2841  1E5B  05CD               	andwf	(___fltol@f1+2)^(0+384),f
  2842  1E5C  3000               	movlw	0
  2843  1E5D  05CE               	andwf	(___fltol@f1+3)^(0+384),f
  2844  1E5E                     l3962:
  2845  1E5E  3096               	movlw	150
  2846  1E5F  1683               	bsf	3,5	;RP0=1, select bank1
  2847  1E60  1303               	bcf	3,6	;RP1=0, select bank1
  2848  1E61  02D1               	subwf	___fltol@exp1^(0+128),f
  2849  1E62                     l3964:
  2850  1E62  1FD1               	btfss	___fltol@exp1^(0+128),7
  2851  1E63  2E65               	goto	u6391
  2852  1E64  2E66               	goto	u6390
  2853  1E65                     u6391:
  2854  1E65  2E84               	goto	l3974
  2855  1E66                     u6390:
  2856  1E66                     l3966:
  2857  1E66  0851               	movf	___fltol@exp1^(0+128),w
  2858  1E67  3A80               	xorlw	128
  2859  1E68  3E97               	addlw	151
  2860  1E69  1803               	skipnc
  2861  1E6A  2E6C               	goto	u6401
  2862  1E6B  2E6D               	goto	u6400
  2863  1E6C                     u6401:
  2864  1E6C  2E6E               	goto	l3972
  2865  1E6D                     u6400:
  2866  1E6D  2E2F               	goto	l3952
  2867  1E6E                     l3972:
  2868  1E6E  3001               	movlw	1
  2869  1E6F                     u6415:
  2870  1E6F  1003               	clrc
  2871  1E70  1683               	bsf	3,5	;RP0=1, select bank3
  2872  1E71  1703               	bsf	3,6	;RP1=1, select bank3
  2873  1E72  0CCE               	rrf	(___fltol@f1+3)^(0+384),f
  2874  1E73  0CCD               	rrf	(___fltol@f1+2)^(0+384),f
  2875  1E74  0CCC               	rrf	(___fltol@f1+1)^(0+384),f
  2876  1E75  0CCB               	rrf	___fltol@f1^(0+384),f
  2877  1E76  3EFF               	addlw	-1
  2878  1E77  1D03               	skipz
  2879  1E78  2E6F               	goto	u6415
  2880  1E79  3001               	movlw	1
  2881  1E7A  00CF               	movwf	??___fltol^(0+384)
  2882  1E7B  084F               	movf	??___fltol^(0+384),w
  2883  1E7C  1683               	bsf	3,5	;RP0=1, select bank1
  2884  1E7D  1303               	bcf	3,6	;RP1=0, select bank1
  2885  1E7E  07D1               	addwf	___fltol@exp1^(0+128),f
  2886  1E7F  1D03               	btfss	3,2
  2887  1E80  2E82               	goto	u6421
  2888  1E81  2E83               	goto	u6420
  2889  1E82                     u6421:
  2890  1E82  2E6E               	goto	l3972
  2891  1E83                     u6420:
  2892  1E83  2E9F               	goto	l3982
  2893  1E84                     l3974:
  2894  1E84  3020               	movlw	32
  2895  1E85  0251               	subwf	___fltol@exp1^(0+128),w
  2896  1E86  1C03               	skipc
  2897  1E87  2E89               	goto	u6431
  2898  1E88  2E8A               	goto	u6430
  2899  1E89                     u6431:
  2900  1E89  2E9A               	goto	l483
  2901  1E8A                     u6430:
  2902  1E8A  2E2F               	goto	l3952
  2903  1E8B                     l3980:
  2904  1E8B  3001               	movlw	1
  2905  1E8C  1683               	bsf	3,5	;RP0=1, select bank3
  2906  1E8D  1703               	bsf	3,6	;RP1=1, select bank3
  2907  1E8E  00CF               	movwf	??___fltol^(0+384)
  2908  1E8F                     u6445:
  2909  1E8F  1003               	clrc
  2910  1E90  0DCB               	rlf	___fltol@f1^(0+384),f
  2911  1E91  0DCC               	rlf	(___fltol@f1+1)^(0+384),f
  2912  1E92  0DCD               	rlf	(___fltol@f1+2)^(0+384),f
  2913  1E93  0DCE               	rlf	(___fltol@f1+3)^(0+384),f
  2914  1E94  0BCF               	decfsz	??___fltol^(0+384),f
  2915  1E95  2E8F               	goto	u6445
  2916  1E96  3001               	movlw	1
  2917  1E97  1683               	bsf	3,5	;RP0=1, select bank1
  2918  1E98  1303               	bcf	3,6	;RP1=0, select bank1
  2919  1E99  02D1               	subwf	___fltol@exp1^(0+128),f
  2920  1E9A                     l483:
  2921  1E9A  0851               	movf	___fltol@exp1^(0+128),w
  2922  1E9B  1D03               	btfss	3,2
  2923  1E9C  2E9E               	goto	u6451
  2924  1E9D  2E9F               	goto	u6450
  2925  1E9E                     u6451:
  2926  1E9E  2E8B               	goto	l3980
  2927  1E9F                     u6450:
  2928  1E9F                     l3982:
  2929  1E9F  0850               	movf	___fltol@sign1^(0+128),w
  2930  1EA0  1903               	btfsc	3,2
  2931  1EA1  2EA3               	goto	u6461
  2932  1EA2  2EA4               	goto	u6460
  2933  1EA3                     u6461:
  2934  1EA3  2EB1               	goto	l486
  2935  1EA4                     u6460:
  2936  1EA4                     l3984:
  2937  1EA4  1683               	bsf	3,5	;RP0=1, select bank3
  2938  1EA5  1703               	bsf	3,6	;RP1=1, select bank3
  2939  1EA6  09CB               	comf	___fltol@f1^(0+384),f
  2940  1EA7  09CC               	comf	(___fltol@f1+1)^(0+384),f
  2941  1EA8  09CD               	comf	(___fltol@f1+2)^(0+384),f
  2942  1EA9  09CE               	comf	(___fltol@f1+3)^(0+384),f
  2943  1EAA  0ACB               	incf	___fltol@f1^(0+384),f
  2944  1EAB  1903               	skipnz
  2945  1EAC  0ACC               	incf	(___fltol@f1+1)^(0+384),f
  2946  1EAD  1903               	skipnz
  2947  1EAE  0ACD               	incf	(___fltol@f1+2)^(0+384),f
  2948  1EAF  1903               	skipnz
  2949  1EB0  0ACE               	incf	(___fltol@f1+3)^(0+384),f
  2950  1EB1                     l486:
  2951  1EB1                     l476:
  2952  1EB1  0008               	return
  2953  1EB2                     __end_of___fltol:
  2954                           
  2955                           	psect	text8
  2956  0026                     __ptext8:	
  2957 ;; *************** function ___flmul *****************
  2958 ;; Defined at:
  2959 ;;		line 8 in file "C:\Program Files\Microchip\xc8\v2.35\pic\sources\c90\common\sprcmul.c"
  2960 ;; Parameters:    Size  Location     Type
  2961 ;;  b               4   13[BANK3 ] long 
  2962 ;;  a               4   17[BANK3 ] long 
  2963 ;; Auto vars:     Size  Location     Type
  2964 ;;  prod            4   33[BANK3 ] struct .
  2965 ;;  grs             4   28[BANK3 ] unsigned long 
  2966 ;;  temp            2   37[BANK3 ] struct .
  2967 ;;  bexp            1   32[BANK3 ] unsigned char 
  2968 ;;  aexp            1   27[BANK3 ] unsigned char 
  2969 ;;  sign            1   26[BANK3 ] unsigned char 
  2970 ;; Return value:  Size  Location     Type
  2971 ;;                  4   13[BANK3 ] unsigned char 
  2972 ;; Registers used:
  2973 ;;		wreg, status,2, status,0, btemp+1, pclath, cstack
  2974 ;; Tracked objects:
  2975 ;;		On entry : 0/0
  2976 ;;		On exit  : 0/0
  2977 ;;		Unchanged: 0/0
  2978 ;; Data sizes:     COMMON   BANK0   BANK1   BANK3   BANK2
  2979 ;;      Params:         0       0       0       8       0
  2980 ;;      Locals:         0       0       0      13       0
  2981 ;;      Temps:          0       0       0       5       0
  2982 ;;      Totals:         0       0       0      26       0
  2983 ;;Total ram usage:       26 bytes
  2984 ;; Hardware stack levels used: 1
  2985 ;; Hardware stack levels required when called: 6
  2986 ;; This function calls:
  2987 ;;		__Umul8_16
  2988 ;; This function is called by:
  2989 ;;		_interpole
  2990 ;; This function uses a non-reentrant model
  2991 ;;
  2992                           
  2993  0026                     ___flmul:	
  2994                           ;psect for function ___flmul
  2995                           
  2996  0026                     l4322:	
  2997                           ;incstack = 0
  2998 ;; hardware stack exceeded
  2999                           ; Regs used in ___flmul: [wreg+status,2+status,0+btemp+1+pclath+cstack]
  3000                           
  3001  0026  1683               	bsf	3,5	;RP0=1, select bank3
  3002  0027  1703               	bsf	3,6	;RP1=1, select bank3
  3003  0028  0820               	movf	(___flmul@b^(0+384)+3),w
  3004  0029  3980               	andlw	128
  3005  002A  00A5               	movwf	??___flmul^(0+384)
  3006  002B  0825               	movf	??___flmul^(0+384),w
  3007  002C  00AA               	movwf	___flmul@sign^(0+384)
  3008  002D                     l4324:
  3009  002D  0820               	movf	(___flmul@b^(0+384)+3),w
  3010  002E  00A5               	movwf	??___flmul^(0+384)
  3011  002F  0725               	addwf	??___flmul^(0+384),w
  3012  0030  00A6               	movwf	(??___flmul+1)^(0+384)
  3013  0031  0826               	movf	(??___flmul+1)^(0+384),w
  3014  0032  00B0               	movwf	___flmul@bexp^(0+384)
  3015  0033                     l4326:
  3016  0033  1F9F               	btfss	(___flmul@b^(0+384)+2),7
  3017  0034  2836               	goto	u7231
  3018  0035  2837               	goto	u7230
  3019  0036                     u7231:
  3020  0036  2838               	goto	l4330
  3021  0037                     u7230:
  3022  0037                     l4328:
  3023  0037  1430               	bsf	___flmul@bexp^(0+384),0
  3024  0038                     l4330:
  3025  0038  0830               	movf	___flmul@bexp^(0+384),w
  3026  0039  1903               	btfsc	3,2
  3027  003A  283C               	goto	u7241
  3028  003B  283D               	goto	u7240
  3029  003C                     u7241:
  3030  003C  284C               	goto	l4338
  3031  003D                     u7240:
  3032  003D                     l4332:
  3033  003D  0A30               	incf	___flmul@bexp^(0+384),w
  3034  003E  1D03               	btfss	3,2
  3035  003F  2841               	goto	u7251
  3036  0040  2842               	goto	u7250
  3037  0041                     u7251:
  3038  0041  284A               	goto	l4336
  3039  0042                     u7250:
  3040  0042                     l4334:
  3041  0042  3000               	movlw	0
  3042  0043  00A0               	movwf	(___flmul@b+3)^(0+384)
  3043  0044  3000               	movlw	0
  3044  0045  009F               	movwf	(___flmul@b+2)^(0+384)
  3045  0046  3000               	movlw	0
  3046  0047  009E               	movwf	(___flmul@b+1)^(0+384)
  3047  0048  3000               	movlw	0
  3048  0049  009D               	movwf	___flmul@b^(0+384)
  3049  004A                     l4336:
  3050  004A  179F               	bsf	(___flmul@b^(0+384)+2),7
  3051  004B  2854               	goto	l4340
  3052  004C                     l4338:
  3053  004C  3000               	movlw	0
  3054  004D  00A0               	movwf	(___flmul@b+3)^(0+384)
  3055  004E  3000               	movlw	0
  3056  004F  009F               	movwf	(___flmul@b+2)^(0+384)
  3057  0050  3000               	movlw	0
  3058  0051  009E               	movwf	(___flmul@b+1)^(0+384)
  3059  0052  3000               	movlw	0
  3060  0053  009D               	movwf	___flmul@b^(0+384)
  3061  0054                     l4340:
  3062  0054  0824               	movf	(___flmul@a^(0+384)+3),w
  3063  0055  3980               	andlw	128
  3064  0056  00A5               	movwf	??___flmul^(0+384)
  3065  0057  0825               	movf	??___flmul^(0+384),w
  3066  0058  06AA               	xorwf	___flmul@sign^(0+384),f
  3067  0059                     l4342:
  3068  0059  0824               	movf	(___flmul@a^(0+384)+3),w
  3069  005A  00A5               	movwf	??___flmul^(0+384)
  3070  005B  0725               	addwf	??___flmul^(0+384),w
  3071  005C  00A6               	movwf	(??___flmul+1)^(0+384)
  3072  005D  0826               	movf	(??___flmul+1)^(0+384),w
  3073  005E  00AB               	movwf	___flmul@aexp^(0+384)
  3074  005F                     l4344:
  3075  005F  1FA3               	btfss	(___flmul@a^(0+384)+2),7
  3076  0060  2862               	goto	u7261
  3077  0061  2863               	goto	u7260
  3078  0062                     u7261:
  3079  0062  2864               	goto	l4348
  3080  0063                     u7260:
  3081  0063                     l4346:
  3082  0063  142B               	bsf	___flmul@aexp^(0+384),0
  3083  0064                     l4348:
  3084  0064  082B               	movf	___flmul@aexp^(0+384),w
  3085  0065  1903               	btfsc	3,2
  3086  0066  2868               	goto	u7271
  3087  0067  2869               	goto	u7270
  3088  0068                     u7271:
  3089  0068  2878               	goto	l4356
  3090  0069                     u7270:
  3091  0069                     l4350:
  3092  0069  0A2B               	incf	___flmul@aexp^(0+384),w
  3093  006A  1D03               	btfss	3,2
  3094  006B  286D               	goto	u7281
  3095  006C  286E               	goto	u7280
  3096  006D                     u7281:
  3097  006D  2876               	goto	l4354
  3098  006E                     u7280:
  3099  006E                     l4352:
  3100  006E  3000               	movlw	0
  3101  006F  00A4               	movwf	(___flmul@a+3)^(0+384)
  3102  0070  3000               	movlw	0
  3103  0071  00A3               	movwf	(___flmul@a+2)^(0+384)
  3104  0072  3000               	movlw	0
  3105  0073  00A2               	movwf	(___flmul@a+1)^(0+384)
  3106  0074  3000               	movlw	0
  3107  0075  00A1               	movwf	___flmul@a^(0+384)
  3108  0076                     l4354:
  3109  0076  17A3               	bsf	(___flmul@a^(0+384)+2),7
  3110  0077  2880               	goto	l4358
  3111  0078                     l4356:
  3112  0078  3000               	movlw	0
  3113  0079  00A4               	movwf	(___flmul@a+3)^(0+384)
  3114  007A  3000               	movlw	0
  3115  007B  00A3               	movwf	(___flmul@a+2)^(0+384)
  3116  007C  3000               	movlw	0
  3117  007D  00A2               	movwf	(___flmul@a+1)^(0+384)
  3118  007E  3000               	movlw	0
  3119  007F  00A1               	movwf	___flmul@a^(0+384)
  3120  0080                     l4358:
  3121  0080  082B               	movf	___flmul@aexp^(0+384),w
  3122  0081  1903               	btfsc	3,2
  3123  0082  2884               	goto	u7291
  3124  0083  2885               	goto	u7290
  3125  0084                     u7291:
  3126  0084  288A               	goto	l4362
  3127  0085                     u7290:
  3128  0085                     l4360:
  3129  0085  0830               	movf	___flmul@bexp^(0+384),w
  3130  0086  1D03               	btfss	3,2
  3131  0087  2889               	goto	u7301
  3132  0088  288A               	goto	u7300
  3133  0089                     u7301:
  3134  0089  2893               	goto	l4366
  3135  008A                     u7300:
  3136  008A                     l4362:
  3137  008A  3000               	movlw	0
  3138  008B  00A0               	movwf	(?___flmul+3)^(0+384)
  3139  008C  3000               	movlw	0
  3140  008D  009F               	movwf	(?___flmul+2)^(0+384)
  3141  008E  3000               	movlw	0
  3142  008F  009E               	movwf	(?___flmul+1)^(0+384)
  3143  0090  3000               	movlw	0
  3144  0091  009D               	movwf	?___flmul^(0+384)
  3145  0092  2BE0               	goto	l679
  3146  0093                     l4366:
  3147  0093  081D               	movf	___flmul@b^(0+384),w
  3148  0094  00A5               	movwf	??___flmul^(0+384)
  3149  0095  0825               	movf	??___flmul^(0+384),w
  3150  0096  1683               	bsf	3,5	;RP0=1, select bank1
  3151  0097  1303               	bcf	3,6	;RP1=0, select bank1
  3152  0098  00B5               	movwf	__Umul8_16@multiplicand^(0+128)
  3153  0099  1683               	bsf	3,5	;RP0=1, select bank3
  3154  009A  1703               	bsf	3,6	;RP1=1, select bank3
  3155  009B  0823               	movf	(___flmul@a^(0+384)+2),w
  3156  009C  160A  118A  202A  120A  118A  	fcall	__Umul8_16
  3157  00A1  1683               	bsf	3,5	;RP0=1, select bank1
  3158  00A2  1303               	bcf	3,6	;RP1=0, select bank1
  3159  00A3  0836               	movf	(?__Umul8_16+1)^(0+128),w
  3160  00A4  1683               	bsf	3,5	;RP0=1, select bank3
  3161  00A5  1703               	bsf	3,6	;RP1=1, select bank3
  3162  00A6  00B6               	movwf	(___flmul@temp+1)^(0+384)
  3163  00A7  1683               	bsf	3,5	;RP0=1, select bank1
  3164  00A8  1303               	bcf	3,6	;RP1=0, select bank1
  3165  00A9  0835               	movf	?__Umul8_16^(0+128),w
  3166  00AA  1683               	bsf	3,5	;RP0=1, select bank3
  3167  00AB  1703               	bsf	3,6	;RP1=1, select bank3
  3168  00AC  00B5               	movwf	___flmul@temp^(0+384)
  3169  00AD                     l4368:
  3170  00AD  0835               	movf	___flmul@temp^(0+384),w
  3171  00AE  00A5               	movwf	??___flmul^(0+384)
  3172  00AF  01A6               	clrf	(??___flmul^(0+384)+1)
  3173  00B0  01A7               	clrf	(??___flmul^(0+384)+2)
  3174  00B1  01A8               	clrf	(??___flmul^(0+384)+3)
  3175  00B2  0828               	movf	(??___flmul+3)^(0+384),w
  3176  00B3  00AF               	movwf	(___flmul@grs+3)^(0+384)
  3177  00B4  0827               	movf	(??___flmul+2)^(0+384),w
  3178  00B5  00AE               	movwf	(___flmul@grs+2)^(0+384)
  3179  00B6  0826               	movf	(??___flmul+1)^(0+384),w
  3180  00B7  00AD               	movwf	(___flmul@grs+1)^(0+384)
  3181  00B8  0825               	movf	??___flmul^(0+384),w
  3182  00B9  00AC               	movwf	___flmul@grs^(0+384)
  3183  00BA                     l4370:
  3184  00BA  0836               	movf	(___flmul@temp^(0+384)+1),w
  3185  00BB  00A5               	movwf	??___flmul^(0+384)
  3186  00BC  01A6               	clrf	(??___flmul^(0+384)+1)
  3187  00BD  01A7               	clrf	(??___flmul^(0+384)+2)
  3188  00BE  01A8               	clrf	(??___flmul^(0+384)+3)
  3189  00BF  0828               	movf	(??___flmul+3)^(0+384),w
  3190  00C0  00B4               	movwf	(___flmul@prod+3)^(0+384)
  3191  00C1  0827               	movf	(??___flmul+2)^(0+384),w
  3192  00C2  00B3               	movwf	(___flmul@prod+2)^(0+384)
  3193  00C3  0826               	movf	(??___flmul+1)^(0+384),w
  3194  00C4  00B2               	movwf	(___flmul@prod+1)^(0+384)
  3195  00C5  0825               	movf	??___flmul^(0+384),w
  3196  00C6  00B1               	movwf	___flmul@prod^(0+384)
  3197  00C7  081E               	movf	(___flmul@b^(0+384)+1),w
  3198  00C8  00A5               	movwf	??___flmul^(0+384)
  3199  00C9  0825               	movf	??___flmul^(0+384),w
  3200  00CA  1683               	bsf	3,5	;RP0=1, select bank1
  3201  00CB  1303               	bcf	3,6	;RP1=0, select bank1
  3202  00CC  00B5               	movwf	__Umul8_16@multiplicand^(0+128)
  3203  00CD  1683               	bsf	3,5	;RP0=1, select bank3
  3204  00CE  1703               	bsf	3,6	;RP1=1, select bank3
  3205  00CF  0822               	movf	(___flmul@a^(0+384)+1),w
  3206  00D0  160A  118A  202A  120A  118A  	fcall	__Umul8_16
  3207  00D5  1683               	bsf	3,5	;RP0=1, select bank1
  3208  00D6  1303               	bcf	3,6	;RP1=0, select bank1
  3209  00D7  0836               	movf	(?__Umul8_16+1)^(0+128),w
  3210  00D8  1683               	bsf	3,5	;RP0=1, select bank3
  3211  00D9  1703               	bsf	3,6	;RP1=1, select bank3
  3212  00DA  00B6               	movwf	(___flmul@temp+1)^(0+384)
  3213  00DB  1683               	bsf	3,5	;RP0=1, select bank1
  3214  00DC  1303               	bcf	3,6	;RP1=0, select bank1
  3215  00DD  0835               	movf	?__Umul8_16^(0+128),w
  3216  00DE  1683               	bsf	3,5	;RP0=1, select bank3
  3217  00DF  1703               	bsf	3,6	;RP1=1, select bank3
  3218  00E0  00B5               	movwf	___flmul@temp^(0+384)
  3219  00E1                     l4372:
  3220  00E1  0835               	movf	___flmul@temp^(0+384),w
  3221  00E2  00A5               	movwf	??___flmul^(0+384)
  3222  00E3  01A6               	clrf	(??___flmul^(0+384)+1)
  3223  00E4  01A7               	clrf	(??___flmul^(0+384)+2)
  3224  00E5  01A8               	clrf	(??___flmul^(0+384)+3)
  3225  00E6  0825               	movf	??___flmul^(0+384),w
  3226  00E7  07AC               	addwf	___flmul@grs^(0+384),f
  3227  00E8  0826               	movf	(??___flmul+1)^(0+384),w
  3228  00E9  1103               	clrz
  3229  00EA  1803               	skipnc
  3230  00EB  3E01               	addlw	1
  3231  00EC  1903               	skipnz
  3232  00ED  28EF               	goto	u7311
  3233  00EE  07AD               	addwf	(___flmul@grs+1)^(0+384),f
  3234  00EF                     u7311:
  3235  00EF  0827               	movf	(??___flmul+2)^(0+384),w
  3236  00F0  1103               	clrz
  3237  00F1  1803               	skipnc
  3238  00F2  3E01               	addlw	1
  3239  00F3  1903               	skipnz
  3240  00F4  28F6               	goto	u7312
  3241  00F5  07AE               	addwf	(___flmul@grs+2)^(0+384),f
  3242  00F6                     u7312:
  3243  00F6  0828               	movf	(??___flmul+3)^(0+384),w
  3244  00F7  1103               	clrz
  3245  00F8  1803               	skipnc
  3246  00F9  3E01               	addlw	1
  3247  00FA  1903               	skipnz
  3248  00FB  28FD               	goto	u7313
  3249  00FC  07AF               	addwf	(___flmul@grs+3)^(0+384),f
  3250  00FD                     u7313:
  3251  00FD                     l4374:
  3252  00FD  0836               	movf	(___flmul@temp^(0+384)+1),w
  3253  00FE  00A5               	movwf	??___flmul^(0+384)
  3254  00FF  01A6               	clrf	(??___flmul^(0+384)+1)
  3255  0100  01A7               	clrf	(??___flmul^(0+384)+2)
  3256  0101  01A8               	clrf	(??___flmul^(0+384)+3)
  3257  0102  0825               	movf	??___flmul^(0+384),w
  3258  0103  07B1               	addwf	___flmul@prod^(0+384),f
  3259  0104  0826               	movf	(??___flmul+1)^(0+384),w
  3260  0105  1103               	clrz
  3261  0106  1803               	skipnc
  3262  0107  3E01               	addlw	1
  3263  0108  1903               	skipnz
  3264  0109  290B               	goto	u7321
  3265  010A  07B2               	addwf	(___flmul@prod+1)^(0+384),f
  3266  010B                     u7321:
  3267  010B  0827               	movf	(??___flmul+2)^(0+384),w
  3268  010C  1103               	clrz
  3269  010D  1803               	skipnc
  3270  010E  3E01               	addlw	1
  3271  010F  1903               	skipnz
  3272  0110  2912               	goto	u7322
  3273  0111  07B3               	addwf	(___flmul@prod+2)^(0+384),f
  3274  0112                     u7322:
  3275  0112  0828               	movf	(??___flmul+3)^(0+384),w
  3276  0113  1103               	clrz
  3277  0114  1803               	skipnc
  3278  0115  3E01               	addlw	1
  3279  0116  1903               	skipnz
  3280  0117  2919               	goto	u7323
  3281  0118  07B4               	addwf	(___flmul@prod+3)^(0+384),f
  3282  0119                     u7323:
  3283  0119  081F               	movf	(___flmul@b^(0+384)+2),w
  3284  011A  00A5               	movwf	??___flmul^(0+384)
  3285  011B  0825               	movf	??___flmul^(0+384),w
  3286  011C  1683               	bsf	3,5	;RP0=1, select bank1
  3287  011D  1303               	bcf	3,6	;RP1=0, select bank1
  3288  011E  00B5               	movwf	__Umul8_16@multiplicand^(0+128)
  3289  011F  1683               	bsf	3,5	;RP0=1, select bank3
  3290  0120  1703               	bsf	3,6	;RP1=1, select bank3
  3291  0121  0821               	movf	___flmul@a^(0+384),w
  3292  0122  160A  118A  202A  120A  118A  	fcall	__Umul8_16
  3293  0127  1683               	bsf	3,5	;RP0=1, select bank1
  3294  0128  1303               	bcf	3,6	;RP1=0, select bank1
  3295  0129  0836               	movf	(?__Umul8_16+1)^(0+128),w
  3296  012A  1683               	bsf	3,5	;RP0=1, select bank3
  3297  012B  1703               	bsf	3,6	;RP1=1, select bank3
  3298  012C  00B6               	movwf	(___flmul@temp+1)^(0+384)
  3299  012D  1683               	bsf	3,5	;RP0=1, select bank1
  3300  012E  1303               	bcf	3,6	;RP1=0, select bank1
  3301  012F  0835               	movf	?__Umul8_16^(0+128),w
  3302  0130  1683               	bsf	3,5	;RP0=1, select bank3
  3303  0131  1703               	bsf	3,6	;RP1=1, select bank3
  3304  0132  00B5               	movwf	___flmul@temp^(0+384)
  3305  0133                     l4376:
  3306  0133  0835               	movf	___flmul@temp^(0+384),w
  3307  0134  00A5               	movwf	??___flmul^(0+384)
  3308  0135  01A6               	clrf	(??___flmul^(0+384)+1)
  3309  0136  01A7               	clrf	(??___flmul^(0+384)+2)
  3310  0137  01A8               	clrf	(??___flmul^(0+384)+3)
  3311  0138  0825               	movf	??___flmul^(0+384),w
  3312  0139  07AC               	addwf	___flmul@grs^(0+384),f
  3313  013A  0826               	movf	(??___flmul+1)^(0+384),w
  3314  013B  1103               	clrz
  3315  013C  1803               	skipnc
  3316  013D  3E01               	addlw	1
  3317  013E  1903               	skipnz
  3318  013F  2941               	goto	u7331
  3319  0140  07AD               	addwf	(___flmul@grs+1)^(0+384),f
  3320  0141                     u7331:
  3321  0141  0827               	movf	(??___flmul+2)^(0+384),w
  3322  0142  1103               	clrz
  3323  0143  1803               	skipnc
  3324  0144  3E01               	addlw	1
  3325  0145  1903               	skipnz
  3326  0146  2948               	goto	u7332
  3327  0147  07AE               	addwf	(___flmul@grs+2)^(0+384),f
  3328  0148                     u7332:
  3329  0148  0828               	movf	(??___flmul+3)^(0+384),w
  3330  0149  1103               	clrz
  3331  014A  1803               	skipnc
  3332  014B  3E01               	addlw	1
  3333  014C  1903               	skipnz
  3334  014D  294F               	goto	u7333
  3335  014E  07AF               	addwf	(___flmul@grs+3)^(0+384),f
  3336  014F                     u7333:
  3337  014F                     l4378:
  3338  014F  0836               	movf	(___flmul@temp^(0+384)+1),w
  3339  0150  00A5               	movwf	??___flmul^(0+384)
  3340  0151  01A6               	clrf	(??___flmul^(0+384)+1)
  3341  0152  01A7               	clrf	(??___flmul^(0+384)+2)
  3342  0153  01A8               	clrf	(??___flmul^(0+384)+3)
  3343  0154  0825               	movf	??___flmul^(0+384),w
  3344  0155  07B1               	addwf	___flmul@prod^(0+384),f
  3345  0156  0826               	movf	(??___flmul+1)^(0+384),w
  3346  0157  1103               	clrz
  3347  0158  1803               	skipnc
  3348  0159  3E01               	addlw	1
  3349  015A  1903               	skipnz
  3350  015B  295D               	goto	u7341
  3351  015C  07B2               	addwf	(___flmul@prod+1)^(0+384),f
  3352  015D                     u7341:
  3353  015D  0827               	movf	(??___flmul+2)^(0+384),w
  3354  015E  1103               	clrz
  3355  015F  1803               	skipnc
  3356  0160  3E01               	addlw	1
  3357  0161  1903               	skipnz
  3358  0162  2964               	goto	u7342
  3359  0163  07B3               	addwf	(___flmul@prod+2)^(0+384),f
  3360  0164                     u7342:
  3361  0164  0828               	movf	(??___flmul+3)^(0+384),w
  3362  0165  1103               	clrz
  3363  0166  1803               	skipnc
  3364  0167  3E01               	addlw	1
  3365  0168  1903               	skipnz
  3366  0169  296B               	goto	u7343
  3367  016A  07B4               	addwf	(___flmul@prod+3)^(0+384),f
  3368  016B                     u7343:
  3369  016B                     l4380:
  3370  016B  3008               	movlw	8
  3371  016C  00A5               	movwf	??___flmul^(0+384)
  3372  016D                     u7355:
  3373  016D  1003               	clrc
  3374  016E  0DAC               	rlf	___flmul@grs^(0+384),f
  3375  016F  0DAD               	rlf	(___flmul@grs+1)^(0+384),f
  3376  0170  0DAE               	rlf	(___flmul@grs+2)^(0+384),f
  3377  0171  0DAF               	rlf	(___flmul@grs+3)^(0+384),f
  3378  0172  0BA5               	decfsz	??___flmul^(0+384),f
  3379  0173  296D               	goto	u7355
  3380  0174                     l4382:
  3381  0174  081E               	movf	(___flmul@b^(0+384)+1),w
  3382  0175  00A5               	movwf	??___flmul^(0+384)
  3383  0176  0825               	movf	??___flmul^(0+384),w
  3384  0177  1683               	bsf	3,5	;RP0=1, select bank1
  3385  0178  1303               	bcf	3,6	;RP1=0, select bank1
  3386  0179  00B5               	movwf	__Umul8_16@multiplicand^(0+128)
  3387  017A  1683               	bsf	3,5	;RP0=1, select bank3
  3388  017B  1703               	bsf	3,6	;RP1=1, select bank3
  3389  017C  0821               	movf	___flmul@a^(0+384),w
  3390  017D  160A  118A  202A  120A  118A  	fcall	__Umul8_16
  3391  0182  1683               	bsf	3,5	;RP0=1, select bank1
  3392  0183  1303               	bcf	3,6	;RP1=0, select bank1
  3393  0184  0836               	movf	(?__Umul8_16+1)^(0+128),w
  3394  0185  1683               	bsf	3,5	;RP0=1, select bank3
  3395  0186  1703               	bsf	3,6	;RP1=1, select bank3
  3396  0187  00B6               	movwf	(___flmul@temp+1)^(0+384)
  3397  0188  1683               	bsf	3,5	;RP0=1, select bank1
  3398  0189  1303               	bcf	3,6	;RP1=0, select bank1
  3399  018A  0835               	movf	?__Umul8_16^(0+128),w
  3400  018B  1683               	bsf	3,5	;RP0=1, select bank3
  3401  018C  1703               	bsf	3,6	;RP1=1, select bank3
  3402  018D  00B5               	movwf	___flmul@temp^(0+384)
  3403  018E                     l4384:
  3404  018E  0835               	movf	___flmul@temp^(0+384),w
  3405  018F  00A5               	movwf	??___flmul^(0+384)
  3406  0190  0836               	movf	(___flmul@temp+1)^(0+384),w
  3407  0191  00A6               	movwf	(??___flmul^(0+384)+1)
  3408  0192  01A7               	clrf	(??___flmul^(0+384)+2)
  3409  0193  01A8               	clrf	(??___flmul^(0+384)+3)
  3410  0194  0825               	movf	??___flmul^(0+384),w
  3411  0195  07AC               	addwf	___flmul@grs^(0+384),f
  3412  0196  0826               	movf	(??___flmul+1)^(0+384),w
  3413  0197  1103               	clrz
  3414  0198  1803               	skipnc
  3415  0199  3E01               	addlw	1
  3416  019A  1903               	skipnz
  3417  019B  299D               	goto	u7361
  3418  019C  07AD               	addwf	(___flmul@grs+1)^(0+384),f
  3419  019D                     u7361:
  3420  019D  0827               	movf	(??___flmul+2)^(0+384),w
  3421  019E  1103               	clrz
  3422  019F  1803               	skipnc
  3423  01A0  3E01               	addlw	1
  3424  01A1  1903               	skipnz
  3425  01A2  29A4               	goto	u7362
  3426  01A3  07AE               	addwf	(___flmul@grs+2)^(0+384),f
  3427  01A4                     u7362:
  3428  01A4  0828               	movf	(??___flmul+3)^(0+384),w
  3429  01A5  1103               	clrz
  3430  01A6  1803               	skipnc
  3431  01A7  3E01               	addlw	1
  3432  01A8  1903               	skipnz
  3433  01A9  29AB               	goto	u7363
  3434  01AA  07AF               	addwf	(___flmul@grs+3)^(0+384),f
  3435  01AB                     u7363:
  3436  01AB                     l4386:
  3437  01AB  081D               	movf	___flmul@b^(0+384),w
  3438  01AC  00A5               	movwf	??___flmul^(0+384)
  3439  01AD  0825               	movf	??___flmul^(0+384),w
  3440  01AE  1683               	bsf	3,5	;RP0=1, select bank1
  3441  01AF  1303               	bcf	3,6	;RP1=0, select bank1
  3442  01B0  00B5               	movwf	__Umul8_16@multiplicand^(0+128)
  3443  01B1  1683               	bsf	3,5	;RP0=1, select bank3
  3444  01B2  1703               	bsf	3,6	;RP1=1, select bank3
  3445  01B3  0822               	movf	(___flmul@a^(0+384)+1),w
  3446  01B4  160A  118A  202A  120A  118A  	fcall	__Umul8_16
  3447  01B9  1683               	bsf	3,5	;RP0=1, select bank1
  3448  01BA  1303               	bcf	3,6	;RP1=0, select bank1
  3449  01BB  0836               	movf	(?__Umul8_16+1)^(0+128),w
  3450  01BC  1683               	bsf	3,5	;RP0=1, select bank3
  3451  01BD  1703               	bsf	3,6	;RP1=1, select bank3
  3452  01BE  00B6               	movwf	(___flmul@temp+1)^(0+384)
  3453  01BF  1683               	bsf	3,5	;RP0=1, select bank1
  3454  01C0  1303               	bcf	3,6	;RP1=0, select bank1
  3455  01C1  0835               	movf	?__Umul8_16^(0+128),w
  3456  01C2  1683               	bsf	3,5	;RP0=1, select bank3
  3457  01C3  1703               	bsf	3,6	;RP1=1, select bank3
  3458  01C4  00B5               	movwf	___flmul@temp^(0+384)
  3459  01C5                     l4388:
  3460  01C5  0835               	movf	___flmul@temp^(0+384),w
  3461  01C6  00A5               	movwf	??___flmul^(0+384)
  3462  01C7  0836               	movf	(___flmul@temp+1)^(0+384),w
  3463  01C8  00A6               	movwf	(??___flmul^(0+384)+1)
  3464  01C9  01A7               	clrf	(??___flmul^(0+384)+2)
  3465  01CA  01A8               	clrf	(??___flmul^(0+384)+3)
  3466  01CB  0825               	movf	??___flmul^(0+384),w
  3467  01CC  07AC               	addwf	___flmul@grs^(0+384),f
  3468  01CD  0826               	movf	(??___flmul+1)^(0+384),w
  3469  01CE  1103               	clrz
  3470  01CF  1803               	skipnc
  3471  01D0  3E01               	addlw	1
  3472  01D1  1903               	skipnz
  3473  01D2  29D4               	goto	u7371
  3474  01D3  07AD               	addwf	(___flmul@grs+1)^(0+384),f
  3475  01D4                     u7371:
  3476  01D4  0827               	movf	(??___flmul+2)^(0+384),w
  3477  01D5  1103               	clrz
  3478  01D6  1803               	skipnc
  3479  01D7  3E01               	addlw	1
  3480  01D8  1903               	skipnz
  3481  01D9  29DB               	goto	u7372
  3482  01DA  07AE               	addwf	(___flmul@grs+2)^(0+384),f
  3483  01DB                     u7372:
  3484  01DB  0828               	movf	(??___flmul+3)^(0+384),w
  3485  01DC  1103               	clrz
  3486  01DD  1803               	skipnc
  3487  01DE  3E01               	addlw	1
  3488  01DF  1903               	skipnz
  3489  01E0  29E2               	goto	u7373
  3490  01E1  07AF               	addwf	(___flmul@grs+3)^(0+384),f
  3491  01E2                     u7373:
  3492  01E2                     l4390:
  3493  01E2  3008               	movlw	8
  3494  01E3  00A5               	movwf	??___flmul^(0+384)
  3495  01E4                     u7385:
  3496  01E4  1003               	clrc
  3497  01E5  0DAC               	rlf	___flmul@grs^(0+384),f
  3498  01E6  0DAD               	rlf	(___flmul@grs+1)^(0+384),f
  3499  01E7  0DAE               	rlf	(___flmul@grs+2)^(0+384),f
  3500  01E8  0DAF               	rlf	(___flmul@grs+3)^(0+384),f
  3501  01E9  0BA5               	decfsz	??___flmul^(0+384),f
  3502  01EA  29E4               	goto	u7385
  3503  01EB  081D               	movf	___flmul@b^(0+384),w
  3504  01EC  00A5               	movwf	??___flmul^(0+384)
  3505  01ED  0825               	movf	??___flmul^(0+384),w
  3506  01EE  1683               	bsf	3,5	;RP0=1, select bank1
  3507  01EF  1303               	bcf	3,6	;RP1=0, select bank1
  3508  01F0  00B5               	movwf	__Umul8_16@multiplicand^(0+128)
  3509  01F1  1683               	bsf	3,5	;RP0=1, select bank3
  3510  01F2  1703               	bsf	3,6	;RP1=1, select bank3
  3511  01F3  0821               	movf	___flmul@a^(0+384),w
  3512  01F4  160A  118A  202A  120A  118A  	fcall	__Umul8_16
  3513  01F9  1683               	bsf	3,5	;RP0=1, select bank1
  3514  01FA  1303               	bcf	3,6	;RP1=0, select bank1
  3515  01FB  0836               	movf	(?__Umul8_16+1)^(0+128),w
  3516  01FC  1683               	bsf	3,5	;RP0=1, select bank3
  3517  01FD  1703               	bsf	3,6	;RP1=1, select bank3
  3518  01FE  00B6               	movwf	(___flmul@temp+1)^(0+384)
  3519  01FF  1683               	bsf	3,5	;RP0=1, select bank1
  3520  0200  1303               	bcf	3,6	;RP1=0, select bank1
  3521  0201  0835               	movf	?__Umul8_16^(0+128),w
  3522  0202  1683               	bsf	3,5	;RP0=1, select bank3
  3523  0203  1703               	bsf	3,6	;RP1=1, select bank3
  3524  0204  00B5               	movwf	___flmul@temp^(0+384)
  3525  0205                     l4392:
  3526  0205  0835               	movf	___flmul@temp^(0+384),w
  3527  0206  00A5               	movwf	??___flmul^(0+384)
  3528  0207  0836               	movf	(___flmul@temp+1)^(0+384),w
  3529  0208  00A6               	movwf	(??___flmul^(0+384)+1)
  3530  0209  01A7               	clrf	(??___flmul^(0+384)+2)
  3531  020A  01A8               	clrf	(??___flmul^(0+384)+3)
  3532  020B  0825               	movf	??___flmul^(0+384),w
  3533  020C  07AC               	addwf	___flmul@grs^(0+384),f
  3534  020D  0826               	movf	(??___flmul+1)^(0+384),w
  3535  020E  1103               	clrz
  3536  020F  1803               	skipnc
  3537  0210  3E01               	addlw	1
  3538  0211  1903               	skipnz
  3539  0212  2A14               	goto	u7391
  3540  0213  07AD               	addwf	(___flmul@grs+1)^(0+384),f
  3541  0214                     u7391:
  3542  0214  0827               	movf	(??___flmul+2)^(0+384),w
  3543  0215  1103               	clrz
  3544  0216  1803               	skipnc
  3545  0217  3E01               	addlw	1
  3546  0218  1903               	skipnz
  3547  0219  2A1B               	goto	u7392
  3548  021A  07AE               	addwf	(___flmul@grs+2)^(0+384),f
  3549  021B                     u7392:
  3550  021B  0828               	movf	(??___flmul+3)^(0+384),w
  3551  021C  1103               	clrz
  3552  021D  1803               	skipnc
  3553  021E  3E01               	addlw	1
  3554  021F  1903               	skipnz
  3555  0220  2A22               	goto	u7393
  3556  0221  07AF               	addwf	(___flmul@grs+3)^(0+384),f
  3557  0222                     u7393:
  3558  0222                     l4394:
  3559  0222  081E               	movf	(___flmul@b^(0+384)+1),w
  3560  0223  00A5               	movwf	??___flmul^(0+384)
  3561  0224  0825               	movf	??___flmul^(0+384),w
  3562  0225  1683               	bsf	3,5	;RP0=1, select bank1
  3563  0226  1303               	bcf	3,6	;RP1=0, select bank1
  3564  0227  00B5               	movwf	__Umul8_16@multiplicand^(0+128)
  3565  0228  1683               	bsf	3,5	;RP0=1, select bank3
  3566  0229  1703               	bsf	3,6	;RP1=1, select bank3
  3567  022A  0823               	movf	(___flmul@a^(0+384)+2),w
  3568  022B  160A  118A  202A  120A  118A  	fcall	__Umul8_16
  3569  0230  1683               	bsf	3,5	;RP0=1, select bank1
  3570  0231  1303               	bcf	3,6	;RP1=0, select bank1
  3571  0232  0836               	movf	(?__Umul8_16+1)^(0+128),w
  3572  0233  1683               	bsf	3,5	;RP0=1, select bank3
  3573  0234  1703               	bsf	3,6	;RP1=1, select bank3
  3574  0235  00B6               	movwf	(___flmul@temp+1)^(0+384)
  3575  0236  1683               	bsf	3,5	;RP0=1, select bank1
  3576  0237  1303               	bcf	3,6	;RP1=0, select bank1
  3577  0238  0835               	movf	?__Umul8_16^(0+128),w
  3578  0239  1683               	bsf	3,5	;RP0=1, select bank3
  3579  023A  1703               	bsf	3,6	;RP1=1, select bank3
  3580  023B  00B5               	movwf	___flmul@temp^(0+384)
  3581  023C  0835               	movf	___flmul@temp^(0+384),w
  3582  023D  00A5               	movwf	??___flmul^(0+384)
  3583  023E  0836               	movf	(___flmul@temp+1)^(0+384),w
  3584  023F  00A6               	movwf	(??___flmul^(0+384)+1)
  3585  0240  01A7               	clrf	(??___flmul^(0+384)+2)
  3586  0241  01A8               	clrf	(??___flmul^(0+384)+3)
  3587  0242  0825               	movf	??___flmul^(0+384),w
  3588  0243  07B1               	addwf	___flmul@prod^(0+384),f
  3589  0244  0826               	movf	(??___flmul+1)^(0+384),w
  3590  0245  1103               	clrz
  3591  0246  1803               	skipnc
  3592  0247  3E01               	addlw	1
  3593  0248  1903               	skipnz
  3594  0249  2A4B               	goto	u7401
  3595  024A  07B2               	addwf	(___flmul@prod+1)^(0+384),f
  3596  024B                     u7401:
  3597  024B  0827               	movf	(??___flmul+2)^(0+384),w
  3598  024C  1103               	clrz
  3599  024D  1803               	skipnc
  3600  024E  3E01               	addlw	1
  3601  024F  1903               	skipnz
  3602  0250  2A52               	goto	u7402
  3603  0251  07B3               	addwf	(___flmul@prod+2)^(0+384),f
  3604  0252                     u7402:
  3605  0252  0828               	movf	(??___flmul+3)^(0+384),w
  3606  0253  1103               	clrz
  3607  0254  1803               	skipnc
  3608  0255  3E01               	addlw	1
  3609  0256  1903               	skipnz
  3610  0257  2A59               	goto	u7403
  3611  0258  07B4               	addwf	(___flmul@prod+3)^(0+384),f
  3612  0259                     u7403:
  3613  0259                     l4396:
  3614  0259  081F               	movf	(___flmul@b^(0+384)+2),w
  3615  025A  00A5               	movwf	??___flmul^(0+384)
  3616  025B  0825               	movf	??___flmul^(0+384),w
  3617  025C  1683               	bsf	3,5	;RP0=1, select bank1
  3618  025D  1303               	bcf	3,6	;RP1=0, select bank1
  3619  025E  00B5               	movwf	__Umul8_16@multiplicand^(0+128)
  3620  025F  1683               	bsf	3,5	;RP0=1, select bank3
  3621  0260  1703               	bsf	3,6	;RP1=1, select bank3
  3622  0261  0822               	movf	(___flmul@a^(0+384)+1),w
  3623  0262  160A  118A  202A  120A  118A  	fcall	__Umul8_16
  3624  0267  1683               	bsf	3,5	;RP0=1, select bank1
  3625  0268  1303               	bcf	3,6	;RP1=0, select bank1
  3626  0269  0836               	movf	(?__Umul8_16+1)^(0+128),w
  3627  026A  1683               	bsf	3,5	;RP0=1, select bank3
  3628  026B  1703               	bsf	3,6	;RP1=1, select bank3
  3629  026C  00B6               	movwf	(___flmul@temp+1)^(0+384)
  3630  026D  1683               	bsf	3,5	;RP0=1, select bank1
  3631  026E  1303               	bcf	3,6	;RP1=0, select bank1
  3632  026F  0835               	movf	?__Umul8_16^(0+128),w
  3633  0270  1683               	bsf	3,5	;RP0=1, select bank3
  3634  0271  1703               	bsf	3,6	;RP1=1, select bank3
  3635  0272  00B5               	movwf	___flmul@temp^(0+384)
  3636  0273                     l4398:
  3637  0273  0835               	movf	___flmul@temp^(0+384),w
  3638  0274  00A5               	movwf	??___flmul^(0+384)
  3639  0275  0836               	movf	(___flmul@temp+1)^(0+384),w
  3640  0276  00A6               	movwf	(??___flmul^(0+384)+1)
  3641  0277  01A7               	clrf	(??___flmul^(0+384)+2)
  3642  0278  01A8               	clrf	(??___flmul^(0+384)+3)
  3643  0279  0825               	movf	??___flmul^(0+384),w
  3644  027A  07B1               	addwf	___flmul@prod^(0+384),f
  3645  027B  0826               	movf	(??___flmul+1)^(0+384),w
  3646  027C  1103               	clrz
  3647  027D  1803               	skipnc
  3648  027E  3E01               	addlw	1
  3649  027F  1903               	skipnz
  3650  0280  2A82               	goto	u7411
  3651  0281  07B2               	addwf	(___flmul@prod+1)^(0+384),f
  3652  0282                     u7411:
  3653  0282  0827               	movf	(??___flmul+2)^(0+384),w
  3654  0283  1103               	clrz
  3655  0284  1803               	skipnc
  3656  0285  3E01               	addlw	1
  3657  0286  1903               	skipnz
  3658  0287  2A89               	goto	u7412
  3659  0288  07B3               	addwf	(___flmul@prod+2)^(0+384),f
  3660  0289                     u7412:
  3661  0289  0828               	movf	(??___flmul+3)^(0+384),w
  3662  028A  1103               	clrz
  3663  028B  1803               	skipnc
  3664  028C  3E01               	addlw	1
  3665  028D  1903               	skipnz
  3666  028E  2A90               	goto	u7413
  3667  028F  07B4               	addwf	(___flmul@prod+3)^(0+384),f
  3668  0290                     u7413:
  3669  0290  081F               	movf	(___flmul@b^(0+384)+2),w
  3670  0291  00A5               	movwf	??___flmul^(0+384)
  3671  0292  0825               	movf	??___flmul^(0+384),w
  3672  0293  1683               	bsf	3,5	;RP0=1, select bank1
  3673  0294  1303               	bcf	3,6	;RP1=0, select bank1
  3674  0295  00B5               	movwf	__Umul8_16@multiplicand^(0+128)
  3675  0296  1683               	bsf	3,5	;RP0=1, select bank3
  3676  0297  1703               	bsf	3,6	;RP1=1, select bank3
  3677  0298  0823               	movf	(___flmul@a^(0+384)+2),w
  3678  0299  160A  118A  202A  120A  118A  	fcall	__Umul8_16
  3679  029E  1683               	bsf	3,5	;RP0=1, select bank1
  3680  029F  1303               	bcf	3,6	;RP1=0, select bank1
  3681  02A0  0836               	movf	(?__Umul8_16+1)^(0+128),w
  3682  02A1  1683               	bsf	3,5	;RP0=1, select bank3
  3683  02A2  1703               	bsf	3,6	;RP1=1, select bank3
  3684  02A3  00B6               	movwf	(___flmul@temp+1)^(0+384)
  3685  02A4  1683               	bsf	3,5	;RP0=1, select bank1
  3686  02A5  1303               	bcf	3,6	;RP1=0, select bank1
  3687  02A6  0835               	movf	?__Umul8_16^(0+128),w
  3688  02A7  1683               	bsf	3,5	;RP0=1, select bank3
  3689  02A8  1703               	bsf	3,6	;RP1=1, select bank3
  3690  02A9  00B5               	movwf	___flmul@temp^(0+384)
  3691  02AA                     l4400:
  3692  02AA  0835               	movf	___flmul@temp^(0+384),w
  3693  02AB  00A5               	movwf	??___flmul^(0+384)
  3694  02AC  0836               	movf	(___flmul@temp+1)^(0+384),w
  3695  02AD  00A6               	movwf	(??___flmul^(0+384)+1)
  3696  02AE  01A7               	clrf	(??___flmul^(0+384)+2)
  3697  02AF  01A8               	clrf	(??___flmul^(0+384)+3)
  3698  02B0  3008               	movlw	8
  3699  02B1                     u7425:
  3700  02B1  1003               	clrc
  3701  02B2  0DA5               	rlf	??___flmul^(0+384),f
  3702  02B3  0DA6               	rlf	(??___flmul^(0+384)+1),f
  3703  02B4  0DA7               	rlf	(??___flmul^(0+384)+2),f
  3704  02B5  0DA8               	rlf	(??___flmul^(0+384)+3),f
  3705  02B6                     u7420:
  3706  02B6  3EFF               	addlw	-1
  3707  02B7  1D03               	skipz
  3708  02B8  2AB1               	goto	u7425
  3709  02B9  0825               	movf	??___flmul^(0+384),w
  3710  02BA  07B1               	addwf	___flmul@prod^(0+384),f
  3711  02BB  0826               	movf	(??___flmul+1)^(0+384),w
  3712  02BC  1103               	clrz
  3713  02BD  1803               	skipnc
  3714  02BE  3E01               	addlw	1
  3715  02BF  1903               	skipnz
  3716  02C0  2AC2               	goto	u7431
  3717  02C1  07B2               	addwf	(___flmul@prod+1)^(0+384),f
  3718  02C2                     u7431:
  3719  02C2  0827               	movf	(??___flmul+2)^(0+384),w
  3720  02C3  1103               	clrz
  3721  02C4  1803               	skipnc
  3722  02C5  3E01               	addlw	1
  3723  02C6  1903               	skipnz
  3724  02C7  2AC9               	goto	u7432
  3725  02C8  07B3               	addwf	(___flmul@prod+2)^(0+384),f
  3726  02C9                     u7432:
  3727  02C9  0828               	movf	(??___flmul+3)^(0+384),w
  3728  02CA  1103               	clrz
  3729  02CB  1803               	skipnc
  3730  02CC  3E01               	addlw	1
  3731  02CD  1903               	skipnz
  3732  02CE  2AD0               	goto	u7433
  3733  02CF  07B4               	addwf	(___flmul@prod+3)^(0+384),f
  3734  02D0                     u7433:
  3735  02D0                     l4402:
  3736  02D0  082C               	movf	___flmul@grs^(0+384),w
  3737  02D1  00A5               	movwf	??___flmul^(0+384)
  3738  02D2  082D               	movf	(___flmul@grs+1)^(0+384),w
  3739  02D3  00A6               	movwf	(??___flmul^(0+384)+1)
  3740  02D4  082E               	movf	(___flmul@grs+2)^(0+384),w
  3741  02D5  00A7               	movwf	(??___flmul^(0+384)+2)
  3742  02D6  082F               	movf	(___flmul@grs+3)^(0+384),w
  3743  02D7  00A8               	movwf	(??___flmul^(0+384)+3)
  3744  02D8  3018               	movlw	24
  3745  02D9                     u7445:
  3746  02D9  1003               	clrc
  3747  02DA  0CA8               	rrf	(??___flmul^(0+384)+3),f
  3748  02DB  0CA7               	rrf	(??___flmul^(0+384)+2),f
  3749  02DC  0CA6               	rrf	(??___flmul^(0+384)+1),f
  3750  02DD  0CA5               	rrf	??___flmul^(0+384),f
  3751  02DE                     u7440:
  3752  02DE  3EFF               	addlw	-1
  3753  02DF  1D03               	skipz
  3754  02E0  2AD9               	goto	u7445
  3755  02E1  0825               	movf	??___flmul^(0+384),w
  3756  02E2  07B1               	addwf	___flmul@prod^(0+384),f
  3757  02E3  0826               	movf	(??___flmul+1)^(0+384),w
  3758  02E4  1103               	clrz
  3759  02E5  1803               	skipnc
  3760  02E6  3E01               	addlw	1
  3761  02E7  1903               	skipnz
  3762  02E8  2AEA               	goto	u7451
  3763  02E9  07B2               	addwf	(___flmul@prod+1)^(0+384),f
  3764  02EA                     u7451:
  3765  02EA  0827               	movf	(??___flmul+2)^(0+384),w
  3766  02EB  1103               	clrz
  3767  02EC  1803               	skipnc
  3768  02ED  3E01               	addlw	1
  3769  02EE  1903               	skipnz
  3770  02EF  2AF1               	goto	u7452
  3771  02F0  07B3               	addwf	(___flmul@prod+2)^(0+384),f
  3772  02F1                     u7452:
  3773  02F1  0828               	movf	(??___flmul+3)^(0+384),w
  3774  02F2  1103               	clrz
  3775  02F3  1803               	skipnc
  3776  02F4  3E01               	addlw	1
  3777  02F5  1903               	skipnz
  3778  02F6  2AF8               	goto	u7453
  3779  02F7  07B4               	addwf	(___flmul@prod+3)^(0+384),f
  3780  02F8                     u7453:
  3781  02F8                     l4404:
  3782  02F8  3008               	movlw	8
  3783  02F9  00A5               	movwf	??___flmul^(0+384)
  3784  02FA                     u7465:
  3785  02FA  1003               	clrc
  3786  02FB  0DAC               	rlf	___flmul@grs^(0+384),f
  3787  02FC  0DAD               	rlf	(___flmul@grs+1)^(0+384),f
  3788  02FD  0DAE               	rlf	(___flmul@grs+2)^(0+384),f
  3789  02FE  0DAF               	rlf	(___flmul@grs+3)^(0+384),f
  3790  02FF  0BA5               	decfsz	??___flmul^(0+384),f
  3791  0300  2AFA               	goto	u7465
  3792  0301                     l4406:
  3793  0301  0830               	movf	___flmul@bexp^(0+384),w
  3794  0302  072B               	addwf	___flmul@aexp^(0+384),w
  3795  0303  00A5               	movwf	??___flmul^(0+384)
  3796  0304  01A6               	clrf	(??___flmul^(0+384)+1)
  3797  0305  0DA6               	rlf	(??___flmul+1)^(0+384),f
  3798  0306  0825               	movf	??___flmul^(0+384),w
  3799  0307  3E82               	addlw	130
  3800  0308  00B5               	movwf	___flmul@temp^(0+384)
  3801  0309  0826               	movf	(??___flmul+1)^(0+384),w
  3802  030A  1803               	skipnc
  3803  030B  3E01               	addlw	1
  3804  030C  3EFF               	addlw	255
  3805  030D  00B6               	movwf	(___flmul@temp+1)^(0+384)
  3806  030E  2B2C               	goto	l4418
  3807  030F                     l4408:
  3808  030F  3001               	movlw	1
  3809  0310  00A5               	movwf	??___flmul^(0+384)
  3810  0311                     u7475:
  3811  0311  1003               	clrc
  3812  0312  0DB1               	rlf	___flmul@prod^(0+384),f
  3813  0313  0DB2               	rlf	(___flmul@prod+1)^(0+384),f
  3814  0314  0DB3               	rlf	(___flmul@prod+2)^(0+384),f
  3815  0315  0DB4               	rlf	(___flmul@prod+3)^(0+384),f
  3816  0316  0BA5               	decfsz	??___flmul^(0+384),f
  3817  0317  2B11               	goto	u7475
  3818  0318                     l4410:
  3819  0318  1FAF               	btfss	(___flmul@grs+3)^(0+384),7
  3820  0319  2B1B               	goto	u7481
  3821  031A  2B1C               	goto	u7480
  3822  031B                     u7481:
  3823  031B  2B1D               	goto	l4414
  3824  031C                     u7480:
  3825  031C                     l4412:
  3826  031C  1431               	bsf	___flmul@prod^(0+384),0
  3827  031D                     l4414:
  3828  031D  3001               	movlw	1
  3829  031E  00A5               	movwf	??___flmul^(0+384)
  3830  031F                     u7495:
  3831  031F  1003               	clrc
  3832  0320  0DAC               	rlf	___flmul@grs^(0+384),f
  3833  0321  0DAD               	rlf	(___flmul@grs+1)^(0+384),f
  3834  0322  0DAE               	rlf	(___flmul@grs+2)^(0+384),f
  3835  0323  0DAF               	rlf	(___flmul@grs+3)^(0+384),f
  3836  0324  0BA5               	decfsz	??___flmul^(0+384),f
  3837  0325  2B1F               	goto	u7495
  3838  0326                     l4416:
  3839  0326  30FF               	movlw	255
  3840  0327  07B5               	addwf	___flmul@temp^(0+384),f
  3841  0328  1803               	skipnc
  3842  0329  0AB6               	incf	(___flmul@temp+1)^(0+384),f
  3843  032A  30FF               	movlw	255
  3844  032B  07B6               	addwf	(___flmul@temp+1)^(0+384),f
  3845  032C                     l4418:
  3846  032C  1FB3               	btfss	(___flmul@prod+2)^(0+384),7
  3847  032D  2B2F               	goto	u7501
  3848  032E  2B30               	goto	u7500
  3849  032F                     u7501:
  3850  032F  2B0F               	goto	l4408
  3851  0330                     u7500:
  3852  0330                     l4420:
  3853  0330  01AB               	clrf	___flmul@aexp^(0+384)
  3854  0331                     l4422:
  3855  0331  1FAF               	btfss	(___flmul@grs+3)^(0+384),7
  3856  0332  2B34               	goto	u7511
  3857  0333  2B35               	goto	u7510
  3858  0334                     u7511:
  3859  0334  2B51               	goto	l4430
  3860  0335                     u7510:
  3861  0335                     l4424:
  3862  0335  30FF               	movlw	255
  3863  0336  052C               	andwf	___flmul@grs^(0+384),w
  3864  0337  00A5               	movwf	??___flmul^(0+384)
  3865  0338  30FF               	movlw	255
  3866  0339  052D               	andwf	(___flmul@grs+1)^(0+384),w
  3867  033A  00A6               	movwf	(??___flmul^(0+384)+1)
  3868  033B  30FF               	movlw	255
  3869  033C  052E               	andwf	(___flmul@grs+2)^(0+384),w
  3870  033D  00A7               	movwf	(??___flmul^(0+384)+2)
  3871  033E  307F               	movlw	127
  3872  033F  052F               	andwf	(___flmul@grs+3)^(0+384),w
  3873  0340  00A8               	movwf	(??___flmul^(0+384)+3)
  3874  0341  0828               	movf	(??___flmul+3)^(0+384),w
  3875  0342  0427               	iorwf	(??___flmul+2)^(0+384),w
  3876  0343  0426               	iorwf	(??___flmul+1)^(0+384),w
  3877  0344  0425               	iorwf	??___flmul^(0+384),w
  3878  0345  1903               	skipnz
  3879  0346  2B48               	goto	u7521
  3880  0347  2B49               	goto	u7520
  3881  0348                     u7521:
  3882  0348  2B4C               	goto	l685
  3883  0349                     u7520:
  3884  0349                     l4426:
  3885  0349  01AB               	clrf	___flmul@aexp^(0+384)
  3886  034A  0AAB               	incf	___flmul@aexp^(0+384),f
  3887  034B  2B51               	goto	l4430
  3888  034C                     l685:
  3889  034C  1C31               	btfss	___flmul@prod^(0+384),0
  3890  034D  2B4F               	goto	u7531
  3891  034E  2B50               	goto	u7530
  3892  034F                     u7531:
  3893  034F  2B51               	goto	l4430
  3894  0350                     u7530:
  3895  0350  2B49               	goto	l4426
  3896  0351                     l4430:
  3897  0351  082B               	movf	___flmul@aexp^(0+384),w
  3898  0352  1903               	btfsc	3,2
  3899  0353  2B55               	goto	u7541
  3900  0354  2B56               	goto	u7540
  3901  0355                     u7541:
  3902  0355  2B87               	goto	l4440
  3903  0356                     u7540:
  3904  0356                     l4432:
  3905  0356  3001               	movlw	1
  3906  0357  07B1               	addwf	___flmul@prod^(0+384),f
  3907  0358  3000               	movlw	0
  3908  0359  1803               	skipnc
  3909  035A  3001               	movlw	1
  3910  035B  07B2               	addwf	(___flmul@prod+1)^(0+384),f
  3911  035C  3000               	movlw	0
  3912  035D  1803               	skipnc
  3913  035E  3001               	movlw	1
  3914  035F  07B3               	addwf	(___flmul@prod+2)^(0+384),f
  3915  0360  3000               	movlw	0
  3916  0361  1803               	skipnc
  3917  0362  3001               	movlw	1
  3918  0363  07B4               	addwf	(___flmul@prod+3)^(0+384),f
  3919  0364                     l4434:
  3920  0364  1C34               	btfss	(___flmul@prod+3)^(0+384),0
  3921  0365  2B67               	goto	u7551
  3922  0366  2B68               	goto	u7550
  3923  0367                     u7551:
  3924  0367  2B87               	goto	l4440
  3925  0368                     u7550:
  3926  0368                     l4436:
  3927  0368  0831               	movf	___flmul@prod^(0+384),w
  3928  0369  00A5               	movwf	??___flmul^(0+384)
  3929  036A  0832               	movf	(___flmul@prod+1)^(0+384),w
  3930  036B  00A6               	movwf	(??___flmul^(0+384)+1)
  3931  036C  0833               	movf	(___flmul@prod+2)^(0+384),w
  3932  036D  00A7               	movwf	(??___flmul^(0+384)+2)
  3933  036E  0834               	movf	(___flmul@prod+3)^(0+384),w
  3934  036F  00A8               	movwf	(??___flmul^(0+384)+3)
  3935  0370  3001               	movlw	1
  3936  0371  00A9               	movwf	(??___flmul+4)^(0+384)
  3937  0372                     u7565:
  3938  0372  0D28               	rlf	(??___flmul^(0+384)+3),w
  3939  0373  0CA8               	rrf	(??___flmul^(0+384)+3),f
  3940  0374  0CA7               	rrf	(??___flmul^(0+384)+2),f
  3941  0375  0CA6               	rrf	(??___flmul^(0+384)+1),f
  3942  0376  0CA5               	rrf	??___flmul^(0+384),f
  3943  0377                     u7560:
  3944  0377  0BA9               	decfsz	(??___flmul+4)^(0+384),f
  3945  0378  2B72               	goto	u7565
  3946  0379  0828               	movf	(??___flmul+3)^(0+384),w
  3947  037A  00B4               	movwf	(___flmul@prod+3)^(0+384)
  3948  037B  0827               	movf	(??___flmul+2)^(0+384),w
  3949  037C  00B3               	movwf	(___flmul@prod+2)^(0+384)
  3950  037D  0826               	movf	(??___flmul+1)^(0+384),w
  3951  037E  00B2               	movwf	(___flmul@prod+1)^(0+384)
  3952  037F  0825               	movf	??___flmul^(0+384),w
  3953  0380  00B1               	movwf	___flmul@prod^(0+384)
  3954  0381                     l4438:
  3955  0381  3001               	movlw	1
  3956  0382  07B5               	addwf	___flmul@temp^(0+384),f
  3957  0383  1803               	skipnc
  3958  0384  0AB6               	incf	(___flmul@temp+1)^(0+384),f
  3959  0385  3000               	movlw	0
  3960  0386  07B6               	addwf	(___flmul@temp+1)^(0+384),f
  3961  0387                     l4440:
  3962  0387  0836               	movf	(___flmul@temp+1)^(0+384),w
  3963  0388  3A80               	xorlw	128
  3964  0389  00FF               	movwf	btemp+1
  3965  038A  3080               	movlw	128
  3966  038B  027F               	subwf	btemp+1,w
  3967  038C  1D03               	skipz
  3968  038D  2B90               	goto	u7575
  3969  038E  30FF               	movlw	255
  3970  038F  0235               	subwf	___flmul@temp^(0+384),w
  3971  0390                     u7575:
  3972  0390  1C03               	skipc
  3973  0391  2B93               	goto	u7571
  3974  0392  2B94               	goto	u7570
  3975  0393                     u7571:
  3976  0393  2B9F               	goto	l4444
  3977  0394                     u7570:
  3978  0394                     l4442:
  3979  0394  307F               	movlw	127
  3980  0395  1683               	bsf	3,5	;RP0=1, select bank3
  3981  0396  1703               	bsf	3,6	;RP1=1, select bank3
  3982  0397  00B4               	movwf	(___flmul@prod+3)^(0+384)
  3983  0398  3080               	movlw	128
  3984  0399  00B3               	movwf	(___flmul@prod+2)^(0+384)
  3985  039A  3000               	movlw	0
  3986  039B  00B2               	movwf	(___flmul@prod+1)^(0+384)
  3987  039C  3000               	movlw	0
  3988  039D  00B1               	movwf	___flmul@prod^(0+384)
  3989  039E  2BD4               	goto	l691
  3990  039F                     l4444:
  3991  039F  1683               	bsf	3,5	;RP0=1, select bank3
  3992  03A0  1703               	bsf	3,6	;RP1=1, select bank3
  3993  03A1  0836               	movf	(___flmul@temp+1)^(0+384),w
  3994  03A2  3A80               	xorlw	128
  3995  03A3  00FF               	movwf	btemp+1
  3996  03A4  3080               	movlw	128
  3997  03A5  027F               	subwf	btemp+1,w
  3998  03A6  1D03               	skipz
  3999  03A7  2BAA               	goto	u7585
  4000  03A8  3001               	movlw	1
  4001  03A9  0235               	subwf	___flmul@temp^(0+384),w
  4002  03AA                     u7585:
  4003  03AA  1803               	skipnc
  4004  03AB  2BAD               	goto	u7581
  4005  03AC  2BAE               	goto	u7580
  4006  03AD                     u7581:
  4007  03AD  2BBA               	goto	l4450
  4008  03AE                     u7580:
  4009  03AE                     l4446:
  4010  03AE  3000               	movlw	0
  4011  03AF  1683               	bsf	3,5	;RP0=1, select bank3
  4012  03B0  1703               	bsf	3,6	;RP1=1, select bank3
  4013  03B1  00B4               	movwf	(___flmul@prod+3)^(0+384)
  4014  03B2  3000               	movlw	0
  4015  03B3  00B3               	movwf	(___flmul@prod+2)^(0+384)
  4016  03B4  3000               	movlw	0
  4017  03B5  00B2               	movwf	(___flmul@prod+1)^(0+384)
  4018  03B6  3000               	movlw	0
  4019  03B7  00B1               	movwf	___flmul@prod^(0+384)
  4020  03B8                     l4448:
  4021  03B8  01AA               	clrf	___flmul@sign^(0+384)
  4022  03B9  2BD4               	goto	l691
  4023  03BA                     l4450:
  4024  03BA  1683               	bsf	3,5	;RP0=1, select bank3
  4025  03BB  1703               	bsf	3,6	;RP1=1, select bank3
  4026  03BC  0835               	movf	___flmul@temp^(0+384),w
  4027  03BD  00A5               	movwf	??___flmul^(0+384)
  4028  03BE  0825               	movf	??___flmul^(0+384),w
  4029  03BF  00B0               	movwf	___flmul@bexp^(0+384)
  4030  03C0  30FF               	movlw	255
  4031  03C1  05B1               	andwf	___flmul@prod^(0+384),f
  4032  03C2  30FF               	movlw	255
  4033  03C3  05B2               	andwf	(___flmul@prod+1)^(0+384),f
  4034  03C4  307F               	movlw	127
  4035  03C5  05B3               	andwf	(___flmul@prod+2)^(0+384),f
  4036  03C6  3000               	movlw	0
  4037  03C7  05B4               	andwf	(___flmul@prod+3)^(0+384),f
  4038  03C8                     l4452:
  4039  03C8  1C30               	btfss	___flmul@bexp^(0+384),0
  4040  03C9  2BCB               	goto	u7591
  4041  03CA  2BCC               	goto	u7590
  4042  03CB                     u7591:
  4043  03CB  2BCD               	goto	l4456
  4044  03CC                     u7590:
  4045  03CC                     l4454:
  4046  03CC  17B3               	bsf	(___flmul@prod^(0+384)+2),7
  4047  03CD                     l4456:
  4048  03CD  0830               	movf	___flmul@bexp^(0+384),w
  4049  03CE  00A5               	movwf	??___flmul^(0+384)
  4050  03CF  1003               	clrc
  4051  03D0  0C25               	rrf	??___flmul^(0+384),w
  4052  03D1  00A6               	movwf	(??___flmul+1)^(0+384)
  4053  03D2  0826               	movf	(??___flmul+1)^(0+384),w
  4054  03D3  00B4               	movwf	(___flmul@prod^(0+384)+3)
  4055  03D4                     l691:
  4056  03D4  082A               	movf	___flmul@sign^(0+384),w
  4057  03D5  00A5               	movwf	??___flmul^(0+384)
  4058  03D6  0825               	movf	??___flmul^(0+384),w
  4059  03D7  04B4               	iorwf	(___flmul@prod^(0+384)+3),f
  4060  03D8                     l4458:
  4061  03D8  0834               	movf	(___flmul@prod+3)^(0+384),w
  4062  03D9  00A0               	movwf	(?___flmul+3)^(0+384)
  4063  03DA  0833               	movf	(___flmul@prod+2)^(0+384),w
  4064  03DB  009F               	movwf	(?___flmul+2)^(0+384)
  4065  03DC  0832               	movf	(___flmul@prod+1)^(0+384),w
  4066  03DD  009E               	movwf	(?___flmul+1)^(0+384)
  4067  03DE  0831               	movf	___flmul@prod^(0+384),w
  4068  03DF  009D               	movwf	?___flmul^(0+384)
  4069  03E0                     l679:
  4070  03E0  0008               	return
  4071  03E1                     __end_of___flmul:
  4072                           
  4073                           	psect	text9
  4074  102A                     __ptext9:	
  4075 ;; *************** function __Umul8_16 *****************
  4076 ;; Defined at:
  4077 ;;		line 4 in file "C:\Program Files\Microchip\xc8\v2.35\pic\sources\c90\common\Umul8_16.c"
  4078 ;; Parameters:    Size  Location     Type
  4079 ;;  multiplier      1    wreg     unsigned char 
  4080 ;;  multiplicand    1   21[BANK1 ] unsigned char 
  4081 ;; Auto vars:     Size  Location     Type
  4082 ;;  multiplier      1   29[BANK1 ] unsigned char 
  4083 ;;  word_mpld       2   27[BANK1 ] unsigned int 
  4084 ;;  product         2   25[BANK1 ] unsigned int 
  4085 ;; Return value:  Size  Location     Type
  4086 ;;                  2   21[BANK1 ] unsigned int 
  4087 ;; Registers used:
  4088 ;;		wreg, status,2, status,0
  4089 ;; Tracked objects:
  4090 ;;		On entry : 0/0
  4091 ;;		On exit  : 0/0
  4092 ;;		Unchanged: 0/0
  4093 ;; Data sizes:     COMMON   BANK0   BANK1   BANK3   BANK2
  4094 ;;      Params:         0       0       2       0       0
  4095 ;;      Locals:         0       0       5       0       0
  4096 ;;      Temps:          0       0       2       0       0
  4097 ;;      Totals:         0       0       9       0       0
  4098 ;;Total ram usage:        9 bytes
  4099 ;; Hardware stack levels used: 1
  4100 ;; Hardware stack levels required when called: 5
  4101 ;; This function calls:
  4102 ;;		Nothing
  4103 ;; This function is called by:
  4104 ;;		___flmul
  4105 ;; This function uses a non-reentrant model
  4106 ;;
  4107                           
  4108  102A                     __Umul8_16:	
  4109                           ;psect for function __Umul8_16
  4110                           
  4111                           
  4112                           ;incstack = 0
  4113 ;; hardware stack exceeded
  4114                           ; Regs used in __Umul8_16: [wreg+status,2+status,0]
  4115                           ;__Umul8_16@multiplier stored from wreg
  4116  102A  1683               	bsf	3,5	;RP0=1, select bank1
  4117  102B  1303               	bcf	3,6	;RP1=0, select bank1
  4118  102C  00BD               	movwf	__Umul8_16@multiplier^(0+128)
  4119  102D                     l3936:
  4120  102D  01B9               	clrf	__Umul8_16@product^(0+128)
  4121  102E  01BA               	clrf	(__Umul8_16@product+1)^(0+128)
  4122  102F                     l3938:
  4123  102F  0835               	movf	__Umul8_16@multiplicand^(0+128),w
  4124  1030  00B7               	movwf	??__Umul8_16^(0+128)
  4125  1031  01B8               	clrf	(??__Umul8_16^(0+128)+1)
  4126  1032  0837               	movf	??__Umul8_16^(0+128),w
  4127  1033  00BB               	movwf	__Umul8_16@word_mpld^(0+128)
  4128  1034  0838               	movf	(??__Umul8_16+1)^(0+128),w
  4129  1035  00BC               	movwf	(__Umul8_16@word_mpld+1)^(0+128)
  4130  1036                     l3940:
  4131  1036  1C3D               	btfss	__Umul8_16@multiplier^(0+128),0
  4132  1037  2839               	goto	u6341
  4133  1038  283A               	goto	u6340
  4134  1039                     u6341:
  4135  1039  2840               	goto	l698
  4136  103A                     u6340:
  4137  103A                     l3942:
  4138  103A  083B               	movf	__Umul8_16@word_mpld^(0+128),w
  4139  103B  07B9               	addwf	__Umul8_16@product^(0+128),f
  4140  103C  1803               	skipnc
  4141  103D  0ABA               	incf	(__Umul8_16@product+1)^(0+128),f
  4142  103E  083C               	movf	(__Umul8_16@word_mpld+1)^(0+128),w
  4143  103F  07BA               	addwf	(__Umul8_16@product+1)^(0+128),f
  4144  1040                     l698:
  4145  1040  3001               	movlw	1
  4146  1041                     u6355:
  4147  1041  1003               	clrc
  4148  1042  0DBB               	rlf	__Umul8_16@word_mpld^(0+128),f
  4149  1043  0DBC               	rlf	(__Umul8_16@word_mpld+1)^(0+128),f
  4150  1044  3EFF               	addlw	-1
  4151  1045  1D03               	skipz
  4152  1046  2841               	goto	u6355
  4153  1047  1003               	clrc
  4154  1048  0CBD               	rrf	__Umul8_16@multiplier^(0+128),f
  4155  1049                     l3944:
  4156  1049  083D               	movf	__Umul8_16@multiplier^(0+128),w
  4157  104A  1D03               	btfss	3,2
  4158  104B  284D               	goto	u6361
  4159  104C  284E               	goto	u6360
  4160  104D                     u6361:
  4161  104D  2836               	goto	l3940
  4162  104E                     u6360:
  4163  104E                     l3946:
  4164  104E  083A               	movf	(__Umul8_16@product+1)^(0+128),w
  4165  104F  00B6               	movwf	(?__Umul8_16+1)^(0+128)
  4166  1050  0839               	movf	__Umul8_16@product^(0+128),w
  4167  1051  00B5               	movwf	?__Umul8_16^(0+128)
  4168  1052                     l700:
  4169  1052  0008               	return
  4170  1053                     __end_of__Umul8_16:
  4171                           
  4172                           	psect	text10
  4173  0AA8                     __ptext10:	
  4174 ;; *************** function ___fldiv *****************
  4175 ;; Defined at:
  4176 ;;		line 8 in file "C:\Program Files\Microchip\xc8\v2.35\pic\sources\c90\common\sprcdiv.c"
  4177 ;; Parameters:    Size  Location     Type
  4178 ;;  a               4   35[BANK1 ] unsigned int 
  4179 ;;  b               4   39[BANK1 ] unsigned int 
  4180 ;; Auto vars:     Size  Location     Type
  4181 ;;  grs             4    7[BANK3 ] unsigned long 
  4182 ;;  rem             4    0[BANK3 ] unsigned long 
  4183 ;;  new_exp         2    5[BANK3 ] int 
  4184 ;;  aexp            1   12[BANK3 ] unsigned char 
  4185 ;;  bexp            1   11[BANK3 ] unsigned char 
  4186 ;;  sign            1    4[BANK3 ] unsigned char 
  4187 ;; Return value:  Size  Location     Type
  4188 ;;                  4   35[BANK1 ] unsigned char 
  4189 ;; Registers used:
  4190 ;;		wreg, status,2, status,0, btemp+1
  4191 ;; Tracked objects:
  4192 ;;		On entry : 0/0
  4193 ;;		On exit  : 0/0
  4194 ;;		Unchanged: 0/0
  4195 ;; Data sizes:     COMMON   BANK0   BANK1   BANK3   BANK2
  4196 ;;      Params:         0       0       8       0       0
  4197 ;;      Locals:         0       0       0      13       0
  4198 ;;      Temps:          0       0       5       0       0
  4199 ;;      Totals:         0       0      13      13       0
  4200 ;;Total ram usage:       26 bytes
  4201 ;; Hardware stack levels used: 1
  4202 ;; Hardware stack levels required when called: 5
  4203 ;; This function calls:
  4204 ;;		Nothing
  4205 ;; This function is called by:
  4206 ;;		_interpole
  4207 ;; This function uses a non-reentrant model
  4208 ;;
  4209                           
  4210  0AA8                     ___fldiv:	
  4211                           ;psect for function ___fldiv
  4212                           
  4213  0AA8                     l4180:	
  4214                           ;incstack = 0
  4215                           ; Regs used in ___fldiv: [wreg+status,2+status,0+btemp+1]
  4216                           
  4217  0AA8  1683               	bsf	3,5	;RP0=1, select bank1
  4218  0AA9  1303               	bcf	3,6	;RP1=0, select bank1
  4219  0AAA  084A               	movf	(___fldiv@b^(0+128)+3),w
  4220  0AAB  3980               	andlw	128
  4221  0AAC  00CB               	movwf	??___fldiv^(0+128)
  4222  0AAD  084B               	movf	??___fldiv^(0+128),w
  4223  0AAE  1683               	bsf	3,5	;RP0=1, select bank3
  4224  0AAF  1703               	bsf	3,6	;RP1=1, select bank3
  4225  0AB0  0094               	movwf	___fldiv@sign^(0+384)
  4226  0AB1                     l4182:
  4227  0AB1  1683               	bsf	3,5	;RP0=1, select bank1
  4228  0AB2  1303               	bcf	3,6	;RP1=0, select bank1
  4229  0AB3  084A               	movf	(___fldiv@b^(0+128)+3),w
  4230  0AB4  00CB               	movwf	??___fldiv^(0+128)
  4231  0AB5  074B               	addwf	??___fldiv^(0+128),w
  4232  0AB6  00CC               	movwf	(??___fldiv+1)^(0+128)
  4233  0AB7  084C               	movf	(??___fldiv+1)^(0+128),w
  4234  0AB8  1683               	bsf	3,5	;RP0=1, select bank3
  4235  0AB9  1703               	bsf	3,6	;RP1=1, select bank3
  4236  0ABA  009B               	movwf	___fldiv@bexp^(0+384)
  4237  0ABB                     l4184:
  4238  0ABB  1683               	bsf	3,5	;RP0=1, select bank1
  4239  0ABC  1303               	bcf	3,6	;RP1=0, select bank1
  4240  0ABD  1FC9               	btfss	(___fldiv@b^(0+128)+2),7
  4241  0ABE  2AC0               	goto	u6931
  4242  0ABF  2AC1               	goto	u6930
  4243  0AC0                     u6931:
  4244  0AC0  2AC4               	goto	l4188
  4245  0AC1                     u6930:
  4246  0AC1                     l4186:
  4247  0AC1  1683               	bsf	3,5	;RP0=1, select bank3
  4248  0AC2  1703               	bsf	3,6	;RP1=1, select bank3
  4249  0AC3  141B               	bsf	___fldiv@bexp^(0+384),0
  4250  0AC4                     l4188:
  4251  0AC4  1683               	bsf	3,5	;RP0=1, select bank3
  4252  0AC5  1703               	bsf	3,6	;RP1=1, select bank3
  4253  0AC6  081B               	movf	___fldiv@bexp^(0+384),w
  4254  0AC7  1903               	btfsc	3,2
  4255  0AC8  2ACA               	goto	u6941
  4256  0AC9  2ACB               	goto	u6940
  4257  0ACA                     u6941:
  4258  0ACA  2ADE               	goto	l4198
  4259  0ACB                     u6940:
  4260  0ACB                     l4190:
  4261  0ACB  0A1B               	incf	___fldiv@bexp^(0+384),w
  4262  0ACC  1D03               	btfss	3,2
  4263  0ACD  2ACF               	goto	u6951
  4264  0ACE  2AD0               	goto	u6950
  4265  0ACF                     u6951:
  4266  0ACF  2ADA               	goto	l4194
  4267  0AD0                     u6950:
  4268  0AD0                     l4192:
  4269  0AD0  3000               	movlw	0
  4270  0AD1  1683               	bsf	3,5	;RP0=1, select bank1
  4271  0AD2  1303               	bcf	3,6	;RP1=0, select bank1
  4272  0AD3  00CA               	movwf	(___fldiv@b+3)^(0+128)
  4273  0AD4  3000               	movlw	0
  4274  0AD5  00C9               	movwf	(___fldiv@b+2)^(0+128)
  4275  0AD6  3000               	movlw	0
  4276  0AD7  00C8               	movwf	(___fldiv@b+1)^(0+128)
  4277  0AD8  3000               	movlw	0
  4278  0AD9  00C7               	movwf	___fldiv@b^(0+128)
  4279  0ADA                     l4194:
  4280  0ADA  1303               	bcf	3,6	;RP1=0, select bank1
  4281  0ADB  17C9               	bsf	(___fldiv@b^(0+128)+2),7
  4282  0ADC                     l4196:
  4283  0ADC  01CA               	clrf	(___fldiv@b^(0+128)+3)
  4284  0ADD  2AE8               	goto	l4200
  4285  0ADE                     l4198:
  4286  0ADE  3000               	movlw	0
  4287  0ADF  1683               	bsf	3,5	;RP0=1, select bank1
  4288  0AE0  1303               	bcf	3,6	;RP1=0, select bank1
  4289  0AE1  00CA               	movwf	(___fldiv@b+3)^(0+128)
  4290  0AE2  3000               	movlw	0
  4291  0AE3  00C9               	movwf	(___fldiv@b+2)^(0+128)
  4292  0AE4  3000               	movlw	0
  4293  0AE5  00C8               	movwf	(___fldiv@b+1)^(0+128)
  4294  0AE6  3000               	movlw	0
  4295  0AE7  00C7               	movwf	___fldiv@b^(0+128)
  4296  0AE8                     l4200:
  4297  0AE8  0846               	movf	(___fldiv@a^(0+128)+3),w
  4298  0AE9  3980               	andlw	128
  4299  0AEA  00CB               	movwf	??___fldiv^(0+128)
  4300  0AEB  084B               	movf	??___fldiv^(0+128),w
  4301  0AEC  1683               	bsf	3,5	;RP0=1, select bank3
  4302  0AED  1703               	bsf	3,6	;RP1=1, select bank3
  4303  0AEE  0694               	xorwf	___fldiv@sign^(0+384),f
  4304  0AEF                     l4202:
  4305  0AEF  1683               	bsf	3,5	;RP0=1, select bank1
  4306  0AF0  1303               	bcf	3,6	;RP1=0, select bank1
  4307  0AF1  0846               	movf	(___fldiv@a^(0+128)+3),w
  4308  0AF2  00CB               	movwf	??___fldiv^(0+128)
  4309  0AF3  074B               	addwf	??___fldiv^(0+128),w
  4310  0AF4  00CC               	movwf	(??___fldiv+1)^(0+128)
  4311  0AF5  084C               	movf	(??___fldiv+1)^(0+128),w
  4312  0AF6  1683               	bsf	3,5	;RP0=1, select bank3
  4313  0AF7  1703               	bsf	3,6	;RP1=1, select bank3
  4314  0AF8  009C               	movwf	___fldiv@aexp^(0+384)
  4315  0AF9                     l4204:
  4316  0AF9  1683               	bsf	3,5	;RP0=1, select bank1
  4317  0AFA  1303               	bcf	3,6	;RP1=0, select bank1
  4318  0AFB  1FC5               	btfss	(___fldiv@a^(0+128)+2),7
  4319  0AFC  2AFE               	goto	u6961
  4320  0AFD  2AFF               	goto	u6960
  4321  0AFE                     u6961:
  4322  0AFE  2B02               	goto	l4208
  4323  0AFF                     u6960:
  4324  0AFF                     l4206:
  4325  0AFF  1683               	bsf	3,5	;RP0=1, select bank3
  4326  0B00  1703               	bsf	3,6	;RP1=1, select bank3
  4327  0B01  141C               	bsf	___fldiv@aexp^(0+384),0
  4328  0B02                     l4208:
  4329  0B02  1683               	bsf	3,5	;RP0=1, select bank3
  4330  0B03  1703               	bsf	3,6	;RP1=1, select bank3
  4331  0B04  081C               	movf	___fldiv@aexp^(0+384),w
  4332  0B05  1903               	btfsc	3,2
  4333  0B06  2B08               	goto	u6971
  4334  0B07  2B09               	goto	u6970
  4335  0B08                     u6971:
  4336  0B08  2B1C               	goto	l4218
  4337  0B09                     u6970:
  4338  0B09                     l4210:
  4339  0B09  0A1C               	incf	___fldiv@aexp^(0+384),w
  4340  0B0A  1D03               	btfss	3,2
  4341  0B0B  2B0D               	goto	u6981
  4342  0B0C  2B0E               	goto	u6980
  4343  0B0D                     u6981:
  4344  0B0D  2B18               	goto	l4214
  4345  0B0E                     u6980:
  4346  0B0E                     l4212:
  4347  0B0E  3000               	movlw	0
  4348  0B0F  1683               	bsf	3,5	;RP0=1, select bank1
  4349  0B10  1303               	bcf	3,6	;RP1=0, select bank1
  4350  0B11  00C6               	movwf	(___fldiv@a+3)^(0+128)
  4351  0B12  3000               	movlw	0
  4352  0B13  00C5               	movwf	(___fldiv@a+2)^(0+128)
  4353  0B14  3000               	movlw	0
  4354  0B15  00C4               	movwf	(___fldiv@a+1)^(0+128)
  4355  0B16  3000               	movlw	0
  4356  0B17  00C3               	movwf	___fldiv@a^(0+128)
  4357  0B18                     l4214:
  4358  0B18  1303               	bcf	3,6	;RP1=0, select bank1
  4359  0B19  17C5               	bsf	(___fldiv@a^(0+128)+2),7
  4360  0B1A                     l4216:
  4361  0B1A  01C6               	clrf	(___fldiv@a^(0+128)+3)
  4362  0B1B  2B26               	goto	l639
  4363  0B1C                     l4218:
  4364  0B1C  3000               	movlw	0
  4365  0B1D  1683               	bsf	3,5	;RP0=1, select bank1
  4366  0B1E  1303               	bcf	3,6	;RP1=0, select bank1
  4367  0B1F  00C6               	movwf	(___fldiv@a+3)^(0+128)
  4368  0B20  3000               	movlw	0
  4369  0B21  00C5               	movwf	(___fldiv@a+2)^(0+128)
  4370  0B22  3000               	movlw	0
  4371  0B23  00C4               	movwf	(___fldiv@a+1)^(0+128)
  4372  0B24  3000               	movlw	0
  4373  0B25  00C3               	movwf	___fldiv@a^(0+128)
  4374  0B26                     l639:
  4375  0B26  0846               	movf	(___fldiv@a+3)^(0+128),w
  4376  0B27  0445               	iorwf	(___fldiv@a+2)^(0+128),w
  4377  0B28  0444               	iorwf	(___fldiv@a+1)^(0+128),w
  4378  0B29  0443               	iorwf	___fldiv@a^(0+128),w
  4379  0B2A  1D03               	skipz
  4380  0B2B  2B2D               	goto	u6991
  4381  0B2C  2B2E               	goto	u6990
  4382  0B2D                     u6991:
  4383  0B2D  2B4B               	goto	l4228
  4384  0B2E                     u6990:
  4385  0B2E                     l4220:
  4386  0B2E  3000               	movlw	0
  4387  0B2F  00CA               	movwf	(___fldiv@b+3)^(0+128)
  4388  0B30  3000               	movlw	0
  4389  0B31  00C9               	movwf	(___fldiv@b+2)^(0+128)
  4390  0B32  3000               	movlw	0
  4391  0B33  00C8               	movwf	(___fldiv@b+1)^(0+128)
  4392  0B34  3000               	movlw	0
  4393  0B35  00C7               	movwf	___fldiv@b^(0+128)
  4394  0B36  3080               	movlw	128
  4395  0B37  04C9               	iorwf	(___fldiv@b^(0+128)+2),f
  4396  0B38  307F               	movlw	127
  4397  0B39  04CA               	iorwf	((___fldiv@b+1)^(0+128)+2),f
  4398  0B3A                     l4222:
  4399  0B3A  1683               	bsf	3,5	;RP0=1, select bank3
  4400  0B3B  1703               	bsf	3,6	;RP1=1, select bank3
  4401  0B3C  0814               	movf	___fldiv@sign^(0+384),w
  4402  0B3D  1683               	bsf	3,5	;RP0=1, select bank1
  4403  0B3E  1303               	bcf	3,6	;RP1=0, select bank1
  4404  0B3F  00CB               	movwf	??___fldiv^(0+128)
  4405  0B40  084B               	movf	??___fldiv^(0+128),w
  4406  0B41  04CA               	iorwf	(___fldiv@b^(0+128)+3),f
  4407  0B42                     l4224:
  4408  0B42  084A               	movf	(___fldiv@b+3)^(0+128),w
  4409  0B43  00C6               	movwf	(?___fldiv+3)^(0+128)
  4410  0B44  0849               	movf	(___fldiv@b+2)^(0+128),w
  4411  0B45  00C5               	movwf	(?___fldiv+2)^(0+128)
  4412  0B46  0848               	movf	(___fldiv@b+1)^(0+128),w
  4413  0B47  00C4               	movwf	(?___fldiv+1)^(0+128)
  4414  0B48  0847               	movf	___fldiv@b^(0+128),w
  4415  0B49  00C3               	movwf	?___fldiv^(0+128)
  4416  0B4A  2D47               	goto	l641
  4417  0B4B                     l4228:
  4418  0B4B  1683               	bsf	3,5	;RP0=1, select bank3
  4419  0B4C  1703               	bsf	3,6	;RP1=1, select bank3
  4420  0B4D  081B               	movf	___fldiv@bexp^(0+384),w
  4421  0B4E  1D03               	btfss	3,2
  4422  0B4F  2B51               	goto	u7001
  4423  0B50  2B52               	goto	u7000
  4424  0B51                     u7001:
  4425  0B51  2B5D               	goto	l4234
  4426  0B52                     u7000:
  4427  0B52                     l4230:
  4428  0B52  3000               	movlw	0
  4429  0B53  1683               	bsf	3,5	;RP0=1, select bank1
  4430  0B54  1303               	bcf	3,6	;RP1=0, select bank1
  4431  0B55  00C6               	movwf	(?___fldiv+3)^(0+128)
  4432  0B56  3000               	movlw	0
  4433  0B57  00C5               	movwf	(?___fldiv+2)^(0+128)
  4434  0B58  3000               	movlw	0
  4435  0B59  00C4               	movwf	(?___fldiv+1)^(0+128)
  4436  0B5A  3000               	movlw	0
  4437  0B5B  00C3               	movwf	?___fldiv^(0+128)
  4438  0B5C  2D47               	goto	l641
  4439  0B5D                     l4234:
  4440  0B5D  081B               	movf	___fldiv@bexp^(0+384),w
  4441  0B5E  1683               	bsf	3,5	;RP0=1, select bank1
  4442  0B5F  1303               	bcf	3,6	;RP1=0, select bank1
  4443  0B60  00CB               	movwf	??___fldiv^(0+128)
  4444  0B61  01CC               	clrf	(??___fldiv^(0+128)+1)
  4445  0B62  084C               	movf	(??___fldiv+1)^(0+128),w
  4446  0B63  00CE               	movwf	((??___fldiv+2)^(0+128)+1)
  4447  0B64  1683               	bsf	3,5	;RP0=1, select bank3
  4448  0B65  1703               	bsf	3,6	;RP1=1, select bank3
  4449  0B66  081C               	movf	___fldiv@aexp^(0+384),w
  4450  0B67  1683               	bsf	3,5	;RP0=1, select bank1
  4451  0B68  1303               	bcf	3,6	;RP1=0, select bank1
  4452  0B69  024B               	subwf	??___fldiv^(0+128),w
  4453  0B6A  00CD               	movwf	(??___fldiv+2)^(0+128)
  4454  0B6B  1C03               	skipc
  4455  0B6C  03CE               	decf	((??___fldiv+2)^(0+128)+1),f
  4456  0B6D  084D               	movf	(??___fldiv+2)^(0+128),w
  4457  0B6E  3E7F               	addlw	127
  4458  0B6F  1683               	bsf	3,5	;RP0=1, select bank3
  4459  0B70  1703               	bsf	3,6	;RP1=1, select bank3
  4460  0B71  0095               	movwf	___fldiv@new_exp^(0+384)
  4461  0B72  1683               	bsf	3,5	;RP0=1, select bank1
  4462  0B73  1303               	bcf	3,6	;RP1=0, select bank1
  4463  0B74  084E               	movf	(??___fldiv+3)^(0+128),w
  4464  0B75  1803               	skipnc
  4465  0B76  3E01               	addlw	1
  4466  0B77  3E00               	addlw	0
  4467  0B78  1683               	bsf	3,5	;RP0=1, select bank3
  4468  0B79  1703               	bsf	3,6	;RP1=1, select bank3
  4469  0B7A  0096               	movwf	(___fldiv@new_exp+1)^(0+384)
  4470  0B7B                     l4236:
  4471  0B7B  1683               	bsf	3,5	;RP0=1, select bank1
  4472  0B7C  1303               	bcf	3,6	;RP1=0, select bank1
  4473  0B7D  084A               	movf	(___fldiv@b+3)^(0+128),w
  4474  0B7E  1683               	bsf	3,5	;RP0=1, select bank3
  4475  0B7F  1703               	bsf	3,6	;RP1=1, select bank3
  4476  0B80  0093               	movwf	(___fldiv@rem+3)^(0+384)
  4477  0B81  1683               	bsf	3,5	;RP0=1, select bank1
  4478  0B82  1303               	bcf	3,6	;RP1=0, select bank1
  4479  0B83  0849               	movf	(___fldiv@b+2)^(0+128),w
  4480  0B84  1683               	bsf	3,5	;RP0=1, select bank3
  4481  0B85  1703               	bsf	3,6	;RP1=1, select bank3
  4482  0B86  0092               	movwf	(___fldiv@rem+2)^(0+384)
  4483  0B87  1683               	bsf	3,5	;RP0=1, select bank1
  4484  0B88  1303               	bcf	3,6	;RP1=0, select bank1
  4485  0B89  0848               	movf	(___fldiv@b+1)^(0+128),w
  4486  0B8A  1683               	bsf	3,5	;RP0=1, select bank3
  4487  0B8B  1703               	bsf	3,6	;RP1=1, select bank3
  4488  0B8C  0091               	movwf	(___fldiv@rem+1)^(0+384)
  4489  0B8D  1683               	bsf	3,5	;RP0=1, select bank1
  4490  0B8E  1303               	bcf	3,6	;RP1=0, select bank1
  4491  0B8F  0847               	movf	___fldiv@b^(0+128),w
  4492  0B90  1683               	bsf	3,5	;RP0=1, select bank3
  4493  0B91  1703               	bsf	3,6	;RP1=1, select bank3
  4494  0B92  0090               	movwf	___fldiv@rem^(0+384)
  4495  0B93                     l4238:
  4496  0B93  3000               	movlw	0
  4497  0B94  1683               	bsf	3,5	;RP0=1, select bank1
  4498  0B95  1303               	bcf	3,6	;RP1=0, select bank1
  4499  0B96  00CA               	movwf	(___fldiv@b+3)^(0+128)
  4500  0B97  3000               	movlw	0
  4501  0B98  00C9               	movwf	(___fldiv@b+2)^(0+128)
  4502  0B99  3000               	movlw	0
  4503  0B9A  00C8               	movwf	(___fldiv@b+1)^(0+128)
  4504  0B9B  3000               	movlw	0
  4505  0B9C  00C7               	movwf	___fldiv@b^(0+128)
  4506  0B9D                     l4240:
  4507  0B9D  3000               	movlw	0
  4508  0B9E  1683               	bsf	3,5	;RP0=1, select bank3
  4509  0B9F  1703               	bsf	3,6	;RP1=1, select bank3
  4510  0BA0  009A               	movwf	(___fldiv@grs+3)^(0+384)
  4511  0BA1  3000               	movlw	0
  4512  0BA2  0099               	movwf	(___fldiv@grs+2)^(0+384)
  4513  0BA3  3000               	movlw	0
  4514  0BA4  0098               	movwf	(___fldiv@grs+1)^(0+384)
  4515  0BA5  3000               	movlw	0
  4516  0BA6  0097               	movwf	___fldiv@grs^(0+384)
  4517  0BA7                     l4242:
  4518  0BA7  019C               	clrf	___fldiv@aexp^(0+384)
  4519  0BA8  2C2F               	goto	l4262
  4520  0BA9                     l4244:
  4521  0BA9  081C               	movf	___fldiv@aexp^(0+384),w
  4522  0BAA  1903               	btfsc	3,2
  4523  0BAB  2BAD               	goto	u7011
  4524  0BAC  2BAE               	goto	u7010
  4525  0BAD                     u7011:
  4526  0BAD  2BDD               	goto	l4254
  4527  0BAE                     u7010:
  4528  0BAE                     l4246:
  4529  0BAE  3001               	movlw	1
  4530  0BAF  1683               	bsf	3,5	;RP0=1, select bank1
  4531  0BB0  1303               	bcf	3,6	;RP1=0, select bank1
  4532  0BB1  00CB               	movwf	??___fldiv^(0+128)
  4533  0BB2                     u7025:
  4534  0BB2  1003               	clrc
  4535  0BB3  1683               	bsf	3,5	;RP0=1, select bank3
  4536  0BB4  1703               	bsf	3,6	;RP1=1, select bank3
  4537  0BB5  0D90               	rlf	___fldiv@rem^(0+384),f
  4538  0BB6  0D91               	rlf	(___fldiv@rem+1)^(0+384),f
  4539  0BB7  0D92               	rlf	(___fldiv@rem+2)^(0+384),f
  4540  0BB8  0D93               	rlf	(___fldiv@rem+3)^(0+384),f
  4541  0BB9  1683               	bsf	3,5	;RP0=1, select bank1
  4542  0BBA  1303               	bcf	3,6	;RP1=0, select bank1
  4543  0BBB  0BCB               	decfsz	??___fldiv^(0+128),f
  4544  0BBC  2BB2               	goto	u7025
  4545  0BBD  3001               	movlw	1
  4546  0BBE  00CB               	movwf	??___fldiv^(0+128)
  4547  0BBF                     u7035:
  4548  0BBF  1003               	clrc
  4549  0BC0  0DC7               	rlf	___fldiv@b^(0+128),f
  4550  0BC1  0DC8               	rlf	(___fldiv@b+1)^(0+128),f
  4551  0BC2  0DC9               	rlf	(___fldiv@b+2)^(0+128),f
  4552  0BC3  0DCA               	rlf	(___fldiv@b+3)^(0+128),f
  4553  0BC4  0BCB               	decfsz	??___fldiv^(0+128),f
  4554  0BC5  2BBF               	goto	u7035
  4555  0BC6                     l4248:
  4556  0BC6  1683               	bsf	3,5	;RP0=1, select bank3
  4557  0BC7  1703               	bsf	3,6	;RP1=1, select bank3
  4558  0BC8  1F9A               	btfss	(___fldiv@grs+3)^(0+384),7
  4559  0BC9  2BCB               	goto	u7041
  4560  0BCA  2BCC               	goto	u7040
  4561  0BCB                     u7041:
  4562  0BCB  2BCF               	goto	l4252
  4563  0BCC                     u7040:
  4564  0BCC                     l4250:
  4565  0BCC  1683               	bsf	3,5	;RP0=1, select bank1
  4566  0BCD  1303               	bcf	3,6	;RP1=0, select bank1
  4567  0BCE  1447               	bsf	___fldiv@b^(0+128),0
  4568  0BCF                     l4252:
  4569  0BCF  3001               	movlw	1
  4570  0BD0  1303               	bcf	3,6	;RP1=0, select bank1
  4571  0BD1  00CB               	movwf	??___fldiv^(0+128)
  4572  0BD2                     u7055:
  4573  0BD2  1003               	clrc
  4574  0BD3  1683               	bsf	3,5	;RP0=1, select bank3
  4575  0BD4  1703               	bsf	3,6	;RP1=1, select bank3
  4576  0BD5  0D97               	rlf	___fldiv@grs^(0+384),f
  4577  0BD6  0D98               	rlf	(___fldiv@grs+1)^(0+384),f
  4578  0BD7  0D99               	rlf	(___fldiv@grs+2)^(0+384),f
  4579  0BD8  0D9A               	rlf	(___fldiv@grs+3)^(0+384),f
  4580  0BD9  1683               	bsf	3,5	;RP0=1, select bank1
  4581  0BDA  1303               	bcf	3,6	;RP1=0, select bank1
  4582  0BDB  0BCB               	decfsz	??___fldiv^(0+128),f
  4583  0BDC  2BD2               	goto	u7055
  4584  0BDD                     l4254:
  4585  0BDD  1303               	bcf	3,6	;RP1=0, select bank1
  4586  0BDE  0846               	movf	(___fldiv@a+3)^(0+128),w
  4587  0BDF  1683               	bsf	3,5	;RP0=1, select bank3
  4588  0BE0  1703               	bsf	3,6	;RP1=1, select bank3
  4589  0BE1  0213               	subwf	(___fldiv@rem+3)^(0+384),w
  4590  0BE2  1D03               	skipz
  4591  0BE3  2BFA               	goto	u7065
  4592  0BE4  1683               	bsf	3,5	;RP0=1, select bank1
  4593  0BE5  1303               	bcf	3,6	;RP1=0, select bank1
  4594  0BE6  0845               	movf	(___fldiv@a+2)^(0+128),w
  4595  0BE7  1683               	bsf	3,5	;RP0=1, select bank3
  4596  0BE8  1703               	bsf	3,6	;RP1=1, select bank3
  4597  0BE9  0212               	subwf	(___fldiv@rem+2)^(0+384),w
  4598  0BEA  1D03               	skipz
  4599  0BEB  2BFA               	goto	u7065
  4600  0BEC  1683               	bsf	3,5	;RP0=1, select bank1
  4601  0BED  1303               	bcf	3,6	;RP1=0, select bank1
  4602  0BEE  0844               	movf	(___fldiv@a+1)^(0+128),w
  4603  0BEF  1683               	bsf	3,5	;RP0=1, select bank3
  4604  0BF0  1703               	bsf	3,6	;RP1=1, select bank3
  4605  0BF1  0211               	subwf	(___fldiv@rem+1)^(0+384),w
  4606  0BF2  1D03               	skipz
  4607  0BF3  2BFA               	goto	u7065
  4608  0BF4  1683               	bsf	3,5	;RP0=1, select bank1
  4609  0BF5  1303               	bcf	3,6	;RP1=0, select bank1
  4610  0BF6  0843               	movf	___fldiv@a^(0+128),w
  4611  0BF7  1683               	bsf	3,5	;RP0=1, select bank3
  4612  0BF8  1703               	bsf	3,6	;RP1=1, select bank3
  4613  0BF9  0210               	subwf	___fldiv@rem^(0+384),w
  4614  0BFA                     u7065:
  4615  0BFA  1C03               	skipc
  4616  0BFB  2BFD               	goto	u7061
  4617  0BFC  2BFE               	goto	u7060
  4618  0BFD                     u7061:
  4619  0BFD  2C27               	goto	l4260
  4620  0BFE                     u7060:
  4621  0BFE                     l4256:
  4622  0BFE  171A               	bsf	(___fldiv@grs^(0+384)+3),6
  4623  0BFF                     l4258:
  4624  0BFF  1683               	bsf	3,5	;RP0=1, select bank1
  4625  0C00  1303               	bcf	3,6	;RP1=0, select bank1
  4626  0C01  0843               	movf	___fldiv@a^(0+128),w
  4627  0C02  1683               	bsf	3,5	;RP0=1, select bank3
  4628  0C03  1703               	bsf	3,6	;RP1=1, select bank3
  4629  0C04  0290               	subwf	___fldiv@rem^(0+384),f
  4630  0C05  1683               	bsf	3,5	;RP0=1, select bank1
  4631  0C06  1303               	bcf	3,6	;RP1=0, select bank1
  4632  0C07  0844               	movf	(___fldiv@a+1)^(0+128),w
  4633  0C08  1C03               	skipc
  4634  0C09  0F44               	incfsz	(___fldiv@a+1)^(0+128),w
  4635  0C0A  2C0C               	goto	u7075
  4636  0C0B  2C0F               	goto	u7076
  4637  0C0C                     u7075:
  4638  0C0C  1683               	bsf	3,5	;RP0=1, select bank3
  4639  0C0D  1703               	bsf	3,6	;RP1=1, select bank3
  4640  0C0E  0291               	subwf	(___fldiv@rem+1)^(0+384),f
  4641  0C0F                     u7076:
  4642  0C0F  1683               	bsf	3,5	;RP0=1, select bank1
  4643  0C10  1303               	bcf	3,6	;RP1=0, select bank1
  4644  0C11  0845               	movf	(___fldiv@a+2)^(0+128),w
  4645  0C12  1C03               	skipc
  4646  0C13  0F45               	incfsz	(___fldiv@a+2)^(0+128),w
  4647  0C14  2C16               	goto	u7077
  4648  0C15  2C19               	goto	u7078
  4649  0C16                     u7077:
  4650  0C16  1683               	bsf	3,5	;RP0=1, select bank3
  4651  0C17  1703               	bsf	3,6	;RP1=1, select bank3
  4652  0C18  0292               	subwf	(___fldiv@rem+2)^(0+384),f
  4653  0C19                     u7078:
  4654  0C19  1683               	bsf	3,5	;RP0=1, select bank1
  4655  0C1A  1303               	bcf	3,6	;RP1=0, select bank1
  4656  0C1B  0846               	movf	(___fldiv@a+3)^(0+128),w
  4657  0C1C  1C03               	skipc
  4658  0C1D  0F46               	incfsz	(___fldiv@a+3)^(0+128),w
  4659  0C1E  2C20               	goto	u7079
  4660  0C1F  2C23               	goto	u7070
  4661  0C20                     u7079:
  4662  0C20  1683               	bsf	3,5	;RP0=1, select bank3
  4663  0C21  1703               	bsf	3,6	;RP1=1, select bank3
  4664  0C22  0293               	subwf	(___fldiv@rem+3)^(0+384),f
  4665  0C23                     u7070:
  4666  0C23  1683               	bsf	3,5	;RP0=1, select bank1
  4667  0C24  1303               	bcf	3,6	;RP1=0, select bank1
  4668  0C25  1683               	bsf	3,5	;RP0=1, select bank3
  4669  0C26  1703               	bsf	3,6	;RP1=1, select bank3
  4670  0C27                     l4260:
  4671  0C27  3001               	movlw	1
  4672  0C28  1683               	bsf	3,5	;RP0=1, select bank1
  4673  0C29  1303               	bcf	3,6	;RP1=0, select bank1
  4674  0C2A  00CB               	movwf	??___fldiv^(0+128)
  4675  0C2B  084B               	movf	??___fldiv^(0+128),w
  4676  0C2C  1683               	bsf	3,5	;RP0=1, select bank3
  4677  0C2D  1703               	bsf	3,6	;RP1=1, select bank3
  4678  0C2E  079C               	addwf	___fldiv@aexp^(0+384),f
  4679  0C2F                     l4262:
  4680  0C2F  301A               	movlw	26
  4681  0C30  021C               	subwf	___fldiv@aexp^(0+384),w
  4682  0C31  1C03               	skipc
  4683  0C32  2C34               	goto	u7081
  4684  0C33  2C35               	goto	u7080
  4685  0C34                     u7081:
  4686  0C34  2BA9               	goto	l4244
  4687  0C35                     u7080:
  4688  0C35                     l4264:
  4689  0C35  0813               	movf	(___fldiv@rem+3)^(0+384),w
  4690  0C36  0412               	iorwf	(___fldiv@rem+2)^(0+384),w
  4691  0C37  0411               	iorwf	(___fldiv@rem+1)^(0+384),w
  4692  0C38  0410               	iorwf	___fldiv@rem^(0+384),w
  4693  0C39  1903               	skipnz
  4694  0C3A  2C3C               	goto	u7091
  4695  0C3B  2C3D               	goto	u7090
  4696  0C3C                     u7091:
  4697  0C3C  2C67               	goto	l4278
  4698  0C3D                     u7090:
  4699  0C3D                     l4266:
  4700  0C3D  1417               	bsf	___fldiv@grs^(0+384),0
  4701  0C3E  2C67               	goto	l4278
  4702  0C3F                     l4268:
  4703  0C3F  3001               	movlw	1
  4704  0C40  00CB               	movwf	??___fldiv^(0+128)
  4705  0C41                     u7105:
  4706  0C41  1003               	clrc
  4707  0C42  0DC7               	rlf	___fldiv@b^(0+128),f
  4708  0C43  0DC8               	rlf	(___fldiv@b+1)^(0+128),f
  4709  0C44  0DC9               	rlf	(___fldiv@b+2)^(0+128),f
  4710  0C45  0DCA               	rlf	(___fldiv@b+3)^(0+128),f
  4711  0C46  0BCB               	decfsz	??___fldiv^(0+128),f
  4712  0C47  2C41               	goto	u7105
  4713  0C48                     l4270:
  4714  0C48  1683               	bsf	3,5	;RP0=1, select bank3
  4715  0C49  1703               	bsf	3,6	;RP1=1, select bank3
  4716  0C4A  1F9A               	btfss	(___fldiv@grs+3)^(0+384),7
  4717  0C4B  2C4D               	goto	u7111
  4718  0C4C  2C4E               	goto	u7110
  4719  0C4D                     u7111:
  4720  0C4D  2C51               	goto	l4274
  4721  0C4E                     u7110:
  4722  0C4E                     l4272:
  4723  0C4E  1683               	bsf	3,5	;RP0=1, select bank1
  4724  0C4F  1303               	bcf	3,6	;RP1=0, select bank1
  4725  0C50  1447               	bsf	___fldiv@b^(0+128),0
  4726  0C51                     l4274:
  4727  0C51  3001               	movlw	1
  4728  0C52  1303               	bcf	3,6	;RP1=0, select bank1
  4729  0C53  00CB               	movwf	??___fldiv^(0+128)
  4730  0C54                     u7125:
  4731  0C54  1003               	clrc
  4732  0C55  1683               	bsf	3,5	;RP0=1, select bank3
  4733  0C56  1703               	bsf	3,6	;RP1=1, select bank3
  4734  0C57  0D97               	rlf	___fldiv@grs^(0+384),f
  4735  0C58  0D98               	rlf	(___fldiv@grs+1)^(0+384),f
  4736  0C59  0D99               	rlf	(___fldiv@grs+2)^(0+384),f
  4737  0C5A  0D9A               	rlf	(___fldiv@grs+3)^(0+384),f
  4738  0C5B  1683               	bsf	3,5	;RP0=1, select bank1
  4739  0C5C  1303               	bcf	3,6	;RP1=0, select bank1
  4740  0C5D  0BCB               	decfsz	??___fldiv^(0+128),f
  4741  0C5E  2C54               	goto	u7125
  4742  0C5F                     l4276:
  4743  0C5F  30FF               	movlw	255
  4744  0C60  1683               	bsf	3,5	;RP0=1, select bank3
  4745  0C61  1703               	bsf	3,6	;RP1=1, select bank3
  4746  0C62  0795               	addwf	___fldiv@new_exp^(0+384),f
  4747  0C63  1803               	skipnc
  4748  0C64  0A96               	incf	(___fldiv@new_exp+1)^(0+384),f
  4749  0C65  30FF               	movlw	255
  4750  0C66  0796               	addwf	(___fldiv@new_exp+1)^(0+384),f
  4751  0C67                     l4278:
  4752  0C67  1683               	bsf	3,5	;RP0=1, select bank1
  4753  0C68  1303               	bcf	3,6	;RP1=0, select bank1
  4754  0C69  1FC9               	btfss	(___fldiv@b+2)^(0+128),7
  4755  0C6A  2C6C               	goto	u7131
  4756  0C6B  2C6D               	goto	u7130
  4757  0C6C                     u7131:
  4758  0C6C  2C3F               	goto	l4268
  4759  0C6D                     u7130:
  4760  0C6D                     l4280:
  4761  0C6D  1683               	bsf	3,5	;RP0=1, select bank3
  4762  0C6E  1703               	bsf	3,6	;RP1=1, select bank3
  4763  0C6F  019C               	clrf	___fldiv@aexp^(0+384)
  4764  0C70                     l4282:
  4765  0C70  1F9A               	btfss	(___fldiv@grs+3)^(0+384),7
  4766  0C71  2C73               	goto	u7141
  4767  0C72  2C74               	goto	u7140
  4768  0C73                     u7141:
  4769  0C73  2CA0               	goto	l4290
  4770  0C74                     u7140:
  4771  0C74                     l4284:
  4772  0C74  30FF               	movlw	255
  4773  0C75  0517               	andwf	___fldiv@grs^(0+384),w
  4774  0C76  1683               	bsf	3,5	;RP0=1, select bank1
  4775  0C77  1303               	bcf	3,6	;RP1=0, select bank1
  4776  0C78  00CB               	movwf	??___fldiv^(0+128)
  4777  0C79  30FF               	movlw	255
  4778  0C7A  1683               	bsf	3,5	;RP0=1, select bank3
  4779  0C7B  1703               	bsf	3,6	;RP1=1, select bank3
  4780  0C7C  0518               	andwf	(___fldiv@grs+1)^(0+384),w
  4781  0C7D  1683               	bsf	3,5	;RP0=1, select bank1
  4782  0C7E  1303               	bcf	3,6	;RP1=0, select bank1
  4783  0C7F  00CC               	movwf	(??___fldiv^(0+128)+1)
  4784  0C80  30FF               	movlw	255
  4785  0C81  1683               	bsf	3,5	;RP0=1, select bank3
  4786  0C82  1703               	bsf	3,6	;RP1=1, select bank3
  4787  0C83  0519               	andwf	(___fldiv@grs+2)^(0+384),w
  4788  0C84  1683               	bsf	3,5	;RP0=1, select bank1
  4789  0C85  1303               	bcf	3,6	;RP1=0, select bank1
  4790  0C86  00CD               	movwf	(??___fldiv^(0+128)+2)
  4791  0C87  307F               	movlw	127
  4792  0C88  1683               	bsf	3,5	;RP0=1, select bank3
  4793  0C89  1703               	bsf	3,6	;RP1=1, select bank3
  4794  0C8A  051A               	andwf	(___fldiv@grs+3)^(0+384),w
  4795  0C8B  1683               	bsf	3,5	;RP0=1, select bank1
  4796  0C8C  1303               	bcf	3,6	;RP1=0, select bank1
  4797  0C8D  00CE               	movwf	(??___fldiv^(0+128)+3)
  4798  0C8E  084E               	movf	(??___fldiv+3)^(0+128),w
  4799  0C8F  044D               	iorwf	(??___fldiv+2)^(0+128),w
  4800  0C90  044C               	iorwf	(??___fldiv+1)^(0+128),w
  4801  0C91  044B               	iorwf	??___fldiv^(0+128),w
  4802  0C92  1903               	skipnz
  4803  0C93  2C95               	goto	u7151
  4804  0C94  2C96               	goto	u7150
  4805  0C95                     u7151:
  4806  0C95  2C9B               	goto	l655
  4807  0C96                     u7150:
  4808  0C96                     l4286:
  4809  0C96  1683               	bsf	3,5	;RP0=1, select bank3
  4810  0C97  1703               	bsf	3,6	;RP1=1, select bank3
  4811  0C98  019C               	clrf	___fldiv@aexp^(0+384)
  4812  0C99  0A9C               	incf	___fldiv@aexp^(0+384),f
  4813  0C9A  2CA0               	goto	l4290
  4814  0C9B                     l655:
  4815  0C9B  1C47               	btfss	___fldiv@b^(0+128),0
  4816  0C9C  2C9E               	goto	u7161
  4817  0C9D  2C9F               	goto	u7160
  4818  0C9E                     u7161:
  4819  0C9E  2CA0               	goto	l4290
  4820  0C9F                     u7160:
  4821  0C9F  2C96               	goto	l4286
  4822  0CA0                     l4290:
  4823  0CA0  1683               	bsf	3,5	;RP0=1, select bank3
  4824  0CA1  1703               	bsf	3,6	;RP1=1, select bank3
  4825  0CA2  081C               	movf	___fldiv@aexp^(0+384),w
  4826  0CA3  1903               	btfsc	3,2
  4827  0CA4  2CA6               	goto	u7171
  4828  0CA5  2CA7               	goto	u7170
  4829  0CA6                     u7171:
  4830  0CA6  2CDC               	goto	l4300
  4831  0CA7                     u7170:
  4832  0CA7                     l4292:
  4833  0CA7  3001               	movlw	1
  4834  0CA8  1683               	bsf	3,5	;RP0=1, select bank1
  4835  0CA9  1303               	bcf	3,6	;RP1=0, select bank1
  4836  0CAA  07C7               	addwf	___fldiv@b^(0+128),f
  4837  0CAB  3000               	movlw	0
  4838  0CAC  1803               	skipnc
  4839  0CAD  3001               	movlw	1
  4840  0CAE  07C8               	addwf	(___fldiv@b+1)^(0+128),f
  4841  0CAF  3000               	movlw	0
  4842  0CB0  1803               	skipnc
  4843  0CB1  3001               	movlw	1
  4844  0CB2  07C9               	addwf	(___fldiv@b+2)^(0+128),f
  4845  0CB3  3000               	movlw	0
  4846  0CB4  1803               	skipnc
  4847  0CB5  3001               	movlw	1
  4848  0CB6  07CA               	addwf	(___fldiv@b+3)^(0+128),f
  4849  0CB7                     l4294:
  4850  0CB7  1C4A               	btfss	(___fldiv@b+3)^(0+128),0
  4851  0CB8  2CBA               	goto	u7181
  4852  0CB9  2CBB               	goto	u7180
  4853  0CBA                     u7181:
  4854  0CBA  2CDC               	goto	l4300
  4855  0CBB                     u7180:
  4856  0CBB                     l4296:
  4857  0CBB  0847               	movf	___fldiv@b^(0+128),w
  4858  0CBC  00CB               	movwf	??___fldiv^(0+128)
  4859  0CBD  0848               	movf	(___fldiv@b+1)^(0+128),w
  4860  0CBE  00CC               	movwf	(??___fldiv^(0+128)+1)
  4861  0CBF  0849               	movf	(___fldiv@b+2)^(0+128),w
  4862  0CC0  00CD               	movwf	(??___fldiv^(0+128)+2)
  4863  0CC1  084A               	movf	(___fldiv@b+3)^(0+128),w
  4864  0CC2  00CE               	movwf	(??___fldiv^(0+128)+3)
  4865  0CC3  3001               	movlw	1
  4866  0CC4  00CF               	movwf	(??___fldiv+4)^(0+128)
  4867  0CC5                     u7195:
  4868  0CC5  0D4E               	rlf	(??___fldiv^(0+128)+3),w
  4869  0CC6  0CCE               	rrf	(??___fldiv^(0+128)+3),f
  4870  0CC7  0CCD               	rrf	(??___fldiv^(0+128)+2),f
  4871  0CC8  0CCC               	rrf	(??___fldiv^(0+128)+1),f
  4872  0CC9  0CCB               	rrf	??___fldiv^(0+128),f
  4873  0CCA                     u7190:
  4874  0CCA  0BCF               	decfsz	(??___fldiv+4)^(0+128),f
  4875  0CCB  2CC5               	goto	u7195
  4876  0CCC  084E               	movf	(??___fldiv+3)^(0+128),w
  4877  0CCD  00CA               	movwf	(___fldiv@b+3)^(0+128)
  4878  0CCE  084D               	movf	(??___fldiv+2)^(0+128),w
  4879  0CCF  00C9               	movwf	(___fldiv@b+2)^(0+128)
  4880  0CD0  084C               	movf	(??___fldiv+1)^(0+128),w
  4881  0CD1  00C8               	movwf	(___fldiv@b+1)^(0+128)
  4882  0CD2  084B               	movf	??___fldiv^(0+128),w
  4883  0CD3  00C7               	movwf	___fldiv@b^(0+128)
  4884  0CD4                     l4298:
  4885  0CD4  3001               	movlw	1
  4886  0CD5  1683               	bsf	3,5	;RP0=1, select bank3
  4887  0CD6  1703               	bsf	3,6	;RP1=1, select bank3
  4888  0CD7  0795               	addwf	___fldiv@new_exp^(0+384),f
  4889  0CD8  1803               	skipnc
  4890  0CD9  0A96               	incf	(___fldiv@new_exp+1)^(0+384),f
  4891  0CDA  3000               	movlw	0
  4892  0CDB  0796               	addwf	(___fldiv@new_exp+1)^(0+384),f
  4893  0CDC                     l4300:
  4894  0CDC  1683               	bsf	3,5	;RP0=1, select bank3
  4895  0CDD  1703               	bsf	3,6	;RP1=1, select bank3
  4896  0CDE  0816               	movf	(___fldiv@new_exp+1)^(0+384),w
  4897  0CDF  3A80               	xorlw	128
  4898  0CE0  00FF               	movwf	btemp+1
  4899  0CE1  3080               	movlw	128
  4900  0CE2  027F               	subwf	btemp+1,w
  4901  0CE3  1D03               	skipz
  4902  0CE4  2CE7               	goto	u7205
  4903  0CE5  30FF               	movlw	255
  4904  0CE6  0215               	subwf	___fldiv@new_exp^(0+384),w
  4905  0CE7                     u7205:
  4906  0CE7  1C03               	skipc
  4907  0CE8  2CEA               	goto	u7201
  4908  0CE9  2CEB               	goto	u7200
  4909  0CEA                     u7201:
  4910  0CEA  2CFB               	goto	l4304
  4911  0CEB                     u7200:
  4912  0CEB                     l4302:
  4913  0CEB  30FF               	movlw	255
  4914  0CEC  1683               	bsf	3,5	;RP0=1, select bank3
  4915  0CED  1703               	bsf	3,6	;RP1=1, select bank3
  4916  0CEE  0095               	movwf	___fldiv@new_exp^(0+384)
  4917  0CEF  3000               	movlw	0
  4918  0CF0  0096               	movwf	(___fldiv@new_exp^(0+384)+1)
  4919  0CF1  3000               	movlw	0
  4920  0CF2  1683               	bsf	3,5	;RP0=1, select bank1
  4921  0CF3  1303               	bcf	3,6	;RP1=0, select bank1
  4922  0CF4  00CA               	movwf	(___fldiv@b+3)^(0+128)
  4923  0CF5  3000               	movlw	0
  4924  0CF6  00C9               	movwf	(___fldiv@b+2)^(0+128)
  4925  0CF7  3000               	movlw	0
  4926  0CF8  00C8               	movwf	(___fldiv@b+1)^(0+128)
  4927  0CF9  3000               	movlw	0
  4928  0CFA  00C7               	movwf	___fldiv@b^(0+128)
  4929  0CFB                     l4304:
  4930  0CFB  1683               	bsf	3,5	;RP0=1, select bank3
  4931  0CFC  1703               	bsf	3,6	;RP1=1, select bank3
  4932  0CFD  0816               	movf	(___fldiv@new_exp+1)^(0+384),w
  4933  0CFE  3A80               	xorlw	128
  4934  0CFF  00FF               	movwf	btemp+1
  4935  0D00  3080               	movlw	128
  4936  0D01  027F               	subwf	btemp+1,w
  4937  0D02  1D03               	skipz
  4938  0D03  2D06               	goto	u7215
  4939  0D04  3001               	movlw	1
  4940  0D05  0215               	subwf	___fldiv@new_exp^(0+384),w
  4941  0D06                     u7215:
  4942  0D06  1803               	skipnc
  4943  0D07  2D09               	goto	u7211
  4944  0D08  2D0A               	goto	u7210
  4945  0D09                     u7211:
  4946  0D09  2D1B               	goto	l661
  4947  0D0A                     u7210:
  4948  0D0A                     l4306:
  4949  0D0A  1683               	bsf	3,5	;RP0=1, select bank3
  4950  0D0B  1703               	bsf	3,6	;RP1=1, select bank3
  4951  0D0C  0195               	clrf	___fldiv@new_exp^(0+384)
  4952  0D0D  0196               	clrf	(___fldiv@new_exp+1)^(0+384)
  4953  0D0E                     l4308:
  4954  0D0E  3000               	movlw	0
  4955  0D0F  1683               	bsf	3,5	;RP0=1, select bank1
  4956  0D10  1303               	bcf	3,6	;RP1=0, select bank1
  4957  0D11  00CA               	movwf	(___fldiv@b+3)^(0+128)
  4958  0D12  3000               	movlw	0
  4959  0D13  00C9               	movwf	(___fldiv@b+2)^(0+128)
  4960  0D14  3000               	movlw	0
  4961  0D15  00C8               	movwf	(___fldiv@b+1)^(0+128)
  4962  0D16  3000               	movlw	0
  4963  0D17  00C7               	movwf	___fldiv@b^(0+128)
  4964  0D18                     l4310:
  4965  0D18  1683               	bsf	3,5	;RP0=1, select bank3
  4966  0D19  1703               	bsf	3,6	;RP1=1, select bank3
  4967  0D1A  0194               	clrf	___fldiv@sign^(0+384)
  4968  0D1B                     l661:
  4969  0D1B  1683               	bsf	3,5	;RP0=1, select bank3
  4970  0D1C  1703               	bsf	3,6	;RP1=1, select bank3
  4971  0D1D  0815               	movf	___fldiv@new_exp^(0+384),w
  4972  0D1E  1683               	bsf	3,5	;RP0=1, select bank1
  4973  0D1F  1303               	bcf	3,6	;RP1=0, select bank1
  4974  0D20  00CB               	movwf	??___fldiv^(0+128)
  4975  0D21  084B               	movf	??___fldiv^(0+128),w
  4976  0D22  1683               	bsf	3,5	;RP0=1, select bank3
  4977  0D23  1703               	bsf	3,6	;RP1=1, select bank3
  4978  0D24  009B               	movwf	___fldiv@bexp^(0+384)
  4979  0D25                     l4312:
  4980  0D25  1C1B               	btfss	___fldiv@bexp^(0+384),0
  4981  0D26  2D28               	goto	u7221
  4982  0D27  2D29               	goto	u7220
  4983  0D28                     u7221:
  4984  0D28  2D2D               	goto	l4316
  4985  0D29                     u7220:
  4986  0D29                     l4314:
  4987  0D29  1683               	bsf	3,5	;RP0=1, select bank1
  4988  0D2A  1303               	bcf	3,6	;RP1=0, select bank1
  4989  0D2B  17C9               	bsf	(___fldiv@b^(0+128)+2),7
  4990  0D2C  2D33               	goto	l663
  4991  0D2D                     l4316:
  4992  0D2D  307F               	movlw	127
  4993  0D2E  1683               	bsf	3,5	;RP0=1, select bank1
  4994  0D2F  1303               	bcf	3,6	;RP1=0, select bank1
  4995  0D30  00CB               	movwf	??___fldiv^(0+128)
  4996  0D31  084B               	movf	??___fldiv^(0+128),w
  4997  0D32  05C9               	andwf	(___fldiv@b^(0+128)+2),f
  4998  0D33                     l663:
  4999  0D33  1683               	bsf	3,5	;RP0=1, select bank3
  5000  0D34  1703               	bsf	3,6	;RP1=1, select bank3
  5001  0D35  081B               	movf	___fldiv@bexp^(0+384),w
  5002  0D36  1683               	bsf	3,5	;RP0=1, select bank1
  5003  0D37  1303               	bcf	3,6	;RP1=0, select bank1
  5004  0D38  00CB               	movwf	??___fldiv^(0+128)
  5005  0D39  1003               	clrc
  5006  0D3A  0C4B               	rrf	??___fldiv^(0+128),w
  5007  0D3B  00CC               	movwf	(??___fldiv+1)^(0+128)
  5008  0D3C  084C               	movf	(??___fldiv+1)^(0+128),w
  5009  0D3D  00CA               	movwf	(___fldiv@b^(0+128)+3)
  5010  0D3E  1683               	bsf	3,5	;RP0=1, select bank3
  5011  0D3F  1703               	bsf	3,6	;RP1=1, select bank3
  5012  0D40  0814               	movf	___fldiv@sign^(0+384),w
  5013  0D41  1683               	bsf	3,5	;RP0=1, select bank1
  5014  0D42  1303               	bcf	3,6	;RP1=0, select bank1
  5015  0D43  00CB               	movwf	??___fldiv^(0+128)
  5016  0D44  084B               	movf	??___fldiv^(0+128),w
  5017  0D45  04CA               	iorwf	(___fldiv@b^(0+128)+3),f
  5018  0D46  2B42               	goto	l4224
  5019  0D47                     l641:
  5020  0D47  0008               	return
  5021  0D48                     __end_of___fldiv:
  5022                           
  5023                           	psect	text11
  5024  0820                     __ptext11:	
  5025 ;; *************** function ___fladd *****************
  5026 ;; Defined at:
  5027 ;;		line 10 in file "C:\Program Files\Microchip\xc8\v2.35\pic\sources\c90\common\sprcadd.c"
  5028 ;; Parameters:    Size  Location     Type
  5029 ;;  b               4   39[BANK3 ] unsigned char 
  5030 ;;  a               4   43[BANK3 ] unsigned char 
  5031 ;; Auto vars:     Size  Location     Type
  5032 ;;  grs             1   58[BANK3 ] unsigned char 
  5033 ;;  bexp            1   57[BANK3 ] unsigned char 
  5034 ;;  aexp            1   56[BANK3 ] unsigned char 
  5035 ;;  signs           1   55[BANK3 ] unsigned char 
  5036 ;; Return value:  Size  Location     Type
  5037 ;;                  4   39[BANK3 ] unsigned char 
  5038 ;; Registers used:
  5039 ;;		wreg, status,2, status,0, btemp+1
  5040 ;; Tracked objects:
  5041 ;;		On entry : 0/0
  5042 ;;		On exit  : 0/0
  5043 ;;		Unchanged: 0/0
  5044 ;; Data sizes:     COMMON   BANK0   BANK1   BANK3   BANK2
  5045 ;;      Params:         0       0       0       8       0
  5046 ;;      Locals:         0       0       0       4       0
  5047 ;;      Temps:          0       0       0       8       0
  5048 ;;      Totals:         0       0       0      20       0
  5049 ;;Total ram usage:       20 bytes
  5050 ;; Hardware stack levels used: 1
  5051 ;; Hardware stack levels required when called: 5
  5052 ;; This function calls:
  5053 ;;		Nothing
  5054 ;; This function is called by:
  5055 ;;		_interpole
  5056 ;; This function uses a non-reentrant model
  5057 ;;
  5058                           
  5059  0820                     ___fladd:	
  5060                           ;psect for function ___fladd
  5061                           
  5062  0820                     l3986:	
  5063                           ;incstack = 0
  5064                           ; Regs used in ___fladd: [wreg+status,2+status,0+btemp+1]
  5065                           
  5066  0820  1683               	bsf	3,5	;RP0=1, select bank3
  5067  0821  1703               	bsf	3,6	;RP1=1, select bank3
  5068  0822  083A               	movf	(___fladd@b^(0+384)+3),w
  5069  0823  3980               	andlw	128
  5070  0824  00BF               	movwf	??___fladd^(0+384)
  5071  0825  083F               	movf	??___fladd^(0+384),w
  5072  0826  00C7               	movwf	___fladd@signs^(0+384)
  5073  0827                     l3988:
  5074  0827  083A               	movf	(___fladd@b^(0+384)+3),w
  5075  0828  00BF               	movwf	??___fladd^(0+384)
  5076  0829  073F               	addwf	??___fladd^(0+384),w
  5077  082A  00C0               	movwf	(??___fladd+1)^(0+384)
  5078  082B  0840               	movf	(??___fladd+1)^(0+384),w
  5079  082C  00C9               	movwf	___fladd@bexp^(0+384)
  5080  082D                     l3990:
  5081  082D  1FB9               	btfss	(___fladd@b^(0+384)+2),7
  5082  082E  2830               	goto	u6471
  5083  082F  2831               	goto	u6470
  5084  0830                     u6471:
  5085  0830  2832               	goto	l3994
  5086  0831                     u6470:
  5087  0831                     l3992:
  5088  0831  1449               	bsf	___fladd@bexp^(0+384),0
  5089  0832                     l3994:
  5090  0832  0849               	movf	___fladd@bexp^(0+384),w
  5091  0833  1903               	btfsc	3,2
  5092  0834  2836               	goto	u6481
  5093  0835  2837               	goto	u6480
  5094  0836                     u6481:
  5095  0836  2847               	goto	l4004
  5096  0837                     u6480:
  5097  0837                     l3996:
  5098  0837  0A49               	incf	___fladd@bexp^(0+384),w
  5099  0838  1D03               	btfss	3,2
  5100  0839  283B               	goto	u6491
  5101  083A  283C               	goto	u6490
  5102  083B                     u6491:
  5103  083B  2844               	goto	l4000
  5104  083C                     u6490:
  5105  083C                     l3998:
  5106  083C  3000               	movlw	0
  5107  083D  00BA               	movwf	(___fladd@b+3)^(0+384)
  5108  083E  3000               	movlw	0
  5109  083F  00B9               	movwf	(___fladd@b+2)^(0+384)
  5110  0840  3000               	movlw	0
  5111  0841  00B8               	movwf	(___fladd@b+1)^(0+384)
  5112  0842  3000               	movlw	0
  5113  0843  00B7               	movwf	___fladd@b^(0+384)
  5114  0844                     l4000:
  5115  0844  17B9               	bsf	(___fladd@b^(0+384)+2),7
  5116  0845                     l4002:
  5117  0845  01BA               	clrf	(___fladd@b^(0+384)+3)
  5118  0846  284F               	goto	l4006
  5119  0847                     l4004:
  5120  0847  3000               	movlw	0
  5121  0848  00BA               	movwf	(___fladd@b+3)^(0+384)
  5122  0849  3000               	movlw	0
  5123  084A  00B9               	movwf	(___fladd@b+2)^(0+384)
  5124  084B  3000               	movlw	0
  5125  084C  00B8               	movwf	(___fladd@b+1)^(0+384)
  5126  084D  3000               	movlw	0
  5127  084E  00B7               	movwf	___fladd@b^(0+384)
  5128  084F                     l4006:
  5129  084F  083E               	movf	(___fladd@a^(0+384)+3),w
  5130  0850  3980               	andlw	128
  5131  0851  00BF               	movwf	??___fladd^(0+384)
  5132  0852  083F               	movf	??___fladd^(0+384),w
  5133  0853  00C8               	movwf	___fladd@aexp^(0+384)
  5134  0854                     l4008:
  5135  0854  0848               	movf	___fladd@aexp^(0+384),w
  5136  0855  0647               	xorwf	___fladd@signs^(0+384),w
  5137  0856  1903               	skipnz
  5138  0857  2859               	goto	u6501
  5139  0858  285A               	goto	u6500
  5140  0859                     u6501:
  5141  0859  285B               	goto	l4012
  5142  085A                     u6500:
  5143  085A                     l4010:
  5144  085A  1747               	bsf	___fladd@signs^(0+384),6
  5145  085B                     l4012:
  5146  085B  083E               	movf	(___fladd@a^(0+384)+3),w
  5147  085C  00BF               	movwf	??___fladd^(0+384)
  5148  085D  073F               	addwf	??___fladd^(0+384),w
  5149  085E  00C0               	movwf	(??___fladd+1)^(0+384)
  5150  085F  0840               	movf	(??___fladd+1)^(0+384),w
  5151  0860  00C8               	movwf	___fladd@aexp^(0+384)
  5152  0861                     l4014:
  5153  0861  1FBD               	btfss	(___fladd@a^(0+384)+2),7
  5154  0862  2864               	goto	u6511
  5155  0863  2865               	goto	u6510
  5156  0864                     u6511:
  5157  0864  2866               	goto	l4018
  5158  0865                     u6510:
  5159  0865                     l4016:
  5160  0865  1448               	bsf	___fladd@aexp^(0+384),0
  5161  0866                     l4018:
  5162  0866  0848               	movf	___fladd@aexp^(0+384),w
  5163  0867  1903               	btfsc	3,2
  5164  0868  286A               	goto	u6521
  5165  0869  286B               	goto	u6520
  5166  086A                     u6521:
  5167  086A  287B               	goto	l4028
  5168  086B                     u6520:
  5169  086B                     l4020:
  5170  086B  0A48               	incf	___fladd@aexp^(0+384),w
  5171  086C  1D03               	btfss	3,2
  5172  086D  286F               	goto	u6531
  5173  086E  2870               	goto	u6530
  5174  086F                     u6531:
  5175  086F  2878               	goto	l4024
  5176  0870                     u6530:
  5177  0870                     l4022:
  5178  0870  3000               	movlw	0
  5179  0871  00BE               	movwf	(___fladd@a+3)^(0+384)
  5180  0872  3000               	movlw	0
  5181  0873  00BD               	movwf	(___fladd@a+2)^(0+384)
  5182  0874  3000               	movlw	0
  5183  0875  00BC               	movwf	(___fladd@a+1)^(0+384)
  5184  0876  3000               	movlw	0
  5185  0877  00BB               	movwf	___fladd@a^(0+384)
  5186  0878                     l4024:
  5187  0878  17BD               	bsf	(___fladd@a^(0+384)+2),7
  5188  0879                     l4026:
  5189  0879  01BE               	clrf	(___fladd@a^(0+384)+3)
  5190  087A  2883               	goto	l583
  5191  087B                     l4028:
  5192  087B  3000               	movlw	0
  5193  087C  00BE               	movwf	(___fladd@a+3)^(0+384)
  5194  087D  3000               	movlw	0
  5195  087E  00BD               	movwf	(___fladd@a+2)^(0+384)
  5196  087F  3000               	movlw	0
  5197  0880  00BC               	movwf	(___fladd@a+1)^(0+384)
  5198  0881  3000               	movlw	0
  5199  0882  00BB               	movwf	___fladd@a^(0+384)
  5200  0883                     l583:
  5201  0883  0849               	movf	___fladd@bexp^(0+384),w
  5202  0884  0248               	subwf	___fladd@aexp^(0+384),w
  5203  0885  1803               	skipnc
  5204  0886  2888               	goto	u6541
  5205  0887  2889               	goto	u6540
  5206  0888                     u6541:
  5207  0888  28CD               	goto	l4064
  5208  0889                     u6540:
  5209  0889                     l4030:
  5210  0889  1F47               	btfss	___fladd@signs^(0+384),6
  5211  088A  288C               	goto	u6551
  5212  088B  288D               	goto	u6550
  5213  088C                     u6551:
  5214  088C  2891               	goto	l4034
  5215  088D                     u6550:
  5216  088D                     l4032:
  5217  088D  3080               	movlw	128
  5218  088E  00BF               	movwf	??___fladd^(0+384)
  5219  088F  083F               	movf	??___fladd^(0+384),w
  5220  0890  06C7               	xorwf	___fladd@signs^(0+384),f
  5221  0891                     l4034:
  5222  0891  0849               	movf	___fladd@bexp^(0+384),w
  5223  0892  00BF               	movwf	??___fladd^(0+384)
  5224  0893  083F               	movf	??___fladd^(0+384),w
  5225  0894  00CA               	movwf	___fladd@grs^(0+384)
  5226  0895                     l4036:
  5227  0895  0848               	movf	___fladd@aexp^(0+384),w
  5228  0896  00BF               	movwf	??___fladd^(0+384)
  5229  0897  083F               	movf	??___fladd^(0+384),w
  5230  0898  00C9               	movwf	___fladd@bexp^(0+384)
  5231  0899                     l4038:
  5232  0899  084A               	movf	___fladd@grs^(0+384),w
  5233  089A  00BF               	movwf	??___fladd^(0+384)
  5234  089B  083F               	movf	??___fladd^(0+384),w
  5235  089C  00C8               	movwf	___fladd@aexp^(0+384)
  5236  089D                     l4040:
  5237  089D  0837               	movf	___fladd@b^(0+384),w
  5238  089E  00BF               	movwf	??___fladd^(0+384)
  5239  089F  083F               	movf	??___fladd^(0+384),w
  5240  08A0  00CA               	movwf	___fladd@grs^(0+384)
  5241  08A1                     l4042:
  5242  08A1  083B               	movf	___fladd@a^(0+384),w
  5243  08A2  00BF               	movwf	??___fladd^(0+384)
  5244  08A3  083F               	movf	??___fladd^(0+384),w
  5245  08A4  00B7               	movwf	___fladd@b^(0+384)
  5246  08A5                     l4044:
  5247  08A5  084A               	movf	___fladd@grs^(0+384),w
  5248  08A6  00BF               	movwf	??___fladd^(0+384)
  5249  08A7  083F               	movf	??___fladd^(0+384),w
  5250  08A8  00BB               	movwf	___fladd@a^(0+384)
  5251  08A9                     l4046:
  5252  08A9  0838               	movf	(___fladd@b^(0+384)+1),w
  5253  08AA  00BF               	movwf	??___fladd^(0+384)
  5254  08AB  083F               	movf	??___fladd^(0+384),w
  5255  08AC  00CA               	movwf	___fladd@grs^(0+384)
  5256  08AD                     l4048:
  5257  08AD  083C               	movf	(___fladd@a^(0+384)+1),w
  5258  08AE  00BF               	movwf	??___fladd^(0+384)
  5259  08AF  083F               	movf	??___fladd^(0+384),w
  5260  08B0  00B8               	movwf	(___fladd@b^(0+384)+1)
  5261  08B1                     l4050:
  5262  08B1  084A               	movf	___fladd@grs^(0+384),w
  5263  08B2  00BF               	movwf	??___fladd^(0+384)
  5264  08B3  083F               	movf	??___fladd^(0+384),w
  5265  08B4  00BC               	movwf	(___fladd@a^(0+384)+1)
  5266  08B5                     l4052:
  5267  08B5  0839               	movf	(___fladd@b^(0+384)+2),w
  5268  08B6  00BF               	movwf	??___fladd^(0+384)
  5269  08B7  083F               	movf	??___fladd^(0+384),w
  5270  08B8  00CA               	movwf	___fladd@grs^(0+384)
  5271  08B9                     l4054:
  5272  08B9  083D               	movf	(___fladd@a^(0+384)+2),w
  5273  08BA  00BF               	movwf	??___fladd^(0+384)
  5274  08BB  083F               	movf	??___fladd^(0+384),w
  5275  08BC  00B9               	movwf	(___fladd@b^(0+384)+2)
  5276  08BD                     l4056:
  5277  08BD  084A               	movf	___fladd@grs^(0+384),w
  5278  08BE  00BF               	movwf	??___fladd^(0+384)
  5279  08BF  083F               	movf	??___fladd^(0+384),w
  5280  08C0  00BD               	movwf	(___fladd@a^(0+384)+2)
  5281  08C1                     l4058:
  5282  08C1  083A               	movf	(___fladd@b^(0+384)+3),w
  5283  08C2  00BF               	movwf	??___fladd^(0+384)
  5284  08C3  083F               	movf	??___fladd^(0+384),w
  5285  08C4  00CA               	movwf	___fladd@grs^(0+384)
  5286  08C5                     l4060:
  5287  08C5  083E               	movf	(___fladd@a^(0+384)+3),w
  5288  08C6  00BF               	movwf	??___fladd^(0+384)
  5289  08C7  083F               	movf	??___fladd^(0+384),w
  5290  08C8  00BA               	movwf	(___fladd@b^(0+384)+3)
  5291  08C9                     l4062:
  5292  08C9  084A               	movf	___fladd@grs^(0+384),w
  5293  08CA  00BF               	movwf	??___fladd^(0+384)
  5294  08CB  083F               	movf	??___fladd^(0+384),w
  5295  08CC  00BE               	movwf	(___fladd@a^(0+384)+3)
  5296  08CD                     l4064:
  5297  08CD  01CA               	clrf	___fladd@grs^(0+384)
  5298  08CE                     l4066:
  5299  08CE  0848               	movf	___fladd@aexp^(0+384),w
  5300  08CF  00BF               	movwf	??___fladd^(0+384)
  5301  08D0  01C0               	clrf	(??___fladd^(0+384)+1)
  5302  08D1  0840               	movf	(??___fladd+1)^(0+384),w
  5303  08D2  00C2               	movwf	((??___fladd+2)^(0+384)+1)
  5304  08D3  0849               	movf	___fladd@bexp^(0+384),w
  5305  08D4  023F               	subwf	??___fladd^(0+384),w
  5306  08D5  00C1               	movwf	(??___fladd+2)^(0+384)
  5307  08D6  1C03               	skipc
  5308  08D7  03C2               	decf	((??___fladd+2)^(0+384)+1),f
  5309  08D8  0842               	movf	(??___fladd+3)^(0+384),w
  5310  08D9  3A80               	xorlw	128
  5311  08DA  00FF               	movwf	btemp+1
  5312  08DB  3080               	movlw	128
  5313  08DC  027F               	subwf	btemp+1,w
  5314  08DD  1D03               	skipz
  5315  08DE  28E1               	goto	u6565
  5316  08DF  301A               	movlw	26
  5317  08E0  0241               	subwf	(??___fladd+2)^(0+384),w
  5318  08E1                     u6565:
  5319  08E1  1C03               	skipc
  5320  08E2  28E4               	goto	u6561
  5321  08E3  28E5               	goto	u6560
  5322  08E4                     u6561:
  5323  08E4  2922               	goto	l4082
  5324  08E5                     u6560:
  5325  08E5                     l4068:
  5326  08E5  1683               	bsf	3,5	;RP0=1, select bank3
  5327  08E6  1703               	bsf	3,6	;RP1=1, select bank3
  5328  08E7  083A               	movf	(___fladd@b+3)^(0+384),w
  5329  08E8  0439               	iorwf	(___fladd@b+2)^(0+384),w
  5330  08E9  0438               	iorwf	(___fladd@b+1)^(0+384),w
  5331  08EA  0437               	iorwf	___fladd@b^(0+384),w
  5332  08EB  1D03               	skipz
  5333  08EC  28EE               	goto	u6571
  5334  08ED  28F0               	goto	u6570
  5335  08EE                     u6571:
  5336  08EE  3001               	movlw	1
  5337  08EF  28F1               	goto	u6580
  5338  08F0                     u6570:
  5339  08F0  3000               	movlw	0
  5340  08F1                     u6580:
  5341  08F1  00BF               	movwf	??___fladd^(0+384)
  5342  08F2  083F               	movf	??___fladd^(0+384),w
  5343  08F3  00CA               	movwf	___fladd@grs^(0+384)
  5344  08F4  3000               	movlw	0
  5345  08F5  00BA               	movwf	(___fladd@b+3)^(0+384)
  5346  08F6  3000               	movlw	0
  5347  08F7  00B9               	movwf	(___fladd@b+2)^(0+384)
  5348  08F8  3000               	movlw	0
  5349  08F9  00B8               	movwf	(___fladd@b+1)^(0+384)
  5350  08FA  3000               	movlw	0
  5351  08FB  00B7               	movwf	___fladd@b^(0+384)
  5352  08FC  0848               	movf	___fladd@aexp^(0+384),w
  5353  08FD  00BF               	movwf	??___fladd^(0+384)
  5354  08FE  083F               	movf	??___fladd^(0+384),w
  5355  08FF  00C9               	movwf	___fladd@bexp^(0+384)
  5356  0900  292A               	goto	l587
  5357  0901                     l589:
  5358  0901  1C4A               	btfss	___fladd@grs^(0+384),0
  5359  0902  2904               	goto	u6591
  5360  0903  2905               	goto	u6590
  5361  0904                     u6591:
  5362  0904  290E               	goto	l4072
  5363  0905                     u6590:
  5364  0905                     l4070:
  5365  0905  084A               	movf	___fladd@grs^(0+384),w
  5366  0906  00BF               	movwf	??___fladd^(0+384)
  5367  0907  1003               	clrc
  5368  0908  0C3F               	rrf	??___fladd^(0+384),w
  5369  0909  3801               	iorlw	1
  5370  090A  00C0               	movwf	(??___fladd+1)^(0+384)
  5371  090B  0840               	movf	(??___fladd+1)^(0+384),w
  5372  090C  00CA               	movwf	___fladd@grs^(0+384)
  5373  090D  2910               	goto	l4074
  5374  090E                     l4072:
  5375  090E  1003               	clrc
  5376  090F  0CCA               	rrf	___fladd@grs^(0+384),f
  5377  0910                     l4074:
  5378  0910  1C37               	btfss	___fladd@b^(0+384),0
  5379  0911  2913               	goto	u6601
  5380  0912  2914               	goto	u6600
  5381  0913                     u6601:
  5382  0913  2915               	goto	l4078
  5383  0914                     u6600:
  5384  0914                     l4076:
  5385  0914  17CA               	bsf	___fladd@grs^(0+384),7
  5386  0915                     l4078:
  5387  0915  3001               	movlw	1
  5388  0916  00BF               	movwf	??___fladd^(0+384)
  5389  0917                     u6615:
  5390  0917  0D3A               	rlf	(___fladd@b+3)^(0+384),w
  5391  0918  0CBA               	rrf	(___fladd@b+3)^(0+384),f
  5392  0919  0CB9               	rrf	(___fladd@b+2)^(0+384),f
  5393  091A  0CB8               	rrf	(___fladd@b+1)^(0+384),f
  5394  091B  0CB7               	rrf	___fladd@b^(0+384),f
  5395  091C  0BBF               	decfsz	(??___fladd^(0+384))& (0+127),f
  5396  091D  2917               	goto	u6615
  5397  091E                     l4080:
  5398  091E  3001               	movlw	1
  5399  091F  00BF               	movwf	??___fladd^(0+384)
  5400  0920  083F               	movf	??___fladd^(0+384),w
  5401  0921  07C9               	addwf	___fladd@bexp^(0+384),f
  5402  0922                     l4082:
  5403  0922  1683               	bsf	3,5	;RP0=1, select bank3
  5404  0923  1703               	bsf	3,6	;RP1=1, select bank3
  5405  0924  0848               	movf	___fladd@aexp^(0+384),w
  5406  0925  0249               	subwf	___fladd@bexp^(0+384),w
  5407  0926  1C03               	skipc
  5408  0927  2929               	goto	u6621
  5409  0928  292A               	goto	u6620
  5410  0929                     u6621:
  5411  0929  2901               	goto	l589
  5412  092A                     u6620:
  5413  092A                     l587:
  5414  092A  1B47               	btfsc	___fladd@signs^(0+384),6
  5415  092B  292D               	goto	u6631
  5416  092C  292E               	goto	u6630
  5417  092D                     u6631:
  5418  092D  2979               	goto	l4108
  5419  092E                     u6630:
  5420  092E                     l4084:
  5421  092E  0849               	movf	___fladd@bexp^(0+384),w
  5422  092F  1D03               	btfss	3,2
  5423  0930  2932               	goto	u6641
  5424  0931  2933               	goto	u6640
  5425  0932                     u6641:
  5426  0932  293C               	goto	l4090
  5427  0933                     u6640:
  5428  0933                     l4086:
  5429  0933  3000               	movlw	0
  5430  0934  00BA               	movwf	(?___fladd+3)^(0+384)
  5431  0935  3000               	movlw	0
  5432  0936  00B9               	movwf	(?___fladd+2)^(0+384)
  5433  0937  3000               	movlw	0
  5434  0938  00B8               	movwf	(?___fladd+1)^(0+384)
  5435  0939  3000               	movlw	0
  5436  093A  00B7               	movwf	?___fladd^(0+384)
  5437  093B  2AA7               	goto	l596
  5438  093C                     l4090:
  5439  093C  083B               	movf	___fladd@a^(0+384),w
  5440  093D  07B7               	addwf	___fladd@b^(0+384),f
  5441  093E  083C               	movf	(___fladd@a+1)^(0+384),w
  5442  093F  1103               	clrz
  5443  0940  1803               	skipnc
  5444  0941  3E01               	addlw	1
  5445  0942  1903               	skipnz
  5446  0943  2945               	goto	u6651
  5447  0944  07B8               	addwf	(___fladd@b+1)^(0+384),f
  5448  0945                     u6651:
  5449  0945  083D               	movf	(___fladd@a+2)^(0+384),w
  5450  0946  1103               	clrz
  5451  0947  1803               	skipnc
  5452  0948  3E01               	addlw	1
  5453  0949  1903               	skipnz
  5454  094A  294C               	goto	u6652
  5455  094B  07B9               	addwf	(___fladd@b+2)^(0+384),f
  5456  094C                     u6652:
  5457  094C  083E               	movf	(___fladd@a+3)^(0+384),w
  5458  094D  1103               	clrz
  5459  094E  1803               	skipnc
  5460  094F  3E01               	addlw	1
  5461  0950  1903               	skipnz
  5462  0951  2953               	goto	u6653
  5463  0952  07BA               	addwf	(___fladd@b+3)^(0+384),f
  5464  0953                     u6653:
  5465  0953                     l4092:
  5466  0953  1C3A               	btfss	(___fladd@b+3)^(0+384),0
  5467  0954  2956               	goto	u6661
  5468  0955  2957               	goto	u6660
  5469  0956                     u6661:
  5470  0956  2A2D               	goto	l4142
  5471  0957                     u6660:
  5472  0957                     l4094:
  5473  0957  1C4A               	btfss	___fladd@grs^(0+384),0
  5474  0958  295A               	goto	u6671
  5475  0959  295B               	goto	u6670
  5476  095A                     u6671:
  5477  095A  2964               	goto	l4098
  5478  095B                     u6670:
  5479  095B                     l4096:
  5480  095B  084A               	movf	___fladd@grs^(0+384),w
  5481  095C  00BF               	movwf	??___fladd^(0+384)
  5482  095D  1003               	clrc
  5483  095E  0C3F               	rrf	??___fladd^(0+384),w
  5484  095F  3801               	iorlw	1
  5485  0960  00C0               	movwf	(??___fladd+1)^(0+384)
  5486  0961  0840               	movf	(??___fladd+1)^(0+384),w
  5487  0962  00CA               	movwf	___fladd@grs^(0+384)
  5488  0963  2966               	goto	l4100
  5489  0964                     l4098:
  5490  0964  1003               	clrc
  5491  0965  0CCA               	rrf	___fladd@grs^(0+384),f
  5492  0966                     l4100:
  5493  0966  1C37               	btfss	___fladd@b^(0+384),0
  5494  0967  2969               	goto	u6681
  5495  0968  296A               	goto	u6680
  5496  0969                     u6681:
  5497  0969  296B               	goto	l4104
  5498  096A                     u6680:
  5499  096A                     l4102:
  5500  096A  17CA               	bsf	___fladd@grs^(0+384),7
  5501  096B                     l4104:
  5502  096B  3001               	movlw	1
  5503  096C  00BF               	movwf	??___fladd^(0+384)
  5504  096D                     u6695:
  5505  096D  0D3A               	rlf	(___fladd@b+3)^(0+384),w
  5506  096E  0CBA               	rrf	(___fladd@b+3)^(0+384),f
  5507  096F  0CB9               	rrf	(___fladd@b+2)^(0+384),f
  5508  0970  0CB8               	rrf	(___fladd@b+1)^(0+384),f
  5509  0971  0CB7               	rrf	___fladd@b^(0+384),f
  5510  0972  0BBF               	decfsz	(??___fladd^(0+384))& (0+127),f
  5511  0973  296D               	goto	u6695
  5512  0974                     l4106:
  5513  0974  3001               	movlw	1
  5514  0975  00BF               	movwf	??___fladd^(0+384)
  5515  0976  083F               	movf	??___fladd^(0+384),w
  5516  0977  07C9               	addwf	___fladd@bexp^(0+384),f
  5517  0978  2A2D               	goto	l4142
  5518  0979                     l4108:
  5519  0979  083A               	movf	(___fladd@b+3)^(0+384),w
  5520  097A  3A80               	xorlw	128
  5521  097B  00FF               	movwf	btemp+1
  5522  097C  083E               	movf	(___fladd@a+3)^(0+384),w
  5523  097D  3A80               	xorlw	128
  5524  097E  027F               	subwf	btemp+1,w
  5525  097F  1D03               	skipz
  5526  0980  298B               	goto	u6703
  5527  0981  083D               	movf	(___fladd@a+2)^(0+384),w
  5528  0982  0239               	subwf	(___fladd@b+2)^(0+384),w
  5529  0983  1D03               	skipz
  5530  0984  298B               	goto	u6703
  5531  0985  083C               	movf	(___fladd@a+1)^(0+384),w
  5532  0986  0238               	subwf	(___fladd@b+1)^(0+384),w
  5533  0987  1D03               	skipz
  5534  0988  298B               	goto	u6703
  5535  0989  083B               	movf	___fladd@a^(0+384),w
  5536  098A  0237               	subwf	___fladd@b^(0+384),w
  5537  098B                     u6703:
  5538  098B  1803               	skipnc
  5539  098C  298E               	goto	u6701
  5540  098D  298F               	goto	u6700
  5541  098E                     u6701:
  5542  098E  29E7               	goto	l4118
  5543  098F                     u6700:
  5544  098F                     l4110:
  5545  098F  30FF               	movlw	255
  5546  0990  00BF               	movwf	??___fladd^(0+384)
  5547  0991  30FF               	movlw	255
  5548  0992  00C0               	movwf	(??___fladd^(0+384)+1)
  5549  0993  30FF               	movlw	255
  5550  0994  00C1               	movwf	(??___fladd^(0+384)+2)
  5551  0995  30FF               	movlw	255
  5552  0996  00C2               	movwf	(??___fladd^(0+384)+3)
  5553  0997  083B               	movf	___fladd@a^(0+384),w
  5554  0998  00C3               	movwf	(??___fladd+4)^(0+384)
  5555  0999  083C               	movf	(___fladd@a+1)^(0+384),w
  5556  099A  00C4               	movwf	((??___fladd+4)^(0+384)+1)
  5557  099B  083D               	movf	(___fladd@a+2)^(0+384),w
  5558  099C  00C5               	movwf	((??___fladd+4)^(0+384)+2)
  5559  099D  083E               	movf	(___fladd@a+3)^(0+384),w
  5560  099E  00C6               	movwf	((??___fladd+4)^(0+384)+3)
  5561  099F  0837               	movf	___fladd@b^(0+384),w
  5562  09A0  02C3               	subwf	(??___fladd+4)^(0+384),f
  5563  09A1  0838               	movf	(___fladd@b+1)^(0+384),w
  5564  09A2  1C03               	skipc
  5565  09A3  0F38               	incfsz	(___fladd@b+1)^(0+384),w
  5566  09A4  29A6               	goto	u6711
  5567  09A5  29A7               	goto	u6712
  5568  09A6                     u6711:
  5569  09A6  02C4               	subwf	((??___fladd+4)^(0+384)+1),f
  5570  09A7                     u6712:
  5571  09A7  0839               	movf	(___fladd@b+2)^(0+384),w
  5572  09A8  1C03               	skipc
  5573  09A9  0F39               	incfsz	(___fladd@b+2)^(0+384),w
  5574  09AA  29AC               	goto	u6713
  5575  09AB  29AD               	goto	u6714
  5576  09AC                     u6713:
  5577  09AC  02C5               	subwf	((??___fladd+4)^(0+384)+2),f
  5578  09AD                     u6714:
  5579  09AD  083A               	movf	(___fladd@b+3)^(0+384),w
  5580  09AE  1C03               	skipc
  5581  09AF  0F3A               	incfsz	(___fladd@b+3)^(0+384),w
  5582  09B0  29B2               	goto	u6715
  5583  09B1  29B3               	goto	u6716
  5584  09B2                     u6715:
  5585  09B2  02C6               	subwf	((??___fladd+4)^(0+384)+3),f
  5586  09B3                     u6716:
  5587  09B3  0843               	movf	(??___fladd+4)^(0+384),w
  5588  09B4  07BF               	addwf	??___fladd^(0+384),f
  5589  09B5  0844               	movf	(??___fladd+5)^(0+384),w
  5590  09B6  1803               	skipnc
  5591  09B7  0F44               	incfsz	(??___fladd+5)^(0+384),w
  5592  09B8  29BA               	goto	u6720
  5593  09B9  29BB               	goto	u6721
  5594  09BA                     u6720:
  5595  09BA  07C0               	addwf	(??___fladd^(0+384)+1),f
  5596  09BB                     u6721:
  5597  09BB  0845               	movf	(??___fladd+6)^(0+384),w
  5598  09BC  1803               	skipnc
  5599  09BD  0F45               	incfsz	(??___fladd+6)^(0+384),w
  5600  09BE  29C0               	goto	u6722
  5601  09BF  29C1               	goto	u6723
  5602  09C0                     u6722:
  5603  09C0  07C1               	addwf	(??___fladd^(0+384)+2),f
  5604  09C1                     u6723:
  5605  09C1  0846               	movf	(??___fladd+7)^(0+384),w
  5606  09C2  1803               	skipnc
  5607  09C3  0A46               	incf	(??___fladd+7)^(0+384),w
  5608  09C4  07C2               	addwf	(??___fladd^(0+384)+3),f
  5609  09C5  0842               	movf	(??___fladd+3)^(0+384),w
  5610  09C6  00BA               	movwf	(___fladd@b+3)^(0+384)
  5611  09C7  0841               	movf	(??___fladd+2)^(0+384),w
  5612  09C8  00B9               	movwf	(___fladd@b+2)^(0+384)
  5613  09C9  0840               	movf	(??___fladd+1)^(0+384),w
  5614  09CA  00B8               	movwf	(___fladd@b+1)^(0+384)
  5615  09CB  083F               	movf	??___fladd^(0+384),w
  5616  09CC  00B7               	movwf	___fladd@b^(0+384)
  5617  09CD                     l4112:
  5618  09CD  3080               	movlw	128
  5619  09CE  00BF               	movwf	??___fladd^(0+384)
  5620  09CF  083F               	movf	??___fladd^(0+384),w
  5621  09D0  06C7               	xorwf	___fladd@signs^(0+384),f
  5622  09D1  09CA               	comf	___fladd@grs^(0+384),f
  5623  09D2  0ACA               	incf	___fladd@grs^(0+384),f
  5624  09D3                     l4114:
  5625  09D3  084A               	movf	___fladd@grs^(0+384),w
  5626  09D4  1D03               	btfss	3,2
  5627  09D5  29D7               	goto	u6731
  5628  09D6  29D8               	goto	u6730
  5629  09D7                     u6731:
  5630  09D7  29F5               	goto	l604
  5631  09D8                     u6730:
  5632  09D8                     l4116:
  5633  09D8  3001               	movlw	1
  5634  09D9  07B7               	addwf	___fladd@b^(0+384),f
  5635  09DA  3000               	movlw	0
  5636  09DB  1803               	skipnc
  5637  09DC  3001               	movlw	1
  5638  09DD  07B8               	addwf	(___fladd@b+1)^(0+384),f
  5639  09DE  3000               	movlw	0
  5640  09DF  1803               	skipnc
  5641  09E0  3001               	movlw	1
  5642  09E1  07B9               	addwf	(___fladd@b+2)^(0+384),f
  5643  09E2  3000               	movlw	0
  5644  09E3  1803               	skipnc
  5645  09E4  3001               	movlw	1
  5646  09E5  07BA               	addwf	(___fladd@b+3)^(0+384),f
  5647  09E6  29F5               	goto	l604
  5648  09E7                     l4118:
  5649  09E7  083B               	movf	___fladd@a^(0+384),w
  5650  09E8  02B7               	subwf	___fladd@b^(0+384),f
  5651  09E9  083C               	movf	(___fladd@a+1)^(0+384),w
  5652  09EA  1C03               	skipc
  5653  09EB  0F3C               	incfsz	(___fladd@a+1)^(0+384),w
  5654  09EC  02B8               	subwf	(___fladd@b+1)^(0+384),f
  5655  09ED  083D               	movf	(___fladd@a+2)^(0+384),w
  5656  09EE  1C03               	skipc
  5657  09EF  0F3D               	incfsz	(___fladd@a+2)^(0+384),w
  5658  09F0  02B9               	subwf	(___fladd@b+2)^(0+384),f
  5659  09F1  083E               	movf	(___fladd@a+3)^(0+384),w
  5660  09F2  1C03               	skipc
  5661  09F3  0F3E               	incfsz	(___fladd@a+3)^(0+384),w
  5662  09F4  02BA               	subwf	(___fladd@b+3)^(0+384),f
  5663  09F5                     l604:
  5664  09F5  083A               	movf	(___fladd@b+3)^(0+384),w
  5665  09F6  0439               	iorwf	(___fladd@b+2)^(0+384),w
  5666  09F7  0438               	iorwf	(___fladd@b+1)^(0+384),w
  5667  09F8  0437               	iorwf	___fladd@b^(0+384),w
  5668  09F9  1D03               	skipz
  5669  09FA  29FC               	goto	u6741
  5670  09FB  29FD               	goto	u6740
  5671  09FC                     u6741:
  5672  09FC  2A29               	goto	l4140
  5673  09FD                     u6740:
  5674  09FD                     l4120:
  5675  09FD  084A               	movf	___fladd@grs^(0+384),w
  5676  09FE  1D03               	btfss	3,2
  5677  09FF  2A01               	goto	u6751
  5678  0A00  2A02               	goto	u6750
  5679  0A01                     u6751:
  5680  0A01  2A29               	goto	l4140
  5681  0A02                     u6750:
  5682  0A02                     l4122:
  5683  0A02  3000               	movlw	0
  5684  0A03  00BA               	movwf	(?___fladd+3)^(0+384)
  5685  0A04  3000               	movlw	0
  5686  0A05  00B9               	movwf	(?___fladd+2)^(0+384)
  5687  0A06  3000               	movlw	0
  5688  0A07  00B8               	movwf	(?___fladd+1)^(0+384)
  5689  0A08  3000               	movlw	0
  5690  0A09  00B7               	movwf	?___fladd^(0+384)
  5691  0A0A  2AA7               	goto	l596
  5692  0A0B                     l4126:
  5693  0A0B  3001               	movlw	1
  5694  0A0C  00BF               	movwf	??___fladd^(0+384)
  5695  0A0D                     u6765:
  5696  0A0D  1003               	clrc
  5697  0A0E  0DB7               	rlf	___fladd@b^(0+384),f
  5698  0A0F  0DB8               	rlf	(___fladd@b+1)^(0+384),f
  5699  0A10  0DB9               	rlf	(___fladd@b+2)^(0+384),f
  5700  0A11  0DBA               	rlf	(___fladd@b+3)^(0+384),f
  5701  0A12  0BBF               	decfsz	??___fladd^(0+384),f
  5702  0A13  2A0D               	goto	u6765
  5703  0A14                     l4128:
  5704  0A14  1FCA               	btfss	___fladd@grs^(0+384),7
  5705  0A15  2A17               	goto	u6771
  5706  0A16  2A18               	goto	u6770
  5707  0A17                     u6771:
  5708  0A17  2A19               	goto	l608
  5709  0A18                     u6770:
  5710  0A18                     l4130:
  5711  0A18  1437               	bsf	___fladd@b^(0+384),0
  5712  0A19                     l608:
  5713  0A19  1C4A               	btfss	___fladd@grs^(0+384),0
  5714  0A1A  2A1C               	goto	u6781
  5715  0A1B  2A1D               	goto	u6780
  5716  0A1C                     u6781:
  5717  0A1C  2A20               	goto	l4134
  5718  0A1D                     u6780:
  5719  0A1D                     l4132:
  5720  0A1D  1403               	setc
  5721  0A1E  0DCA               	rlf	___fladd@grs^(0+384),f
  5722  0A1F  2A22               	goto	l4136
  5723  0A20                     l4134:
  5724  0A20  1003               	clrc
  5725  0A21  0DCA               	rlf	___fladd@grs^(0+384),f
  5726  0A22                     l4136:
  5727  0A22  0849               	movf	___fladd@bexp^(0+384),w
  5728  0A23  1903               	btfsc	3,2
  5729  0A24  2A26               	goto	u6791
  5730  0A25  2A27               	goto	u6790
  5731  0A26                     u6791:
  5732  0A26  2A29               	goto	l4140
  5733  0A27                     u6790:
  5734  0A27                     l4138:
  5735  0A27  3001               	movlw	1
  5736  0A28  02C9               	subwf	___fladd@bexp^(0+384),f
  5737  0A29                     l4140:
  5738  0A29  1FB9               	btfss	(___fladd@b+2)^(0+384),7
  5739  0A2A  2A2C               	goto	u6801
  5740  0A2B  2A2D               	goto	u6800
  5741  0A2C                     u6801:
  5742  0A2C  2A0B               	goto	l4126
  5743  0A2D                     u6800:
  5744  0A2D                     l4142:
  5745  0A2D  01C8               	clrf	___fladd@aexp^(0+384)
  5746  0A2E                     l4144:
  5747  0A2E  1FCA               	btfss	___fladd@grs^(0+384),7
  5748  0A2F  2A31               	goto	u6811
  5749  0A30  2A32               	goto	u6810
  5750  0A31                     u6811:
  5751  0A31  2A40               	goto	l4152
  5752  0A32                     u6810:
  5753  0A32                     l4146:
  5754  0A32  084A               	movf	___fladd@grs^(0+384),w
  5755  0A33  397F               	andlw	127
  5756  0A34  1903               	btfsc	3,2
  5757  0A35  2A37               	goto	u6821
  5758  0A36  2A38               	goto	u6820
  5759  0A37                     u6821:
  5760  0A37  2A3B               	goto	l614
  5761  0A38                     u6820:
  5762  0A38                     l4148:
  5763  0A38  01C8               	clrf	___fladd@aexp^(0+384)
  5764  0A39  0AC8               	incf	___fladd@aexp^(0+384),f
  5765  0A3A  2A40               	goto	l4152
  5766  0A3B                     l614:
  5767  0A3B  1C37               	btfss	___fladd@b^(0+384),0
  5768  0A3C  2A3E               	goto	u6831
  5769  0A3D  2A3F               	goto	u6830
  5770  0A3E                     u6831:
  5771  0A3E  2A40               	goto	l4152
  5772  0A3F                     u6830:
  5773  0A3F  2A38               	goto	l4148
  5774  0A40                     l4152:
  5775  0A40  0848               	movf	___fladd@aexp^(0+384),w
  5776  0A41  1903               	btfsc	3,2
  5777  0A42  2A44               	goto	u6841
  5778  0A43  2A45               	goto	u6840
  5779  0A44                     u6841:
  5780  0A44  2A79               	goto	l617
  5781  0A45                     u6840:
  5782  0A45                     l4154:
  5783  0A45  3001               	movlw	1
  5784  0A46  07B7               	addwf	___fladd@b^(0+384),f
  5785  0A47  3000               	movlw	0
  5786  0A48  1803               	skipnc
  5787  0A49  3001               	movlw	1
  5788  0A4A  07B8               	addwf	(___fladd@b+1)^(0+384),f
  5789  0A4B  3000               	movlw	0
  5790  0A4C  1803               	skipnc
  5791  0A4D  3001               	movlw	1
  5792  0A4E  07B9               	addwf	(___fladd@b+2)^(0+384),f
  5793  0A4F  3000               	movlw	0
  5794  0A50  1803               	skipnc
  5795  0A51  3001               	movlw	1
  5796  0A52  07BA               	addwf	(___fladd@b+3)^(0+384),f
  5797  0A53                     l4156:
  5798  0A53  1C3A               	btfss	(___fladd@b+3)^(0+384),0
  5799  0A54  2A56               	goto	u6851
  5800  0A55  2A57               	goto	u6850
  5801  0A56                     u6851:
  5802  0A56  2A79               	goto	l617
  5803  0A57                     u6850:
  5804  0A57                     l4158:
  5805  0A57  0837               	movf	___fladd@b^(0+384),w
  5806  0A58  00BF               	movwf	??___fladd^(0+384)
  5807  0A59  0838               	movf	(___fladd@b+1)^(0+384),w
  5808  0A5A  00C0               	movwf	(??___fladd^(0+384)+1)
  5809  0A5B  0839               	movf	(___fladd@b+2)^(0+384),w
  5810  0A5C  00C1               	movwf	(??___fladd^(0+384)+2)
  5811  0A5D  083A               	movf	(___fladd@b+3)^(0+384),w
  5812  0A5E  00C2               	movwf	(??___fladd^(0+384)+3)
  5813  0A5F  3001               	movlw	1
  5814  0A60  00C3               	movwf	(??___fladd+4)^(0+384)
  5815  0A61                     u6865:
  5816  0A61  0D42               	rlf	(??___fladd^(0+384)+3),w
  5817  0A62  0CC2               	rrf	(??___fladd^(0+384)+3),f
  5818  0A63  0CC1               	rrf	(??___fladd^(0+384)+2),f
  5819  0A64  0CC0               	rrf	(??___fladd^(0+384)+1),f
  5820  0A65  0CBF               	rrf	??___fladd^(0+384),f
  5821  0A66                     u6860:
  5822  0A66  0BC3               	decfsz	(??___fladd+4)^(0+384),f
  5823  0A67  2A61               	goto	u6865
  5824  0A68  0842               	movf	(??___fladd+3)^(0+384),w
  5825  0A69  00BA               	movwf	(___fladd@b+3)^(0+384)
  5826  0A6A  0841               	movf	(??___fladd+2)^(0+384),w
  5827  0A6B  00B9               	movwf	(___fladd@b+2)^(0+384)
  5828  0A6C  0840               	movf	(??___fladd+1)^(0+384),w
  5829  0A6D  00B8               	movwf	(___fladd@b+1)^(0+384)
  5830  0A6E  083F               	movf	??___fladd^(0+384),w
  5831  0A6F  00B7               	movwf	___fladd@b^(0+384)
  5832  0A70  0A49               	incf	___fladd@bexp^(0+384),w
  5833  0A71  1903               	btfsc	3,2
  5834  0A72  2A74               	goto	u6871
  5835  0A73  2A75               	goto	u6870
  5836  0A74                     u6871:
  5837  0A74  2A79               	goto	l617
  5838  0A75                     u6870:
  5839  0A75                     l4160:
  5840  0A75  3001               	movlw	1
  5841  0A76  00BF               	movwf	??___fladd^(0+384)
  5842  0A77  083F               	movf	??___fladd^(0+384),w
  5843  0A78  07C9               	addwf	___fladd@bexp^(0+384),f
  5844  0A79                     l617:
  5845  0A79  0A49               	incf	___fladd@bexp^(0+384),w
  5846  0A7A  1903               	btfsc	3,2
  5847  0A7B  2A7D               	goto	u6881
  5848  0A7C  2A7E               	goto	u6880
  5849  0A7D                     u6881:
  5850  0A7D  2A83               	goto	l4164
  5851  0A7E                     u6880:
  5852  0A7E                     l4162:
  5853  0A7E  0849               	movf	___fladd@bexp^(0+384),w
  5854  0A7F  1D03               	btfss	3,2
  5855  0A80  2A82               	goto	u6891
  5856  0A81  2A83               	goto	u6890
  5857  0A82                     u6891:
  5858  0A82  2A91               	goto	l4170
  5859  0A83                     u6890:
  5860  0A83                     l4164:
  5861  0A83  3000               	movlw	0
  5862  0A84  00BA               	movwf	(___fladd@b+3)^(0+384)
  5863  0A85  3000               	movlw	0
  5864  0A86  00B9               	movwf	(___fladd@b+2)^(0+384)
  5865  0A87  3000               	movlw	0
  5866  0A88  00B8               	movwf	(___fladd@b+1)^(0+384)
  5867  0A89  3000               	movlw	0
  5868  0A8A  00B7               	movwf	___fladd@b^(0+384)
  5869  0A8B                     l4166:
  5870  0A8B  0849               	movf	___fladd@bexp^(0+384),w
  5871  0A8C  1D03               	btfss	3,2
  5872  0A8D  2A8F               	goto	u6901
  5873  0A8E  2A90               	goto	u6900
  5874  0A8F                     u6901:
  5875  0A8F  2A91               	goto	l4170
  5876  0A90                     u6900:
  5877  0A90                     l4168:
  5878  0A90  01C7               	clrf	___fladd@signs^(0+384)
  5879  0A91                     l4170:
  5880  0A91  1C49               	btfss	___fladd@bexp^(0+384),0
  5881  0A92  2A94               	goto	u6911
  5882  0A93  2A95               	goto	u6910
  5883  0A94                     u6911:
  5884  0A94  2A97               	goto	l4174
  5885  0A95                     u6910:
  5886  0A95                     l4172:
  5887  0A95  17B9               	bsf	(___fladd@b^(0+384)+2),7
  5888  0A96  2A9B               	goto	l625
  5889  0A97                     l4174:
  5890  0A97  307F               	movlw	127
  5891  0A98  00BF               	movwf	??___fladd^(0+384)
  5892  0A99  083F               	movf	??___fladd^(0+384),w
  5893  0A9A  05B9               	andwf	(___fladd@b^(0+384)+2),f
  5894  0A9B                     l625:
  5895  0A9B  0849               	movf	___fladd@bexp^(0+384),w
  5896  0A9C  00BF               	movwf	??___fladd^(0+384)
  5897  0A9D  1003               	clrc
  5898  0A9E  0C3F               	rrf	??___fladd^(0+384),w
  5899  0A9F  00C0               	movwf	(??___fladd+1)^(0+384)
  5900  0AA0  0840               	movf	(??___fladd+1)^(0+384),w
  5901  0AA1  00BA               	movwf	(___fladd@b^(0+384)+3)
  5902  0AA2                     l4176:
  5903  0AA2  1FC7               	btfss	___fladd@signs^(0+384),7
  5904  0AA3  2AA5               	goto	u6921
  5905  0AA4  2AA6               	goto	u6920
  5906  0AA5                     u6921:
  5907  0AA5  2AA7               	goto	l626
  5908  0AA6                     u6920:
  5909  0AA6                     l4178:
  5910  0AA6  17BA               	bsf	(___fladd@b^(0+384)+3),7
  5911  0AA7                     l626:
  5912  0AA7                     l596:
  5913  0AA7  0008               	return
  5914  0AA8                     __end_of___fladd:
  5915                           
  5916                           	psect	text12
  5917  0D48                     __ptext12:	
  5918 ;; *************** function _isr *****************
  5919 ;; Defined at:
  5920 ;;		line 81 in file "main_master.c"
  5921 ;; Parameters:    Size  Location     Type
  5922 ;;		None
  5923 ;; Auto vars:     Size  Location     Type
  5924 ;;		None
  5925 ;; Return value:  Size  Location     Type
  5926 ;;                  1    wreg      void 
  5927 ;; Registers used:
  5928 ;;		wreg, status,2, status,0, btemp+1, pclath, cstack
  5929 ;; Tracked objects:
  5930 ;;		On entry : 0/0
  5931 ;;		On exit  : 0/0
  5932 ;;		Unchanged: 0/0
  5933 ;; Data sizes:     COMMON   BANK0   BANK1   BANK3   BANK2
  5934 ;;      Params:         0       0       0       0       0
  5935 ;;      Locals:         0       0       0       0       0
  5936 ;;      Temps:          0       0       5       0       0
  5937 ;;      Totals:         0       0       5       0       0
  5938 ;;Total ram usage:        5 bytes
  5939 ;; Hardware stack levels used: 1
  5940 ;; Hardware stack levels required when called: 4
  5941 ;; This function calls:
  5942 ;;		_write_EEPROM
  5943 ;;		i1_move_servo
  5944 ;;		i1_read_EEPROM
  5945 ;;		i1_send_data
  5946 ;; This function is called by:
  5947 ;;		Interrupt level 1
  5948 ;; This function uses a non-reentrant model
  5949 ;;
  5950                           
  5951  0D48                     _isr:	
  5952                           ;psect for function _isr
  5953                           
  5954  0D48                     i1l3698:
  5955                           
  5956                           ;main_master.c: 83:     if (INTCONbits.RBIF)
  5957  0D48  1C0B               	btfss	11,0	;volatile
  5958  0D49  2D4B               	goto	u601_21
  5959  0D4A  2D4C               	goto	u601_20
  5960  0D4B                     u601_21:
  5961  0D4B  2EFA               	goto	i1l3778
  5962  0D4C                     u601_20:
  5963  0D4C                     i1l3700:
  5964                           
  5965                           ;main_master.c: 86:             mode_flag = mode_flag++;
  5966  0D4C  1283               	bcf	3,5	;RP0=0, select bank0
  5967  0D4D  1303               	bcf	3,6	;RP1=0, select bank0
  5968  0D4E  1806               	btfsc	6,0	;volatile
  5969  0D4F  2D51               	goto	u602_21
  5970  0D50  2D52               	goto	u602_20
  5971  0D51                     u602_21:
  5972  0D51  2D60               	goto	i1l114
  5973  0D52                     u602_20:
  5974  0D52                     i1l3702:
  5975  0D52  3001               	movlw	1
  5976  0D53  1683               	bsf	3,5	;RP0=1, select bank1
  5977  0D54  1303               	bcf	3,6	;RP1=0, select bank1
  5978  0D55  00B0               	movwf	??_isr^(0+128)
  5979  0D56  0830               	movf	??_isr^(0+128),w
  5980  0D57  07D6               	addwf	_mode_flag^(0+128),f
  5981  0D58                     i1l3704:
  5982                           
  5983                           ;main_master.c: 87:             if (mode_flag >= 3)
  5984  0D58  3003               	movlw	3
  5985  0D59  0256               	subwf	_mode_flag^(0+128),w
  5986  0D5A  1C03               	skipc
  5987  0D5B  2D5D               	goto	u603_21
  5988  0D5C  2D5E               	goto	u603_20
  5989  0D5D                     u603_21:
  5990  0D5D  2EF9               	goto	i1l3776
  5991  0D5E                     u603_20:
  5992  0D5E                     i1l3706:
  5993                           
  5994                           ;main_master.c: 88:                 mode_flag = 0;
  5995  0D5E  01D6               	clrf	_mode_flag^(0+128)
  5996  0D5F  2EF9               	goto	i1l3776
  5997  0D60                     i1l114:	
  5998                           ;main_master.c: 91:         else if (!PORTBbits.RB1){
  5999                           
  6000  0D60  1886               	btfsc	6,1	;volatile
  6001  0D61  2D63               	goto	u604_21
  6002  0D62  2D64               	goto	u604_20
  6003  0D63                     u604_21:
  6004  0D63  2E32               	goto	i1l117
  6005  0D64                     u604_20:
  6006  0D64                     i1l3708:
  6007                           
  6008                           ;main_master.c: 92:             if (mode_flag == 0){
  6009  0D64  1683               	bsf	3,5	;RP0=1, select bank1
  6010  0D65  1303               	bcf	3,6	;RP1=0, select bank1
  6011  0D66  0856               	movf	_mode_flag^(0+128),w
  6012  0D67  1D03               	btfss	3,2
  6013  0D68  2D6A               	goto	u605_21
  6014  0D69  2D6B               	goto	u605_20
  6015  0D6A                     u605_21:
  6016  0D6A  2DD2               	goto	i1l3728
  6017  0D6B                     u605_20:
  6018  0D6B                     i1l3710:
  6019                           
  6020                           ;main_master.c: 93:                 CCPR_1 = read_EEPROM(0x01);
  6021  0D6B  3001               	movlw	1
  6022  0D6C  160A  158A  2437  120A  158A  	fcall	i1_read_EEPROM
  6023  0D71  1683               	bsf	3,5	;RP0=1, select bank1
  6024  0D72  1303               	bcf	3,6	;RP1=0, select bank1
  6025  0D73  00B0               	movwf	??_isr^(0+128)
  6026  0D74  01B1               	clrf	(??_isr^(0+128)+1)
  6027  0D75  0830               	movf	??_isr^(0+128),w
  6028  0D76  00D4               	movwf	_CCPR_1^(0+128)
  6029  0D77  0831               	movf	(??_isr+1)^(0+128),w
  6030  0D78  00D5               	movwf	(_CCPR_1+1)^(0+128)
  6031  0D79                     i1l3712:
  6032                           
  6033                           ;main_master.c: 94:                 move_servo (1,CCPR_1);
  6034  0D79  0854               	movf	_CCPR_1^(0+128),w
  6035  0D7A  00B0               	movwf	??_isr^(0+128)
  6036  0D7B  0830               	movf	??_isr^(0+128),w
  6037  0D7C  1283               	bcf	3,5	;RP0=0, select bank0
  6038  0D7D  1303               	bcf	3,6	;RP1=0, select bank0
  6039  0D7E  00EF               	movwf	i1move_servo@interpole_val
  6040  0D7F  3001               	movlw	1
  6041  0D80  160A  158A  2590  120A  158A  	fcall	i1_move_servo
  6042  0D85                     i1l3714:
  6043                           
  6044                           ;main_master.c: 96:                 PORTDbits.RD1 = 0;
  6045  0D85  1283               	bcf	3,5	;RP0=0, select bank0
  6046  0D86  1303               	bcf	3,6	;RP1=0, select bank0
  6047  0D87  1088               	bcf	8,1	;volatile
  6048  0D88                     i1l3716:
  6049                           
  6050                           ;main_master.c: 97:                 send_data(read_EEPROM (0x02));
  6051  0D88  3002               	movlw	2
  6052  0D89  160A  158A  2437  120A  158A  	fcall	i1_read_EEPROM
  6053  0D8E  160A  158A  2453  120A  158A  	fcall	i1_send_data
  6054  0D93                     i1l3718:
  6055                           
  6056                           ;main_master.c: 98:                 _delay((unsigned long)((50)*(500000/4000.0)));
  6057  0D93  3009               	movlw	9
  6058  0D94  1683               	bsf	3,5	;RP0=1, select bank1
  6059  0D95  1303               	bcf	3,6	;RP1=0, select bank1
  6060  0D96  00B1               	movwf	(??_isr^(0+128)+1)
  6061  0D97  301B               	movlw	27
  6062  0D98  00B0               	movwf	??_isr^(0+128)
  6063  0D99                     u802_27:
  6064  0D99  0BB0               	decfsz	??_isr^(0+128),f
  6065  0D9A  2D99               	goto	u802_27
  6066  0D9B  0BB1               	decfsz	(??_isr^(0+128)+1),f
  6067  0D9C  2D99               	goto	u802_27
  6068  0D9D  2D9E               	nop2
  6069  0D9E                     i1l3720:
  6070                           
  6071                           ;main_master.c: 100:                 CCPR_2 = read_EEPROM(0x03);
  6072  0D9E  3003               	movlw	3
  6073  0D9F  160A  158A  2437  120A  158A  	fcall	i1_read_EEPROM
  6074  0DA4  1683               	bsf	3,5	;RP0=1, select bank1
  6075  0DA5  1303               	bcf	3,6	;RP1=0, select bank1
  6076  0DA6  00B0               	movwf	??_isr^(0+128)
  6077  0DA7  01B1               	clrf	(??_isr^(0+128)+1)
  6078  0DA8  0830               	movf	??_isr^(0+128),w
  6079  0DA9  00D2               	movwf	_CCPR_2^(0+128)
  6080  0DAA  0831               	movf	(??_isr+1)^(0+128),w
  6081  0DAB  00D3               	movwf	(_CCPR_2+1)^(0+128)
  6082  0DAC                     i1l3722:
  6083                           
  6084                           ;main_master.c: 101:                 move_servo (2,CCPR_2);
  6085  0DAC  0852               	movf	_CCPR_2^(0+128),w
  6086  0DAD  00B0               	movwf	??_isr^(0+128)
  6087  0DAE  0830               	movf	??_isr^(0+128),w
  6088  0DAF  1283               	bcf	3,5	;RP0=0, select bank0
  6089  0DB0  1303               	bcf	3,6	;RP1=0, select bank0
  6090  0DB1  00EF               	movwf	i1move_servo@interpole_val
  6091  0DB2  3002               	movlw	2
  6092  0DB3  160A  158A  2590  120A  158A  	fcall	i1_move_servo
  6093  0DB8                     i1l3724:
  6094                           
  6095                           ;main_master.c: 103:                 PORTDbits.RD1 = 1;
  6096  0DB8  1283               	bcf	3,5	;RP0=0, select bank0
  6097  0DB9  1303               	bcf	3,6	;RP1=0, select bank0
  6098  0DBA  1488               	bsf	8,1	;volatile
  6099  0DBB                     i1l3726:
  6100                           
  6101                           ;main_master.c: 104:                 send_data(read_EEPROM (0x04));
  6102  0DBB  3004               	movlw	4
  6103  0DBC  160A  158A  2437  120A  158A  	fcall	i1_read_EEPROM
  6104  0DC1  160A  158A  2453  120A  158A  	fcall	i1_send_data
  6105                           
  6106                           ;main_master.c: 105:                 _delay((unsigned long)((50)*(500000/4000.0)));
  6107  0DC6  3009               	movlw	9
  6108  0DC7  1683               	bsf	3,5	;RP0=1, select bank1
  6109  0DC8  1303               	bcf	3,6	;RP1=0, select bank1
  6110  0DC9  00B1               	movwf	(??_isr^(0+128)+1)
  6111  0DCA  301B               	movlw	27
  6112  0DCB  00B0               	movwf	??_isr^(0+128)
  6113  0DCC                     u803_27:
  6114  0DCC  0BB0               	decfsz	??_isr^(0+128),f
  6115  0DCD  2DCC               	goto	u803_27
  6116  0DCE  0BB1               	decfsz	(??_isr^(0+128)+1),f
  6117  0DCF  2DCC               	goto	u803_27
  6118  0DD0  2DD1               	nop2
  6119                           
  6120                           ;main_master.c: 106:             }
  6121  0DD1  2EF9               	goto	i1l3776
  6122  0DD2                     i1l3728:
  6123  0DD2  0356               	decf	_mode_flag^(0+128),w
  6124  0DD3  1D03               	btfss	3,2
  6125  0DD4  2DD6               	goto	u606_21
  6126  0DD5  2DD7               	goto	u606_20
  6127  0DD6                     u606_21:
  6128  0DD6  2EF9               	goto	i1l3776
  6129  0DD7                     u606_20:
  6130  0DD7                     i1l3730:
  6131                           
  6132                           ;main_master.c: 108:                 write_EEPROM(0x01, pot_RA1);
  6133  0DD7  085A               	movf	_pot_RA1^(0+128),w
  6134  0DD8  00B0               	movwf	??_isr^(0+128)
  6135  0DD9  0830               	movf	??_isr^(0+128),w
  6136  0DDA  00F0               	movwf	write_EEPROM@data
  6137  0DDB  3001               	movlw	1
  6138  0DDC  120A  158A  2009  120A  158A  	fcall	_write_EEPROM
  6139  0DE1                     i1l3732:
  6140                           
  6141                           ;main_master.c: 109:                 _delay((unsigned long)((50)*(500000/4000.0)));
  6142  0DE1  3009               	movlw	9
  6143  0DE2  1683               	bsf	3,5	;RP0=1, select bank1
  6144  0DE3  1303               	bcf	3,6	;RP1=0, select bank1
  6145  0DE4  00B1               	movwf	(??_isr^(0+128)+1)
  6146  0DE5  301B               	movlw	27
  6147  0DE6  00B0               	movwf	??_isr^(0+128)
  6148  0DE7                     u804_27:
  6149  0DE7  0BB0               	decfsz	??_isr^(0+128),f
  6150  0DE8  2DE7               	goto	u804_27
  6151  0DE9  0BB1               	decfsz	(??_isr^(0+128)+1),f
  6152  0DEA  2DE7               	goto	u804_27
  6153  0DEB  2DEC               	nop2
  6154  0DEC                     i1l3734:
  6155                           
  6156                           ;main_master.c: 110:                 write_EEPROM(0x02, pot_RP2);
  6157  0DEC  1683               	bsf	3,5	;RP0=1, select bank1
  6158  0DED  1303               	bcf	3,6	;RP1=0, select bank1
  6159  0DEE  0859               	movf	_pot_RP2^(0+128),w
  6160  0DEF  00B0               	movwf	??_isr^(0+128)
  6161  0DF0  0830               	movf	??_isr^(0+128),w
  6162  0DF1  00F0               	movwf	write_EEPROM@data
  6163  0DF2  3002               	movlw	2
  6164  0DF3  120A  158A  2009  120A  158A  	fcall	_write_EEPROM
  6165                           
  6166                           ;main_master.c: 111:                 _delay((unsigned long)((50)*(500000/4000.0)));
  6167  0DF8  3009               	movlw	9
  6168  0DF9  1683               	bsf	3,5	;RP0=1, select bank1
  6169  0DFA  1303               	bcf	3,6	;RP1=0, select bank1
  6170  0DFB  00B1               	movwf	(??_isr^(0+128)+1)
  6171  0DFC  301B               	movlw	27
  6172  0DFD  00B0               	movwf	??_isr^(0+128)
  6173  0DFE                     u805_27:
  6174  0DFE  0BB0               	decfsz	??_isr^(0+128),f
  6175  0DFF  2DFE               	goto	u805_27
  6176  0E00  0BB1               	decfsz	(??_isr^(0+128)+1),f
  6177  0E01  2DFE               	goto	u805_27
  6178  0E02  2E03               	nop2
  6179  0E03                     i1l3736:
  6180                           
  6181                           ;main_master.c: 112:                 write_EEPROM(0x03, pot_LA1);
  6182  0E03  1683               	bsf	3,5	;RP0=1, select bank1
  6183  0E04  1303               	bcf	3,6	;RP1=0, select bank1
  6184  0E05  0858               	movf	_pot_LA1^(0+128),w
  6185  0E06  00B0               	movwf	??_isr^(0+128)
  6186  0E07  0830               	movf	??_isr^(0+128),w
  6187  0E08  00F0               	movwf	write_EEPROM@data
  6188  0E09  3003               	movlw	3
  6189  0E0A  120A  158A  2009  120A  158A  	fcall	_write_EEPROM
  6190  0E0F                     i1l3738:
  6191                           
  6192                           ;main_master.c: 113:                 _delay((unsigned long)((50)*(500000/4000.0)));
  6193  0E0F  3009               	movlw	9
  6194  0E10  1683               	bsf	3,5	;RP0=1, select bank1
  6195  0E11  1303               	bcf	3,6	;RP1=0, select bank1
  6196  0E12  00B1               	movwf	(??_isr^(0+128)+1)
  6197  0E13  301B               	movlw	27
  6198  0E14  00B0               	movwf	??_isr^(0+128)
  6199  0E15                     u806_27:
  6200  0E15  0BB0               	decfsz	??_isr^(0+128),f
  6201  0E16  2E15               	goto	u806_27
  6202  0E17  0BB1               	decfsz	(??_isr^(0+128)+1),f
  6203  0E18  2E15               	goto	u806_27
  6204  0E19  2E1A               	nop2
  6205                           
  6206                           ;main_master.c: 114:                 write_EEPROM(0x04, pot_LP2);
  6207  0E1A  1683               	bsf	3,5	;RP0=1, select bank1
  6208  0E1B  1303               	bcf	3,6	;RP1=0, select bank1
  6209  0E1C  0857               	movf	_pot_LP2^(0+128),w
  6210  0E1D  00B0               	movwf	??_isr^(0+128)
  6211  0E1E  0830               	movf	??_isr^(0+128),w
  6212  0E1F  00F0               	movwf	write_EEPROM@data
  6213  0E20  3004               	movlw	4
  6214  0E21  120A  158A  2009  120A  158A  	fcall	_write_EEPROM
  6215  0E26                     i1l3740:
  6216                           
  6217                           ;main_master.c: 115:                 _delay((unsigned long)((50)*(500000/4000.0)));
  6218  0E26  3009               	movlw	9
  6219  0E27  1683               	bsf	3,5	;RP0=1, select bank1
  6220  0E28  1303               	bcf	3,6	;RP1=0, select bank1
  6221  0E29  00B1               	movwf	(??_isr^(0+128)+1)
  6222  0E2A  301B               	movlw	27
  6223  0E2B  00B0               	movwf	??_isr^(0+128)
  6224  0E2C                     u807_27:
  6225  0E2C  0BB0               	decfsz	??_isr^(0+128),f
  6226  0E2D  2E2C               	goto	u807_27
  6227  0E2E  0BB1               	decfsz	(??_isr^(0+128)+1),f
  6228  0E2F  2E2C               	goto	u807_27
  6229  0E30  2E31               	nop2
  6230  0E31  2EF9               	goto	i1l3776
  6231  0E32                     i1l117:	
  6232                           ;main_master.c: 119:         else if (!PORTBbits.RB2){
  6233                           
  6234  0E32  1906               	btfsc	6,2	;volatile
  6235  0E33  2E35               	goto	u607_21
  6236  0E34  2E36               	goto	u607_20
  6237  0E35                     u607_21:
  6238  0E35  2EF9               	goto	i1l3776
  6239  0E36                     u607_20:
  6240  0E36                     i1l3742:
  6241                           
  6242                           ;main_master.c: 120:             if (mode_flag == 0){
  6243  0E36  1683               	bsf	3,5	;RP0=1, select bank1
  6244  0E37  1303               	bcf	3,6	;RP1=0, select bank1
  6245  0E38  0856               	movf	_mode_flag^(0+128),w
  6246  0E39  1D03               	btfss	3,2
  6247  0E3A  2E3C               	goto	u608_21
  6248  0E3B  2E3D               	goto	u608_20
  6249  0E3C                     u608_21:
  6250  0E3C  2EA4               	goto	i1l3762
  6251  0E3D                     u608_20:
  6252  0E3D                     i1l3744:
  6253                           
  6254                           ;main_master.c: 121:                 CCPR_1 = read_EEPROM(0x05);
  6255  0E3D  3005               	movlw	5
  6256  0E3E  160A  158A  2437  120A  158A  	fcall	i1_read_EEPROM
  6257  0E43  1683               	bsf	3,5	;RP0=1, select bank1
  6258  0E44  1303               	bcf	3,6	;RP1=0, select bank1
  6259  0E45  00B0               	movwf	??_isr^(0+128)
  6260  0E46  01B1               	clrf	(??_isr^(0+128)+1)
  6261  0E47  0830               	movf	??_isr^(0+128),w
  6262  0E48  00D4               	movwf	_CCPR_1^(0+128)
  6263  0E49  0831               	movf	(??_isr+1)^(0+128),w
  6264  0E4A  00D5               	movwf	(_CCPR_1+1)^(0+128)
  6265  0E4B                     i1l3746:
  6266                           
  6267                           ;main_master.c: 122:                 move_servo (1,CCPR_1);
  6268  0E4B  0854               	movf	_CCPR_1^(0+128),w
  6269  0E4C  00B0               	movwf	??_isr^(0+128)
  6270  0E4D  0830               	movf	??_isr^(0+128),w
  6271  0E4E  1283               	bcf	3,5	;RP0=0, select bank0
  6272  0E4F  1303               	bcf	3,6	;RP1=0, select bank0
  6273  0E50  00EF               	movwf	i1move_servo@interpole_val
  6274  0E51  3001               	movlw	1
  6275  0E52  160A  158A  2590  120A  158A  	fcall	i1_move_servo
  6276  0E57                     i1l3748:
  6277                           
  6278                           ;main_master.c: 124:                 PORTDbits.RD1 = 0;
  6279  0E57  1283               	bcf	3,5	;RP0=0, select bank0
  6280  0E58  1303               	bcf	3,6	;RP1=0, select bank0
  6281  0E59  1088               	bcf	8,1	;volatile
  6282  0E5A                     i1l3750:
  6283                           
  6284                           ;main_master.c: 125:                 send_data(read_EEPROM (0x06));
  6285  0E5A  3006               	movlw	6
  6286  0E5B  160A  158A  2437  120A  158A  	fcall	i1_read_EEPROM
  6287  0E60  160A  158A  2453  120A  158A  	fcall	i1_send_data
  6288  0E65                     i1l3752:
  6289                           
  6290                           ;main_master.c: 126:                 _delay((unsigned long)((50)*(500000/4000.0)));
  6291  0E65  3009               	movlw	9
  6292  0E66  1683               	bsf	3,5	;RP0=1, select bank1
  6293  0E67  1303               	bcf	3,6	;RP1=0, select bank1
  6294  0E68  00B1               	movwf	(??_isr^(0+128)+1)
  6295  0E69  301B               	movlw	27
  6296  0E6A  00B0               	movwf	??_isr^(0+128)
  6297  0E6B                     u808_27:
  6298  0E6B  0BB0               	decfsz	??_isr^(0+128),f
  6299  0E6C  2E6B               	goto	u808_27
  6300  0E6D  0BB1               	decfsz	(??_isr^(0+128)+1),f
  6301  0E6E  2E6B               	goto	u808_27
  6302  0E6F  2E70               	nop2
  6303  0E70                     i1l3754:
  6304                           
  6305                           ;main_master.c: 128:                 CCPR_2 = read_EEPROM(0x07);
  6306  0E70  3007               	movlw	7
  6307  0E71  160A  158A  2437  120A  158A  	fcall	i1_read_EEPROM
  6308  0E76  1683               	bsf	3,5	;RP0=1, select bank1
  6309  0E77  1303               	bcf	3,6	;RP1=0, select bank1
  6310  0E78  00B0               	movwf	??_isr^(0+128)
  6311  0E79  01B1               	clrf	(??_isr^(0+128)+1)
  6312  0E7A  0830               	movf	??_isr^(0+128),w
  6313  0E7B  00D2               	movwf	_CCPR_2^(0+128)
  6314  0E7C  0831               	movf	(??_isr+1)^(0+128),w
  6315  0E7D  00D3               	movwf	(_CCPR_2+1)^(0+128)
  6316  0E7E                     i1l3756:
  6317                           
  6318                           ;main_master.c: 129:                 move_servo (2,CCPR_2);
  6319  0E7E  0852               	movf	_CCPR_2^(0+128),w
  6320  0E7F  00B0               	movwf	??_isr^(0+128)
  6321  0E80  0830               	movf	??_isr^(0+128),w
  6322  0E81  1283               	bcf	3,5	;RP0=0, select bank0
  6323  0E82  1303               	bcf	3,6	;RP1=0, select bank0
  6324  0E83  00EF               	movwf	i1move_servo@interpole_val
  6325  0E84  3002               	movlw	2
  6326  0E85  160A  158A  2590  120A  158A  	fcall	i1_move_servo
  6327  0E8A                     i1l3758:
  6328                           
  6329                           ;main_master.c: 131:                 PORTDbits.RD1 = 1;
  6330  0E8A  1283               	bcf	3,5	;RP0=0, select bank0
  6331  0E8B  1303               	bcf	3,6	;RP1=0, select bank0
  6332  0E8C  1488               	bsf	8,1	;volatile
  6333  0E8D                     i1l3760:
  6334                           
  6335                           ;main_master.c: 132:                 send_data(read_EEPROM (0x08));
  6336  0E8D  3008               	movlw	8
  6337  0E8E  160A  158A  2437  120A  158A  	fcall	i1_read_EEPROM
  6338  0E93  160A  158A  2453  120A  158A  	fcall	i1_send_data
  6339                           
  6340                           ;main_master.c: 133:                 _delay((unsigned long)((50)*(500000/4000.0)));
  6341  0E98  3009               	movlw	9
  6342  0E99  1683               	bsf	3,5	;RP0=1, select bank1
  6343  0E9A  1303               	bcf	3,6	;RP1=0, select bank1
  6344  0E9B  00B1               	movwf	(??_isr^(0+128)+1)
  6345  0E9C  301B               	movlw	27
  6346  0E9D  00B0               	movwf	??_isr^(0+128)
  6347  0E9E                     u809_27:
  6348  0E9E  0BB0               	decfsz	??_isr^(0+128),f
  6349  0E9F  2E9E               	goto	u809_27
  6350  0EA0  0BB1               	decfsz	(??_isr^(0+128)+1),f
  6351  0EA1  2E9E               	goto	u809_27
  6352  0EA2  2EA3               	nop2
  6353                           
  6354                           ;main_master.c: 134:             }
  6355  0EA3  2EF9               	goto	i1l3776
  6356  0EA4                     i1l3762:
  6357  0EA4  0356               	decf	_mode_flag^(0+128),w
  6358  0EA5  1D03               	btfss	3,2
  6359  0EA6  2EA8               	goto	u609_21
  6360  0EA7  2EA9               	goto	u609_20
  6361  0EA8                     u609_21:
  6362  0EA8  2EF9               	goto	i1l3776
  6363  0EA9                     u609_20:
  6364  0EA9                     i1l3764:
  6365                           
  6366                           ;main_master.c: 136:                 write_EEPROM(0x05, pot_RA1);
  6367  0EA9  085A               	movf	_pot_RA1^(0+128),w
  6368  0EAA  00B0               	movwf	??_isr^(0+128)
  6369  0EAB  0830               	movf	??_isr^(0+128),w
  6370  0EAC  00F0               	movwf	write_EEPROM@data
  6371  0EAD  3005               	movlw	5
  6372  0EAE  120A  158A  2009  120A  158A  	fcall	_write_EEPROM
  6373  0EB3                     i1l3766:
  6374                           
  6375                           ;main_master.c: 137:                 _delay((unsigned long)((50)*(500000/4000.0)));
  6376  0EB3  3009               	movlw	9
  6377  0EB4  1683               	bsf	3,5	;RP0=1, select bank1
  6378  0EB5  1303               	bcf	3,6	;RP1=0, select bank1
  6379  0EB6  00B1               	movwf	(??_isr^(0+128)+1)
  6380  0EB7  301B               	movlw	27
  6381  0EB8  00B0               	movwf	??_isr^(0+128)
  6382  0EB9                     u810_27:
  6383  0EB9  0BB0               	decfsz	??_isr^(0+128),f
  6384  0EBA  2EB9               	goto	u810_27
  6385  0EBB  0BB1               	decfsz	(??_isr^(0+128)+1),f
  6386  0EBC  2EB9               	goto	u810_27
  6387  0EBD  2EBE               	nop2
  6388  0EBE                     i1l3768:
  6389                           
  6390                           ;main_master.c: 138:                 write_EEPROM(0x06, pot_RP2);
  6391  0EBE  1683               	bsf	3,5	;RP0=1, select bank1
  6392  0EBF  1303               	bcf	3,6	;RP1=0, select bank1
  6393  0EC0  0859               	movf	_pot_RP2^(0+128),w
  6394  0EC1  00B0               	movwf	??_isr^(0+128)
  6395  0EC2  0830               	movf	??_isr^(0+128),w
  6396  0EC3  00F0               	movwf	write_EEPROM@data
  6397  0EC4  3006               	movlw	6
  6398  0EC5  120A  158A  2009  120A  158A  	fcall	_write_EEPROM
  6399                           
  6400                           ;main_master.c: 139:                 _delay((unsigned long)((50)*(500000/4000.0)));
  6401  0ECA  3009               	movlw	9
  6402  0ECB  1683               	bsf	3,5	;RP0=1, select bank1
  6403  0ECC  1303               	bcf	3,6	;RP1=0, select bank1
  6404  0ECD  00B1               	movwf	(??_isr^(0+128)+1)
  6405  0ECE  301B               	movlw	27
  6406  0ECF  00B0               	movwf	??_isr^(0+128)
  6407  0ED0                     u811_27:
  6408  0ED0  0BB0               	decfsz	??_isr^(0+128),f
  6409  0ED1  2ED0               	goto	u811_27
  6410  0ED2  0BB1               	decfsz	(??_isr^(0+128)+1),f
  6411  0ED3  2ED0               	goto	u811_27
  6412  0ED4  2ED5               	nop2
  6413  0ED5                     i1l3770:
  6414                           
  6415                           ;main_master.c: 140:                 write_EEPROM(0x07, pot_LA1);
  6416  0ED5  1683               	bsf	3,5	;RP0=1, select bank1
  6417  0ED6  1303               	bcf	3,6	;RP1=0, select bank1
  6418  0ED7  0858               	movf	_pot_LA1^(0+128),w
  6419  0ED8  00B0               	movwf	??_isr^(0+128)
  6420  0ED9  0830               	movf	??_isr^(0+128),w
  6421  0EDA  00F0               	movwf	write_EEPROM@data
  6422  0EDB  3007               	movlw	7
  6423  0EDC  120A  158A  2009  120A  158A  	fcall	_write_EEPROM
  6424  0EE1                     i1l3772:
  6425                           
  6426                           ;main_master.c: 141:                 _delay((unsigned long)((50)*(500000/4000.0)));
  6427  0EE1  3009               	movlw	9
  6428  0EE2  1683               	bsf	3,5	;RP0=1, select bank1
  6429  0EE3  1303               	bcf	3,6	;RP1=0, select bank1
  6430  0EE4  00B1               	movwf	(??_isr^(0+128)+1)
  6431  0EE5  301B               	movlw	27
  6432  0EE6  00B0               	movwf	??_isr^(0+128)
  6433  0EE7                     u812_27:
  6434  0EE7  0BB0               	decfsz	??_isr^(0+128),f
  6435  0EE8  2EE7               	goto	u812_27
  6436  0EE9  0BB1               	decfsz	(??_isr^(0+128)+1),f
  6437  0EEA  2EE7               	goto	u812_27
  6438  0EEB  2EEC               	nop2
  6439                           
  6440                           ;main_master.c: 142:                 write_EEPROM(0x08, pot_LP2);
  6441  0EEC  1683               	bsf	3,5	;RP0=1, select bank1
  6442  0EED  1303               	bcf	3,6	;RP1=0, select bank1
  6443  0EEE  0857               	movf	_pot_LP2^(0+128),w
  6444  0EEF  00B0               	movwf	??_isr^(0+128)
  6445  0EF0  0830               	movf	??_isr^(0+128),w
  6446  0EF1  00F0               	movwf	write_EEPROM@data
  6447  0EF2  3008               	movlw	8
  6448  0EF3  120A  158A  2009  120A  158A  	fcall	_write_EEPROM
  6449  0EF8  2E26               	goto	i1l3740
  6450  0EF9                     i1l3776:
  6451                           
  6452                           ;main_master.c: 147:         INTCONbits.RBIF = 0;
  6453  0EF9  100B               	bcf	11,0	;volatile
  6454  0EFA                     i1l3778:
  6455                           
  6456                           ;main_master.c: 150:     if(PIR1bits.ADIF){
  6457  0EFA  1283               	bcf	3,5	;RP0=0, select bank0
  6458  0EFB  1303               	bcf	3,6	;RP1=0, select bank0
  6459  0EFC  1F0C               	btfss	12,6	;volatile
  6460  0EFD  2EFF               	goto	u610_21
  6461  0EFE  2F00               	goto	u610_20
  6462  0EFF                     u610_21:
  6463  0EFF  2FF5               	goto	i1l147
  6464  0F00                     u610_20:
  6465  0F00                     i1l3780:
  6466                           
  6467                           ;main_master.c: 152:         if (ADCON0bits.CHS == 0b0100){
  6468  0F00  0C1F               	rrf	31,w	;volatile
  6469  0F01  1683               	bsf	3,5	;RP0=1, select bank1
  6470  0F02  1303               	bcf	3,6	;RP1=0, select bank1
  6471  0F03  00B0               	movwf	??_isr^(0+128)
  6472  0F04  0C30               	rrf	??_isr^(0+128),w
  6473  0F05  390F               	andlw	15
  6474  0F06  3A04               	xorlw	4
  6475  0F07  1D03               	skipz
  6476  0F08  2F0A               	goto	u611_21
  6477  0F09  2F0B               	goto	u611_20
  6478  0F0A                     u611_21:
  6479  0F0A  2F2B               	goto	i1l3792
  6480  0F0B                     u611_20:
  6481  0F0B                     i1l3782:
  6482                           
  6483                           ;main_master.c: 153:                 if (ADRESH <= 87){
  6484  0F0B  3058               	movlw	88
  6485  0F0C  1283               	bcf	3,5	;RP0=0, select bank0
  6486  0F0D  1303               	bcf	3,6	;RP1=0, select bank0
  6487  0F0E  021E               	subwf	30,w	;volatile
  6488  0F0F  1803               	skipnc
  6489  0F10  2F12               	goto	u612_21
  6490  0F11  2F13               	goto	u612_20
  6491  0F12                     u612_21:
  6492  0F12  2F18               	goto	i1l3786
  6493  0F13                     u612_20:
  6494  0F13                     i1l3784:
  6495                           
  6496                           ;main_master.c: 154:                     wheel_flag_r = 1;
  6497  0F13  1683               	bsf	3,5	;RP0=1, select bank3
  6498  0F14  1703               	bsf	3,6	;RP1=1, select bank3
  6499  0F15  01E4               	clrf	_wheel_flag_r^(0+384)
  6500  0F16  0AE4               	incf	_wheel_flag_r^(0+384),f
  6501                           
  6502                           ;main_master.c: 155:                 }
  6503  0F17  2F57               	goto	i1l3804
  6504  0F18                     i1l3786:
  6505  0F18  30A7               	movlw	167
  6506  0F19  021E               	subwf	30,w	;volatile
  6507  0F1A  1C03               	skipc
  6508  0F1B  2F1D               	goto	u613_21
  6509  0F1C  2F1E               	goto	u613_20
  6510  0F1D                     u613_21:
  6511  0F1D  2F27               	goto	i1l3790
  6512  0F1E                     u613_20:
  6513  0F1E                     i1l3788:
  6514                           
  6515                           ;main_master.c: 157:                     wheel_flag_r = 2;
  6516  0F1E  3002               	movlw	2
  6517  0F1F  1683               	bsf	3,5	;RP0=1, select bank1
  6518  0F20  1303               	bcf	3,6	;RP1=0, select bank1
  6519  0F21  00B0               	movwf	??_isr^(0+128)
  6520  0F22  0830               	movf	??_isr^(0+128),w
  6521  0F23  1683               	bsf	3,5	;RP0=1, select bank3
  6522  0F24  1703               	bsf	3,6	;RP1=1, select bank3
  6523  0F25  00E4               	movwf	_wheel_flag_r^(0+384)
  6524                           
  6525                           ;main_master.c: 158:                 }
  6526  0F26  2F57               	goto	i1l3804
  6527  0F27                     i1l3790:
  6528                           
  6529                           ;main_master.c: 160:                     wheel_flag_r = 0;
  6530  0F27  1683               	bsf	3,5	;RP0=1, select bank3
  6531  0F28  1703               	bsf	3,6	;RP1=1, select bank3
  6532  0F29  01E4               	clrf	_wheel_flag_r^(0+384)
  6533  0F2A  2F57               	goto	i1l3804
  6534  0F2B                     i1l3792:
  6535  0F2B  1283               	bcf	3,5	;RP0=0, select bank0
  6536  0F2C  1303               	bcf	3,6	;RP1=0, select bank0
  6537  0F2D  0C1F               	rrf	31,w	;volatile
  6538  0F2E  1683               	bsf	3,5	;RP0=1, select bank1
  6539  0F2F  1303               	bcf	3,6	;RP1=0, select bank1
  6540  0F30  00B0               	movwf	??_isr^(0+128)
  6541  0F31  0C30               	rrf	??_isr^(0+128),w
  6542  0F32  390F               	andlw	15
  6543  0F33  3A05               	xorlw	5
  6544  0F34  1D03               	skipz
  6545  0F35  2F37               	goto	u614_21
  6546  0F36  2F38               	goto	u614_20
  6547  0F37                     u614_21:
  6548  0F37  2F57               	goto	i1l3804
  6549  0F38                     u614_20:
  6550  0F38                     i1l3794:
  6551                           
  6552                           ;main_master.c: 164:                 if (ADRESH <= 87){
  6553  0F38  3058               	movlw	88
  6554  0F39  1283               	bcf	3,5	;RP0=0, select bank0
  6555  0F3A  1303               	bcf	3,6	;RP1=0, select bank0
  6556  0F3B  021E               	subwf	30,w	;volatile
  6557  0F3C  1803               	skipnc
  6558  0F3D  2F3F               	goto	u615_21
  6559  0F3E  2F40               	goto	u615_20
  6560  0F3F                     u615_21:
  6561  0F3F  2F45               	goto	i1l3798
  6562  0F40                     u615_20:
  6563  0F40                     i1l3796:
  6564                           
  6565                           ;main_master.c: 165:                     wheel_flag_l = 1;
  6566  0F40  1683               	bsf	3,5	;RP0=1, select bank3
  6567  0F41  1703               	bsf	3,6	;RP1=1, select bank3
  6568  0F42  01E3               	clrf	_wheel_flag_l^(0+384)
  6569  0F43  0AE3               	incf	_wheel_flag_l^(0+384),f
  6570                           
  6571                           ;main_master.c: 166:                 }
  6572  0F44  2F57               	goto	i1l3804
  6573  0F45                     i1l3798:
  6574  0F45  30A7               	movlw	167
  6575  0F46  021E               	subwf	30,w	;volatile
  6576  0F47  1C03               	skipc
  6577  0F48  2F4A               	goto	u616_21
  6578  0F49  2F4B               	goto	u616_20
  6579  0F4A                     u616_21:
  6580  0F4A  2F54               	goto	i1l3802
  6581  0F4B                     u616_20:
  6582  0F4B                     i1l3800:
  6583                           
  6584                           ;main_master.c: 168:                     wheel_flag_l = 2;
  6585  0F4B  3002               	movlw	2
  6586  0F4C  1683               	bsf	3,5	;RP0=1, select bank1
  6587  0F4D  1303               	bcf	3,6	;RP1=0, select bank1
  6588  0F4E  00B0               	movwf	??_isr^(0+128)
  6589  0F4F  0830               	movf	??_isr^(0+128),w
  6590  0F50  1683               	bsf	3,5	;RP0=1, select bank3
  6591  0F51  1703               	bsf	3,6	;RP1=1, select bank3
  6592  0F52  00E3               	movwf	_wheel_flag_l^(0+384)
  6593                           
  6594                           ;main_master.c: 169:                 }
  6595  0F53  2F57               	goto	i1l3804
  6596  0F54                     i1l3802:
  6597                           
  6598                           ;main_master.c: 171:                     wheel_flag_l = 0;
  6599  0F54  1683               	bsf	3,5	;RP0=1, select bank3
  6600  0F55  1703               	bsf	3,6	;RP1=1, select bank3
  6601  0F56  01E3               	clrf	_wheel_flag_l^(0+384)
  6602  0F57                     i1l3804:
  6603                           
  6604                           ;main_master.c: 174:         if (mode_flag == 1){
  6605  0F57  1303               	bcf	3,6	;RP1=0, select bank1
  6606  0F58  0356               	decf	_mode_flag^(0+128),w
  6607  0F59  1D03               	btfss	3,2
  6608  0F5A  2F5C               	goto	u617_21
  6609  0F5B  2F5D               	goto	u617_20
  6610  0F5C                     u617_21:
  6611  0F5C  2FF2               	goto	i1l138
  6612  0F5D                     u617_20:
  6613  0F5D                     i1l3806:
  6614                           
  6615                           ;main_master.c: 175:             if(ADCON0bits.CHS == 0b0000){
  6616  0F5D  1283               	bcf	3,5	;RP0=0, select bank0
  6617  0F5E  1303               	bcf	3,6	;RP1=0, select bank0
  6618  0F5F  0C1F               	rrf	31,w	;volatile
  6619  0F60  1683               	bsf	3,5	;RP0=1, select bank1
  6620  0F61  1303               	bcf	3,6	;RP1=0, select bank1
  6621  0F62  00B0               	movwf	??_isr^(0+128)
  6622  0F63  0C30               	rrf	??_isr^(0+128),w
  6623  0F64  390F               	andlw	15
  6624  0F65  3A00               	xorlw	0
  6625  0F66  1D03               	skipz
  6626  0F67  2F69               	goto	u618_21
  6627  0F68  2F6A               	goto	u618_20
  6628  0F69                     u618_21:
  6629  0F69  2F83               	goto	i1l3812
  6630  0F6A                     u618_20:
  6631  0F6A                     i1l3808:
  6632                           
  6633                           ;main_master.c: 176:                 pot_RA1 = ADRESH;
  6634  0F6A  1283               	bcf	3,5	;RP0=0, select bank0
  6635  0F6B  1303               	bcf	3,6	;RP1=0, select bank0
  6636  0F6C  081E               	movf	30,w	;volatile
  6637  0F6D  1683               	bsf	3,5	;RP0=1, select bank1
  6638  0F6E  1303               	bcf	3,6	;RP1=0, select bank1
  6639  0F6F  00B0               	movwf	??_isr^(0+128)
  6640  0F70  0830               	movf	??_isr^(0+128),w
  6641  0F71  00DA               	movwf	_pot_RA1^(0+128)
  6642  0F72                     i1l3810:
  6643                           
  6644                           ;main_master.c: 177:                 move_servo (1,ADRESH);
  6645  0F72  1283               	bcf	3,5	;RP0=0, select bank0
  6646  0F73  1303               	bcf	3,6	;RP1=0, select bank0
  6647  0F74  081E               	movf	30,w	;volatile
  6648  0F75  1683               	bsf	3,5	;RP0=1, select bank1
  6649  0F76  1303               	bcf	3,6	;RP1=0, select bank1
  6650  0F77  00B0               	movwf	??_isr^(0+128)
  6651  0F78  0830               	movf	??_isr^(0+128),w
  6652  0F79  1283               	bcf	3,5	;RP0=0, select bank0
  6653  0F7A  1303               	bcf	3,6	;RP1=0, select bank0
  6654  0F7B  00EF               	movwf	i1move_servo@interpole_val
  6655  0F7C  3001               	movlw	1
  6656  0F7D  160A  158A  2590  120A  158A  	fcall	i1_move_servo
  6657                           
  6658                           ;main_master.c: 178:             }
  6659  0F82  2FF2               	goto	i1l138
  6660  0F83                     i1l3812:
  6661  0F83  1283               	bcf	3,5	;RP0=0, select bank0
  6662  0F84  1303               	bcf	3,6	;RP1=0, select bank0
  6663  0F85  0C1F               	rrf	31,w	;volatile
  6664  0F86  1683               	bsf	3,5	;RP0=1, select bank1
  6665  0F87  1303               	bcf	3,6	;RP1=0, select bank1
  6666  0F88  00B0               	movwf	??_isr^(0+128)
  6667  0F89  0C30               	rrf	??_isr^(0+128),w
  6668  0F8A  390F               	andlw	15
  6669  0F8B  3A01               	xorlw	1
  6670  0F8C  1D03               	skipz
  6671  0F8D  2F8F               	goto	u619_21
  6672  0F8E  2F90               	goto	u619_20
  6673  0F8F                     u619_21:
  6674  0F8F  2FAD               	goto	i1l3822
  6675  0F90                     u619_20:
  6676  0F90                     i1l3814:
  6677                           
  6678                           ;main_master.c: 180:                 pot_RP2 = ADRESH;
  6679  0F90  1283               	bcf	3,5	;RP0=0, select bank0
  6680  0F91  1303               	bcf	3,6	;RP1=0, select bank0
  6681  0F92  081E               	movf	30,w	;volatile
  6682  0F93  1683               	bsf	3,5	;RP0=1, select bank1
  6683  0F94  1303               	bcf	3,6	;RP1=0, select bank1
  6684  0F95  00B0               	movwf	??_isr^(0+128)
  6685  0F96  0830               	movf	??_isr^(0+128),w
  6686  0F97  00D9               	movwf	_pot_RP2^(0+128)
  6687  0F98                     i1l3816:
  6688                           
  6689                           ;main_master.c: 181:                 PORTDbits.RD1 = 0;
  6690  0F98  1283               	bcf	3,5	;RP0=0, select bank0
  6691  0F99  1303               	bcf	3,6	;RP1=0, select bank0
  6692  0F9A  1088               	bcf	8,1	;volatile
  6693  0F9B                     i1l3818:
  6694                           
  6695                           ;main_master.c: 182:                 send_data(ADRESH);
  6696  0F9B  081E               	movf	30,w	;volatile
  6697  0F9C  160A  158A  2453  120A  158A  	fcall	i1_send_data
  6698  0FA1                     i1l3820:
  6699                           
  6700                           ;main_master.c: 183:                 _delay((unsigned long)((50)*(500000/4000.0)));
  6701  0FA1  3009               	movlw	9
  6702  0FA2  1683               	bsf	3,5	;RP0=1, select bank1
  6703  0FA3  1303               	bcf	3,6	;RP1=0, select bank1
  6704  0FA4  00B1               	movwf	(??_isr^(0+128)+1)
  6705  0FA5  301B               	movlw	27
  6706  0FA6  00B0               	movwf	??_isr^(0+128)
  6707  0FA7                     u813_27:
  6708  0FA7  0BB0               	decfsz	??_isr^(0+128),f
  6709  0FA8  2FA7               	goto	u813_27
  6710  0FA9  0BB1               	decfsz	(??_isr^(0+128)+1),f
  6711  0FAA  2FA7               	goto	u813_27
  6712  0FAB  2FAC               	nop2
  6713                           
  6714                           ;main_master.c: 184:             }
  6715  0FAC  2FF2               	goto	i1l138
  6716  0FAD                     i1l3822:
  6717  0FAD  1283               	bcf	3,5	;RP0=0, select bank0
  6718  0FAE  1303               	bcf	3,6	;RP1=0, select bank0
  6719  0FAF  0C1F               	rrf	31,w	;volatile
  6720  0FB0  1683               	bsf	3,5	;RP0=1, select bank1
  6721  0FB1  1303               	bcf	3,6	;RP1=0, select bank1
  6722  0FB2  00B0               	movwf	??_isr^(0+128)
  6723  0FB3  0C30               	rrf	??_isr^(0+128),w
  6724  0FB4  390F               	andlw	15
  6725  0FB5  3A02               	xorlw	2
  6726  0FB6  1D03               	skipz
  6727  0FB7  2FB9               	goto	u620_21
  6728  0FB8  2FBA               	goto	u620_20
  6729  0FB9                     u620_21:
  6730  0FB9  2FD3               	goto	i1l3828
  6731  0FBA                     u620_20:
  6732  0FBA                     i1l3824:
  6733                           
  6734                           ;main_master.c: 186:                 pot_LA1 = ADRESH;
  6735  0FBA  1283               	bcf	3,5	;RP0=0, select bank0
  6736  0FBB  1303               	bcf	3,6	;RP1=0, select bank0
  6737  0FBC  081E               	movf	30,w	;volatile
  6738  0FBD  1683               	bsf	3,5	;RP0=1, select bank1
  6739  0FBE  1303               	bcf	3,6	;RP1=0, select bank1
  6740  0FBF  00B0               	movwf	??_isr^(0+128)
  6741  0FC0  0830               	movf	??_isr^(0+128),w
  6742  0FC1  00D8               	movwf	_pot_LA1^(0+128)
  6743  0FC2                     i1l3826:
  6744                           
  6745                           ;main_master.c: 187:                 move_servo (2,ADRESH);
  6746  0FC2  1283               	bcf	3,5	;RP0=0, select bank0
  6747  0FC3  1303               	bcf	3,6	;RP1=0, select bank0
  6748  0FC4  081E               	movf	30,w	;volatile
  6749  0FC5  1683               	bsf	3,5	;RP0=1, select bank1
  6750  0FC6  1303               	bcf	3,6	;RP1=0, select bank1
  6751  0FC7  00B0               	movwf	??_isr^(0+128)
  6752  0FC8  0830               	movf	??_isr^(0+128),w
  6753  0FC9  1283               	bcf	3,5	;RP0=0, select bank0
  6754  0FCA  1303               	bcf	3,6	;RP1=0, select bank0
  6755  0FCB  00EF               	movwf	i1move_servo@interpole_val
  6756  0FCC  3002               	movlw	2
  6757  0FCD  160A  158A  2590  120A  158A  	fcall	i1_move_servo
  6758                           
  6759                           ;main_master.c: 188:             }
  6760  0FD2  2FF2               	goto	i1l138
  6761  0FD3                     i1l3828:
  6762  0FD3  1283               	bcf	3,5	;RP0=0, select bank0
  6763  0FD4  1303               	bcf	3,6	;RP1=0, select bank0
  6764  0FD5  0C1F               	rrf	31,w	;volatile
  6765  0FD6  1683               	bsf	3,5	;RP0=1, select bank1
  6766  0FD7  1303               	bcf	3,6	;RP1=0, select bank1
  6767  0FD8  00B0               	movwf	??_isr^(0+128)
  6768  0FD9  0C30               	rrf	??_isr^(0+128),w
  6769  0FDA  390F               	andlw	15
  6770  0FDB  3A03               	xorlw	3
  6771  0FDC  1D03               	skipz
  6772  0FDD  2FDF               	goto	u621_21
  6773  0FDE  2FE0               	goto	u621_20
  6774  0FDF                     u621_21:
  6775  0FDF  2FF2               	goto	i1l142
  6776  0FE0                     u621_20:
  6777  0FE0                     i1l3830:
  6778                           
  6779                           ;main_master.c: 190:                 pot_LP2 = ADRESH;
  6780  0FE0  1283               	bcf	3,5	;RP0=0, select bank0
  6781  0FE1  1303               	bcf	3,6	;RP1=0, select bank0
  6782  0FE2  081E               	movf	30,w	;volatile
  6783  0FE3  1683               	bsf	3,5	;RP0=1, select bank1
  6784  0FE4  1303               	bcf	3,6	;RP1=0, select bank1
  6785  0FE5  00B0               	movwf	??_isr^(0+128)
  6786  0FE6  0830               	movf	??_isr^(0+128),w
  6787  0FE7  00D7               	movwf	_pot_LP2^(0+128)
  6788  0FE8                     i1l3832:
  6789                           
  6790                           ;main_master.c: 191:                 PORTDbits.RD1 = 1;
  6791  0FE8  1283               	bcf	3,5	;RP0=0, select bank0
  6792  0FE9  1303               	bcf	3,6	;RP1=0, select bank0
  6793  0FEA  1488               	bsf	8,1	;volatile
  6794  0FEB                     i1l3834:
  6795                           
  6796                           ;main_master.c: 192:                 send_data(ADRESH);
  6797  0FEB  081E               	movf	30,w	;volatile
  6798  0FEC  160A  158A  2453  120A  158A  	fcall	i1_send_data
  6799  0FF1  2FA1               	goto	i1l3820
  6800  0FF2                     i1l142:
  6801  0FF2                     i1l138:	
  6802                           ;main_master.c: 197:         }
  6803                           
  6804                           
  6805                           ;main_master.c: 198:         PIR1bits.ADIF = 0;
  6806  0FF2  1283               	bcf	3,5	;RP0=0, select bank0
  6807  0FF3  1303               	bcf	3,6	;RP1=0, select bank0
  6808  0FF4  130C               	bcf	12,6	;volatile
  6809  0FF5                     i1l147:
  6810  0FF5  1683               	bsf	3,5	;RP0=1, select bank1
  6811  0FF6  1303               	bcf	3,6	;RP1=0, select bank1
  6812  0FF7  0834               	movf	(??_isr+4)^(0+128),w
  6813  0FF8  00FF               	movwf	btemp+1
  6814  0FF9  0833               	movf	(??_isr+3)^(0+128),w
  6815  0FFA  008A               	movwf	10
  6816  0FFB  0E32               	swapf	(??_isr+2)^(0+128),w
  6817  0FFC  0083               	movwf	3
  6818  0FFD  0EFE               	swapf	btemp,f
  6819  0FFE  0E7E               	swapf	btemp,w
  6820  0FFF  0009               	retfie
  6821  1000                     __end_of_isr:
  6822                           
  6823                           	psect	intentry
  6824  0004                     __pintentry:	
  6825                           ;incstack = 0
  6826 ;; hardware stack exceeded
  6827                           ; Regs used in _isr: [wreg+status,2+status,0+btemp+1+pclath+cstack]
  6828                           
  6829  0004                     interrupt_function:
  6830  007E                     saved_w	set	btemp
  6831  0004  00FE               	movwf	btemp
  6832  0005  0E03               	swapf	3,w
  6833  0006  1683               	bsf	3,5	;RP0=1, select bank1
  6834  0007  1303               	bcf	3,6	;RP1=0, select bank1
  6835  0008  00B2               	movwf	(??_isr+2)^(0+128)
  6836  0009  080A               	movf	10,w
  6837  000A  00B3               	movwf	(??_isr+3)^(0+128)
  6838  000B  087F               	movf	btemp+1,w
  6839  000C  00B4               	movwf	(??_isr+4)^(0+128)
  6840  000D  120A  158A  2D48   	ljmp	_isr
  6841                           
  6842                           	psect	text13
  6843  1C53                     __ptext13:	
  6844 ;; *************** function i1_send_data *****************
  6845 ;; Defined at:
  6846 ;;		line 462 in file "main_master.c"
  6847 ;; Parameters:    Size  Location     Type
  6848 ;;  data            1    wreg     unsigned char 
  6849 ;; Auto vars:     Size  Location     Type
  6850 ;;  data            1    0[COMMON] unsigned char 
  6851 ;; Return value:  Size  Location     Type
  6852 ;;                  1    wreg      void 
  6853 ;; Registers used:
  6854 ;;		wreg
  6855 ;; Tracked objects:
  6856 ;;		On entry : 0/0
  6857 ;;		On exit  : 0/0
  6858 ;;		Unchanged: 0/0
  6859 ;; Data sizes:     COMMON   BANK0   BANK1   BANK3   BANK2
  6860 ;;      Params:         0       0       0       0       0
  6861 ;;      Locals:         1       0       0       0       0
  6862 ;;      Temps:          0       0       0       0       0
  6863 ;;      Totals:         1       0       0       0       0
  6864 ;;Total ram usage:        1 bytes
  6865 ;; Hardware stack levels used: 1
  6866 ;; This function calls:
  6867 ;;		Nothing
  6868 ;; This function is called by:
  6869 ;;		_isr
  6870 ;; This function uses a non-reentrant model
  6871 ;;
  6872                           
  6873  1C53                     i1_send_data:	
  6874                           ;psect for function i1_send_data
  6875                           
  6876                           
  6877                           ;incstack = 0
  6878                           ; Regs used in i1_send_data: [wreg]
  6879                           ;i1send_data@data stored from wreg
  6880  1C53  00F0               	movwf	i1send_data@data
  6881  1C54                     i1l3686:
  6882                           
  6883                           ;main_master.c: 464:     PORTDbits.RD0 = 0;
  6884  1C54  1283               	bcf	3,5	;RP0=0, select bank0
  6885  1C55  1303               	bcf	3,6	;RP1=0, select bank0
  6886  1C56  1008               	bcf	8,0	;volatile
  6887  1C57                     i1l3688:
  6888                           
  6889                           ;main_master.c: 465:     SSPBUF = data;
  6890  1C57  0870               	movf	i1send_data@data,w
  6891  1C58  0093               	movwf	19	;volatile
  6892  1C59                     i1l195:	
  6893                           ;main_master.c: 466:     while(!SSPSTATbits.BF){}
  6894                           
  6895  1C59  1683               	bsf	3,5	;RP0=1, select bank1
  6896  1C5A  1303               	bcf	3,6	;RP1=0, select bank1
  6897  1C5B  1C14               	btfss	20,0	;volatile
  6898  1C5C  2C5E               	goto	u600_21
  6899  1C5D  2C5F               	goto	u600_20
  6900  1C5E                     u600_21:
  6901  1C5E  2C59               	goto	i1l195
  6902  1C5F                     u600_20:
  6903  1C5F                     i1l197:
  6904                           
  6905                           ;main_master.c: 467:     PORTDbits.RD0 = 1;
  6906  1C5F  1283               	bcf	3,5	;RP0=0, select bank0
  6907  1C60  1303               	bcf	3,6	;RP1=0, select bank0
  6908  1C61  1408               	bsf	8,0	;volatile
  6909  1C62                     i1l198:	
  6910                           ;main_master.c: 469:     return;
  6911                           
  6912  1C62  0008               	return
  6913  1C63                     __end_ofi1_send_data:
  6914                           
  6915                           	psect	text14
  6916  1C37                     __ptext14:	
  6917 ;; *************** function i1_read_EEPROM *****************
  6918 ;; Defined at:
  6919 ;;		line 473 in file "main_master.c"
  6920 ;; Parameters:    Size  Location     Type
  6921 ;;  address         1    wreg     unsigned char 
  6922 ;; Auto vars:     Size  Location     Type
  6923 ;;  address         1    0[COMMON] unsigned char 
  6924 ;; Return value:  Size  Location     Type
  6925 ;;                  1    wreg      unsigned char 
  6926 ;; Registers used:
  6927 ;;		wreg
  6928 ;; Tracked objects:
  6929 ;;		On entry : 0/0
  6930 ;;		On exit  : 0/0
  6931 ;;		Unchanged: 0/0
  6932 ;; Data sizes:     COMMON   BANK0   BANK1   BANK3   BANK2
  6933 ;;      Params:         0       0       0       0       0
  6934 ;;      Locals:         1       0       0       0       0
  6935 ;;      Temps:          0       0       0       0       0
  6936 ;;      Totals:         1       0       0       0       0
  6937 ;;Total ram usage:        1 bytes
  6938 ;; Hardware stack levels used: 1
  6939 ;; This function calls:
  6940 ;;		Nothing
  6941 ;; This function is called by:
  6942 ;;		_isr
  6943 ;; This function uses a non-reentrant model
  6944 ;;
  6945                           
  6946  1C37                     i1_read_EEPROM:	
  6947                           ;psect for function i1_read_EEPROM
  6948                           
  6949                           
  6950                           ;incstack = 0
  6951                           ; Regs used in i1_read_EEPROM: [wreg]
  6952                           ;i1read_EEPROM@address stored from wreg
  6953  1C37  00F0               	movwf	i1read_EEPROM@address
  6954  1C38                     i1l3690:
  6955                           
  6956                           ;main_master.c: 474:     EEADR = address;
  6957  1C38  0870               	movf	i1read_EEPROM@address,w
  6958  1C39  1283               	bcf	3,5	;RP0=0, select bank2
  6959  1C3A  1703               	bsf	3,6	;RP1=1, select bank2
  6960  1C3B  008D               	movwf	13	;volatile
  6961  1C3C                     i1l3692:
  6962                           
  6963                           ;main_master.c: 475:     EECON1bits.EEPGD = 0;
  6964  1C3C  1683               	bsf	3,5	;RP0=1, select bank3
  6965  1C3D  1703               	bsf	3,6	;RP1=1, select bank3
  6966  1C3E  138C               	bcf	12,7	;volsfr
  6967  1C3F                     i1l3694:
  6968                           
  6969                           ;main_master.c: 476:     EECON1bits.RD = 1;
  6970  1C3F  140C               	bsf	12,0	;volsfr
  6971                           
  6972                           ;main_master.c: 477:     return EEDAT;
  6973  1C40  1283               	bcf	3,5	;RP0=0, select bank2
  6974  1C41  1703               	bsf	3,6	;RP1=1, select bank2
  6975  1C42  080C               	movf	12,w	;volatile
  6976  1C43                     i1l201:
  6977  1C43  0008               	return
  6978  1C44                     __end_ofi1_read_EEPROM:
  6979                           
  6980                           	psect	text15
  6981  1D90                     __ptext15:	
  6982 ;; *************** function i1_move_servo *****************
  6983 ;; Defined at:
  6984 ;;		line 444 in file "main_master.c"
  6985 ;; Parameters:    Size  Location     Type
  6986 ;;  servo           1    wreg     unsigned char 
  6987 ;;  interpole_va    1   79[BANK0 ] unsigned char 
  6988 ;; Auto vars:     Size  Location     Type
  6989 ;;  servo           1   13[BANK1 ] unsigned char 
  6990 ;;  CCPR            2   14[BANK1 ] unsigned short 
  6991 ;; Return value:  Size  Location     Type
  6992 ;;                  1    wreg      void 
  6993 ;; Registers used:
  6994 ;;		wreg, status,2, status,0, btemp+1, pclath, cstack
  6995 ;; Tracked objects:
  6996 ;;		On entry : 0/0
  6997 ;;		On exit  : 0/0
  6998 ;;		Unchanged: 0/0
  6999 ;; Data sizes:     COMMON   BANK0   BANK1   BANK3   BANK2
  7000 ;;      Params:         0       1       0       0       0
  7001 ;;      Locals:         0       0       3       0       0
  7002 ;;      Temps:          0       0       2       0       0
  7003 ;;      Totals:         0       1       5       0       0
  7004 ;;Total ram usage:        6 bytes
  7005 ;; Hardware stack levels used: 1
  7006 ;; Hardware stack levels required when called: 3
  7007 ;; This function calls:
  7008 ;;		i1_interpole
  7009 ;; This function is called by:
  7010 ;;		_isr
  7011 ;; This function uses a non-reentrant model
  7012 ;;
  7013                           
  7014  1D90                     i1_move_servo:	
  7015                           ;psect for function i1_move_servo
  7016                           
  7017                           
  7018                           ;incstack = 0
  7019 ;; hardware stack exceeded
  7020                           ; Regs used in i1_move_servo: [wreg+status,2+status,0+btemp+1+pclath+cstack]
  7021                           ;i1move_servo@servo stored from wreg
  7022  1D90  1683               	bsf	3,5	;RP0=1, select bank1
  7023  1D91  1303               	bcf	3,6	;RP1=0, select bank1
  7024  1D92  00AD               	movwf	i1move_servo@servo^(0+128)
  7025  1D93                     i1l3666:
  7026  1D93                     i1l3668:
  7027                           
  7028                           ;main_master.c: 447:     if (servo == 1){
  7029  1D93  032D               	decf	i1move_servo@servo^(0+128),w
  7030  1D94  1D03               	btfss	3,2
  7031  1D95  2D97               	goto	u599_21
  7032  1D96  2D98               	goto	u599_20
  7033  1D97                     u599_21:
  7034  1D97  2DD3               	goto	i1l3676
  7035  1D98                     u599_20:
  7036  1D98                     i1l3670:
  7037                           
  7038                           ;main_master.c: 448:         CCPR = interpole(interpole_val, 0, 255, 20, 80);
  7039  1D98  01A5               	clrf	i1interpole@in_min^(0+128)
  7040  1D99  30FF               	movlw	255
  7041  1D9A  00AB               	movwf	??i1_move_servo^(0+128)
  7042  1D9B  082B               	movf	??i1_move_servo^(0+128),w
  7043  1D9C  00A6               	movwf	i1interpole@in_max^(0+128)
  7044  1D9D  3014               	movlw	20
  7045  1D9E  00A7               	movwf	i1interpole@out_min^(0+128)
  7046  1D9F  3000               	movlw	0
  7047  1DA0  00A8               	movwf	(i1interpole@out_min^(0+128)+1)
  7048  1DA1  3050               	movlw	80
  7049  1DA2  00A9               	movwf	i1interpole@out_max^(0+128)
  7050  1DA3  3000               	movlw	0
  7051  1DA4  00AA               	movwf	(i1interpole@out_max^(0+128)+1)
  7052  1DA5  1283               	bcf	3,5	;RP0=0, select bank0
  7053  1DA6  1303               	bcf	3,6	;RP1=0, select bank0
  7054  1DA7  086F               	movf	i1move_servo@interpole_val,w
  7055  1DA8  160A  158A  274E  160A  158A  	fcall	i1_interpole
  7056  1DAD  1683               	bsf	3,5	;RP0=1, select bank1
  7057  1DAE  1303               	bcf	3,6	;RP1=0, select bank1
  7058  1DAF  0826               	movf	(?i1_interpole+1)^(0+128),w
  7059  1DB0  00AF               	movwf	(i1move_servo@CCPR+1)^(0+128)
  7060  1DB1  0825               	movf	?i1_interpole^(0+128),w
  7061  1DB2  00AE               	movwf	i1move_servo@CCPR^(0+128)
  7062  1DB3                     i1l3672:
  7063                           
  7064                           ;main_master.c: 449:         CCPR1L = (uint8_t)(CCPR>>2);
  7065  1DB3  082F               	movf	(i1move_servo@CCPR+1)^(0+128),w
  7066  1DB4  00AC               	movwf	(??i1_move_servo^(0+128)+1)
  7067  1DB5  082E               	movf	i1move_servo@CCPR^(0+128),w
  7068  1DB6  00AB               	movwf	??i1_move_servo^(0+128)
  7069  1DB7  1003               	clrc
  7070  1DB8  0CAC               	rrf	(??i1_move_servo^(0+128)+1),f
  7071  1DB9  0CAB               	rrf	??i1_move_servo^(0+128),f
  7072  1DBA  1003               	clrc
  7073  1DBB  0CAC               	rrf	(??i1_move_servo^(0+128)+1),f
  7074  1DBC  0CAB               	rrf	??i1_move_servo^(0+128),f
  7075  1DBD  082B               	movf	??i1_move_servo^(0+128),w
  7076  1DBE  1283               	bcf	3,5	;RP0=0, select bank0
  7077  1DBF  1303               	bcf	3,6	;RP1=0, select bank0
  7078  1DC0  0095               	movwf	21	;volatile
  7079  1DC1                     i1l3674:
  7080                           
  7081                           ;main_master.c: 450:         CCP1CONbits.DC1B = CCPR & 0b11;
  7082  1DC1  1683               	bsf	3,5	;RP0=1, select bank1
  7083  1DC2  1303               	bcf	3,6	;RP1=0, select bank1
  7084  1DC3  082E               	movf	i1move_servo@CCPR^(0+128),w
  7085  1DC4  3903               	andlw	3
  7086  1DC5  00AB               	movwf	??i1_move_servo^(0+128)
  7087  1DC6  0EAB               	swapf	??i1_move_servo^(0+128),f
  7088  1DC7  1283               	bcf	3,5	;RP0=0, select bank0
  7089  1DC8  1303               	bcf	3,6	;RP1=0, select bank0
  7090  1DC9  0817               	movf	23,w	;volatile
  7091  1DCA  1683               	bsf	3,5	;RP0=1, select bank1
  7092  1DCB  1303               	bcf	3,6	;RP1=0, select bank1
  7093  1DCC  062B               	xorwf	??i1_move_servo^(0+128),w
  7094  1DCD  39CF               	andlw	-49
  7095  1DCE  062B               	xorwf	??i1_move_servo^(0+128),w
  7096  1DCF  1283               	bcf	3,5	;RP0=0, select bank0
  7097  1DD0  1303               	bcf	3,6	;RP1=0, select bank0
  7098  1DD1  0097               	movwf	23	;volatile
  7099                           
  7100                           ;main_master.c: 451:     }
  7101  1DD2  2E1F               	goto	i1l192
  7102  1DD3                     i1l3676:
  7103                           
  7104                           ;main_master.c: 453:         CCPR = interpole(interpole_val, 0, 255, 20, 80);
  7105  1DD3  01A5               	clrf	i1interpole@in_min^(0+128)
  7106  1DD4  30FF               	movlw	255
  7107  1DD5  00AB               	movwf	??i1_move_servo^(0+128)
  7108  1DD6  082B               	movf	??i1_move_servo^(0+128),w
  7109  1DD7  00A6               	movwf	i1interpole@in_max^(0+128)
  7110  1DD8  3014               	movlw	20
  7111  1DD9  00A7               	movwf	i1interpole@out_min^(0+128)
  7112  1DDA  3000               	movlw	0
  7113  1DDB  00A8               	movwf	(i1interpole@out_min^(0+128)+1)
  7114  1DDC  3050               	movlw	80
  7115  1DDD  00A9               	movwf	i1interpole@out_max^(0+128)
  7116  1DDE  3000               	movlw	0
  7117  1DDF  00AA               	movwf	(i1interpole@out_max^(0+128)+1)
  7118  1DE0  1283               	bcf	3,5	;RP0=0, select bank0
  7119  1DE1  1303               	bcf	3,6	;RP1=0, select bank0
  7120  1DE2  086F               	movf	i1move_servo@interpole_val,w
  7121  1DE3  160A  158A  274E  160A  158A  	fcall	i1_interpole
  7122  1DE8  1683               	bsf	3,5	;RP0=1, select bank1
  7123  1DE9  1303               	bcf	3,6	;RP1=0, select bank1
  7124  1DEA  0826               	movf	(?i1_interpole+1)^(0+128),w
  7125  1DEB  00AF               	movwf	(i1move_servo@CCPR+1)^(0+128)
  7126  1DEC  0825               	movf	?i1_interpole^(0+128),w
  7127  1DED  00AE               	movwf	i1move_servo@CCPR^(0+128)
  7128  1DEE                     i1l3678:
  7129                           
  7130                           ;main_master.c: 454:         CCPR2L = (uint8_t) (CCPR>>2);
  7131  1DEE  082F               	movf	(i1move_servo@CCPR+1)^(0+128),w
  7132  1DEF  00AC               	movwf	(??i1_move_servo^(0+128)+1)
  7133  1DF0  082E               	movf	i1move_servo@CCPR^(0+128),w
  7134  1DF1  00AB               	movwf	??i1_move_servo^(0+128)
  7135  1DF2  1003               	clrc
  7136  1DF3  0CAC               	rrf	(??i1_move_servo^(0+128)+1),f
  7137  1DF4  0CAB               	rrf	??i1_move_servo^(0+128),f
  7138  1DF5  1003               	clrc
  7139  1DF6  0CAC               	rrf	(??i1_move_servo^(0+128)+1),f
  7140  1DF7  0CAB               	rrf	??i1_move_servo^(0+128),f
  7141  1DF8  082B               	movf	??i1_move_servo^(0+128),w
  7142  1DF9  1283               	bcf	3,5	;RP0=0, select bank0
  7143  1DFA  1303               	bcf	3,6	;RP1=0, select bank0
  7144  1DFB  009B               	movwf	27	;volatile
  7145  1DFC                     i1l3680:
  7146                           
  7147                           ;main_master.c: 455:         CCP2CONbits.DC2B0 = CCPR & 0b10;
  7148  1DFC  1683               	bsf	3,5	;RP0=1, select bank1
  7149  1DFD  1303               	bcf	3,6	;RP1=0, select bank1
  7150  1DFE  082E               	movf	i1move_servo@CCPR^(0+128),w
  7151  1DFF  3902               	andlw	2
  7152  1E00  00AB               	movwf	??i1_move_servo^(0+128)
  7153  1E01  0EAB               	swapf	??i1_move_servo^(0+128),f
  7154  1E02  1283               	bcf	3,5	;RP0=0, select bank0
  7155  1E03  1303               	bcf	3,6	;RP1=0, select bank0
  7156  1E04  081D               	movf	29,w	;volatile
  7157  1E05  1683               	bsf	3,5	;RP0=1, select bank1
  7158  1E06  1303               	bcf	3,6	;RP1=0, select bank1
  7159  1E07  062B               	xorwf	??i1_move_servo^(0+128),w
  7160  1E08  39EF               	andlw	-17
  7161  1E09  062B               	xorwf	??i1_move_servo^(0+128),w
  7162  1E0A  1283               	bcf	3,5	;RP0=0, select bank0
  7163  1E0B  1303               	bcf	3,6	;RP1=0, select bank0
  7164  1E0C  009D               	movwf	29	;volatile
  7165  1E0D                     i1l3682:
  7166                           
  7167                           ;main_master.c: 456:         CCP2CONbits.DC2B1 = CCPR & 0b01;
  7168  1E0D  1683               	bsf	3,5	;RP0=1, select bank1
  7169  1E0E  1303               	bcf	3,6	;RP1=0, select bank1
  7170  1E0F  082E               	movf	i1move_servo@CCPR^(0+128),w
  7171  1E10  3901               	andlw	1
  7172  1E11  00AB               	movwf	??i1_move_servo^(0+128)
  7173  1E12  0EAB               	swapf	??i1_move_servo^(0+128),f
  7174  1E13  0DAB               	rlf	??i1_move_servo^(0+128),f
  7175  1E14  1283               	bcf	3,5	;RP0=0, select bank0
  7176  1E15  1303               	bcf	3,6	;RP1=0, select bank0
  7177  1E16  081D               	movf	29,w	;volatile
  7178  1E17  1683               	bsf	3,5	;RP0=1, select bank1
  7179  1E18  1303               	bcf	3,6	;RP1=0, select bank1
  7180  1E19  062B               	xorwf	??i1_move_servo^(0+128),w
  7181  1E1A  39DF               	andlw	-33
  7182  1E1B  062B               	xorwf	??i1_move_servo^(0+128),w
  7183  1E1C  1283               	bcf	3,5	;RP0=0, select bank0
  7184  1E1D  1303               	bcf	3,6	;RP1=0, select bank0
  7185  1E1E  009D               	movwf	29	;volatile
  7186  1E1F                     i1l192:
  7187  1E1F  0008               	return
  7188  1E20                     __end_ofi1_move_servo:
  7189                           
  7190                           	psect	text16
  7191  1F4E                     __ptext16:	
  7192 ;; *************** function i1_interpole *****************
  7193 ;; Defined at:
  7194 ;;		line 437 in file "main_master.c"
  7195 ;; Parameters:    Size  Location     Type
  7196 ;;  value           1    wreg     unsigned char 
  7197 ;;  in_min          1    5[BANK1 ] unsigned char 
  7198 ;;  in_max          1    6[BANK1 ] unsigned char 
  7199 ;;  out_min         2    7[BANK1 ] unsigned short 
  7200 ;;  out_max         2    9[BANK1 ] unsigned short 
  7201 ;; Auto vars:     Size  Location     Type
  7202 ;;  value           1   78[BANK0 ] unsigned char 
  7203 ;; Return value:  Size  Location     Type
  7204 ;;                  2    5[BANK1 ] unsigned short 
  7205 ;; Registers used:
  7206 ;;		wreg, status,2, status,0, btemp+1, pclath, cstack
  7207 ;; Tracked objects:
  7208 ;;		On entry : 0/0
  7209 ;;		On exit  : 0/0
  7210 ;;		Unchanged: 0/0
  7211 ;; Data sizes:     COMMON   BANK0   BANK1   BANK3   BANK2
  7212 ;;      Params:         0       0       6       0       0
  7213 ;;      Locals:         0       1       0       0       0
  7214 ;;      Temps:          0       0       0       0       0
  7215 ;;      Totals:         0       1       6       0       0
  7216 ;;Total ram usage:        7 bytes
  7217 ;; Hardware stack levels used: 1
  7218 ;; Hardware stack levels required when called: 2
  7219 ;; This function calls:
  7220 ;;		i1___fladd
  7221 ;;		i1___fldiv
  7222 ;;		i1___flmul
  7223 ;;		i1___fltol
  7224 ;;		i1___xxtofl
  7225 ;; This function is called by:
  7226 ;;		i1_move_servo
  7227 ;; This function uses a non-reentrant model
  7228 ;;
  7229                           
  7230  1F4E                     i1_interpole:	
  7231                           ;psect for function i1_interpole
  7232                           
  7233                           
  7234                           ;incstack = 0
  7235 ;; hardware stack exceeded
  7236                           ; Regs used in i1_interpole: [wreg+status,2+status,0+btemp+1+pclath+cstack]
  7237                           ;i1interpole@value stored from wreg
  7238  1F4E  1283               	bcf	3,5	;RP0=0, select bank0
  7239  1F4F  1303               	bcf	3,6	;RP1=0, select bank0
  7240  1F50  00EE               	movwf	i1interpole@value
  7241  1F51                     i1l3510:
  7242                           
  7243                           ;main_master.c: 437: unsigned short interpole(uint8_t value, uint8_t in_min, uint8_t in_
      +                          max,;main_master.c: 438:                          unsigned short out_min, unsigned short
      +                           out_max){;main_master.c: 440:     return (unsigned short)(out_min+((float)(out_max-out_
      +                          min)/(in_max-in_min))*(value-in_min));
  7244  1F51  1683               	bsf	3,5	;RP0=1, select bank1
  7245  1F52  1303               	bcf	3,6	;RP1=0, select bank1
  7246  1F53  0827               	movf	i1interpole@out_min^(0+128),w
  7247  1F54  00F0               	movwf	i1___xxtofl@val
  7248  1F55  0828               	movf	(i1interpole@out_min+1)^(0+128),w
  7249  1F56  00F1               	movwf	i1___xxtofl@val+1
  7250  1F57  01F2               	clrf	i1___xxtofl@val+2
  7251  1F58  01F3               	clrf	i1___xxtofl@val+3
  7252  1F59  3000               	movlw	0
  7253  1F5A  160A  118A  2053  160A  158A  	fcall	i1___xxtofl
  7254  1F5F  0873               	movf	?i1___xxtofl+3,w
  7255  1F60  1283               	bcf	3,5	;RP0=0, select bank0
  7256  1F61  1303               	bcf	3,6	;RP1=0, select bank0
  7257  1F62  00DB               	movwf	i1___fladd@a+3
  7258  1F63  0872               	movf	?i1___xxtofl+2,w
  7259  1F64  00DA               	movwf	i1___fladd@a+2
  7260  1F65  0871               	movf	?i1___xxtofl+1,w
  7261  1F66  00D9               	movwf	i1___fladd@a+1
  7262  1F67  0870               	movf	?i1___xxtofl,w
  7263  1F68  00D8               	movwf	i1___fladd@a
  7264  1F69  1683               	bsf	3,5	;RP0=1, select bank1
  7265  1F6A  1303               	bcf	3,6	;RP1=0, select bank1
  7266  1F6B  0827               	movf	i1interpole@out_min^(0+128),w
  7267  1F6C  0229               	subwf	i1interpole@out_max^(0+128),w
  7268  1F6D  00F0               	movwf	i1___xxtofl@val
  7269  1F6E  0828               	movf	(i1interpole@out_min+1)^(0+128),w
  7270  1F6F  1C03               	skipc
  7271  1F70  0A28               	incf	(i1interpole@out_min+1)^(0+128),w
  7272  1F71  022A               	subwf	(i1interpole@out_max+1)^(0+128),w
  7273  1F72  00F1               	movwf	i1___xxtofl@val+1
  7274  1F73  01F2               	clrf	i1___xxtofl@val+2
  7275  1F74  01F3               	clrf	i1___xxtofl@val+3
  7276  1F75  3000               	movlw	0
  7277  1F76  160A  118A  2053  160A  158A  	fcall	i1___xxtofl
  7278  1F7B  0873               	movf	?i1___xxtofl+3,w
  7279  1F7C  1283               	bcf	3,5	;RP0=0, select bank0
  7280  1F7D  1303               	bcf	3,6	;RP1=0, select bank0
  7281  1F7E  00A7               	movwf	i1___fldiv@b+3
  7282  1F7F  0872               	movf	?i1___xxtofl+2,w
  7283  1F80  00A6               	movwf	i1___fldiv@b+2
  7284  1F81  0871               	movf	?i1___xxtofl+1,w
  7285  1F82  00A5               	movwf	i1___fldiv@b+1
  7286  1F83  0870               	movf	?i1___xxtofl,w
  7287  1F84  00A4               	movwf	i1___fldiv@b
  7288  1F85  1683               	bsf	3,5	;RP0=1, select bank1
  7289  1F86  1303               	bcf	3,6	;RP1=0, select bank1
  7290  1F87  0825               	movf	i1interpole@in_min^(0+128),w
  7291  1F88  0226               	subwf	i1interpole@in_max^(0+128),w
  7292  1F89  00F0               	movwf	i1___xxtofl@val
  7293  1F8A  01F1               	clrf	i1___xxtofl@val+1
  7294  1F8B  1C03               	skipc
  7295  1F8C  03F1               	decf	i1___xxtofl@val+1,f
  7296  1F8D  01F2               	clrf	i1___xxtofl@val+2
  7297  1F8E  1BF1               	btfsc	i1___xxtofl@val+1,7
  7298  1F8F  03F2               	decf	i1___xxtofl@val+2,f
  7299  1F90  0872               	movf	i1___xxtofl@val+2,w
  7300  1F91  00F3               	movwf	i1___xxtofl@val+3
  7301  1F92  3001               	movlw	1
  7302  1F93  160A  118A  2053  160A  158A  	fcall	i1___xxtofl
  7303  1F98  0873               	movf	?i1___xxtofl+3,w
  7304  1F99  1283               	bcf	3,5	;RP0=0, select bank0
  7305  1F9A  1303               	bcf	3,6	;RP1=0, select bank0
  7306  1F9B  00A3               	movwf	i1___fldiv@a+3
  7307  1F9C  0872               	movf	?i1___xxtofl+2,w
  7308  1F9D  00A2               	movwf	i1___fldiv@a+2
  7309  1F9E  0871               	movf	?i1___xxtofl+1,w
  7310  1F9F  00A1               	movwf	i1___fldiv@a+1
  7311  1FA0  0870               	movf	?i1___xxtofl,w
  7312  1FA1  00A0               	movwf	i1___fldiv@a
  7313  1FA2  160A  118A  239B  160A  158A  	fcall	i1___fldiv
  7314  1FA7  1283               	bcf	3,5	;RP0=0, select bank0
  7315  1FA8  1303               	bcf	3,6	;RP1=0, select bank0
  7316  1FA9  0823               	movf	?i1___fldiv+3,w
  7317  1FAA  00C1               	movwf	i1___flmul@a+3
  7318  1FAB  0822               	movf	?i1___fldiv+2,w
  7319  1FAC  00C0               	movwf	i1___flmul@a+2
  7320  1FAD  0821               	movf	?i1___fldiv+1,w
  7321  1FAE  00BF               	movwf	i1___flmul@a+1
  7322  1FAF  0820               	movf	?i1___fldiv,w
  7323  1FB0  00BE               	movwf	i1___flmul@a
  7324  1FB1  1683               	bsf	3,5	;RP0=1, select bank1
  7325  1FB2  1303               	bcf	3,6	;RP1=0, select bank1
  7326  1FB3  0825               	movf	i1interpole@in_min^(0+128),w
  7327  1FB4  1283               	bcf	3,5	;RP0=0, select bank0
  7328  1FB5  1303               	bcf	3,6	;RP1=0, select bank0
  7329  1FB6  026E               	subwf	i1interpole@value,w
  7330  1FB7  00F0               	movwf	i1___xxtofl@val
  7331  1FB8  01F1               	clrf	i1___xxtofl@val+1
  7332  1FB9  1C03               	skipc
  7333  1FBA  03F1               	decf	i1___xxtofl@val+1,f
  7334  1FBB  01F2               	clrf	i1___xxtofl@val+2
  7335  1FBC  1BF1               	btfsc	i1___xxtofl@val+1,7
  7336  1FBD  03F2               	decf	i1___xxtofl@val+2,f
  7337  1FBE  0872               	movf	i1___xxtofl@val+2,w
  7338  1FBF  00F3               	movwf	i1___xxtofl@val+3
  7339  1FC0  3001               	movlw	1
  7340  1FC1  160A  118A  2053  160A  158A  	fcall	i1___xxtofl
  7341  1FC6  0873               	movf	?i1___xxtofl+3,w
  7342  1FC7  1283               	bcf	3,5	;RP0=0, select bank0
  7343  1FC8  1303               	bcf	3,6	;RP1=0, select bank0
  7344  1FC9  00BD               	movwf	i1___flmul@b+3
  7345  1FCA  0872               	movf	?i1___xxtofl+2,w
  7346  1FCB  00BC               	movwf	i1___flmul@b+2
  7347  1FCC  0871               	movf	?i1___xxtofl+1,w
  7348  1FCD  00BB               	movwf	i1___flmul@b+1
  7349  1FCE  0870               	movf	?i1___xxtofl,w
  7350  1FCF  00BA               	movwf	i1___flmul@b
  7351  1FD0  120A  118A  23E1  160A  158A  	fcall	i1___flmul
  7352  1FD5  1283               	bcf	3,5	;RP0=0, select bank0
  7353  1FD6  1303               	bcf	3,6	;RP1=0, select bank0
  7354  1FD7  083D               	movf	?i1___flmul+3,w
  7355  1FD8  00D7               	movwf	i1___fladd@b+3
  7356  1FD9  083C               	movf	?i1___flmul+2,w
  7357  1FDA  00D6               	movwf	i1___fladd@b+2
  7358  1FDB  083B               	movf	?i1___flmul+1,w
  7359  1FDC  00D5               	movwf	i1___fladd@b+1
  7360  1FDD  083A               	movf	?i1___flmul,w
  7361  1FDE  00D4               	movwf	i1___fladd@b
  7362  1FDF  160A  118A  2578  160A  158A  	fcall	i1___fladd
  7363  1FE4  1283               	bcf	3,5	;RP0=0, select bank0
  7364  1FE5  1303               	bcf	3,6	;RP1=0, select bank0
  7365  1FE6  0857               	movf	?i1___fladd+3,w
  7366  1FE7  00EB               	movwf	i1___fltol@f1+3
  7367  1FE8  0856               	movf	?i1___fladd+2,w
  7368  1FE9  00EA               	movwf	i1___fltol@f1+2
  7369  1FEA  0855               	movf	?i1___fladd+1,w
  7370  1FEB  00E9               	movwf	i1___fltol@f1+1
  7371  1FEC  0854               	movf	?i1___fladd,w
  7372  1FED  00E8               	movwf	i1___fltol@f1
  7373  1FEE  160A  158A  26B2  160A  158A  	fcall	i1___fltol
  7374  1FF3  1283               	bcf	3,5	;RP0=0, select bank0
  7375  1FF4  1303               	bcf	3,6	;RP1=0, select bank0
  7376  1FF5  0869               	movf	?i1___fltol+1,w
  7377  1FF6  1683               	bsf	3,5	;RP0=1, select bank1
  7378  1FF7  1303               	bcf	3,6	;RP1=0, select bank1
  7379  1FF8  00A6               	movwf	(?i1_interpole+1)^(0+128)
  7380  1FF9  1283               	bcf	3,5	;RP0=0, select bank0
  7381  1FFA  1303               	bcf	3,6	;RP1=0, select bank0
  7382  1FFB  0868               	movf	?i1___fltol,w
  7383  1FFC  1683               	bsf	3,5	;RP0=1, select bank1
  7384  1FFD  1303               	bcf	3,6	;RP1=0, select bank1
  7385  1FFE  00A5               	movwf	?i1_interpole^(0+128)
  7386  1FFF                     i1l187:
  7387  1FFF  0008               	return
  7388  2000                     __end_ofi1_interpole:
  7389                           
  7390                           	psect	text17
  7391  1053                     __ptext17:	
  7392 ;; *************** function i1___xxtofl *****************
  7393 ;; Defined at:
  7394 ;;		line 10 in file "C:\Program Files\Microchip\xc8\v2.35\pic\sources\c90\common\xxtofl.c"
  7395 ;; Parameters:    Size  Location     Type
  7396 ;;  sign            1    wreg     unsigned char 
  7397 ;;  val             4    0[COMMON] long 
  7398 ;; Auto vars:     Size  Location     Type
  7399 ;;  sign            1    8[COMMON] unsigned char 
  7400 ;;  arg             4   10[COMMON] unsigned long 
  7401 ;;  exp             1    9[COMMON] unsigned char 
  7402 ;; Return value:  Size  Location     Type
  7403 ;;                  4    0[COMMON] unsigned char 
  7404 ;; Registers used:
  7405 ;;		wreg, status,2, status,0
  7406 ;; Tracked objects:
  7407 ;;		On entry : 0/0
  7408 ;;		On exit  : 0/0
  7409 ;;		Unchanged: 0/0
  7410 ;; Data sizes:     COMMON   BANK0   BANK1   BANK3   BANK2
  7411 ;;      Params:         4       0       0       0       0
  7412 ;;      Locals:         6       0       0       0       0
  7413 ;;      Temps:          4       0       0       0       0
  7414 ;;      Totals:        14       0       0       0       0
  7415 ;;Total ram usage:       14 bytes
  7416 ;; Hardware stack levels used: 1
  7417 ;; This function calls:
  7418 ;;		Nothing
  7419 ;; This function is called by:
  7420 ;;		i1_interpole
  7421 ;; This function uses a non-reentrant model
  7422 ;;
  7423                           
  7424  1053                     i1___xxtofl:	
  7425                           ;psect for function i1___xxtofl
  7426                           
  7427                           
  7428                           ;incstack = 0
  7429                           ; Regs used in i1___xxtofl: [wreg+status,2+status,0]
  7430                           ;i1___xxtofl@sign stored from wreg
  7431  1053  00F8               	movwf	i1___xxtofl@sign
  7432  1054                     i1l3462:
  7433  1054  0878               	movf	i1___xxtofl@sign,w
  7434  1055  1903               	btfsc	3,2
  7435  1056  2858               	goto	u582_21
  7436  1057  2859               	goto	u582_20
  7437  1058                     u582_21:
  7438  1058  286D               	goto	i1l3468
  7439  1059                     u582_20:
  7440  1059                     i1l3464:
  7441  1059  1FF3               	btfss	i1___xxtofl@val+3,7
  7442  105A  285C               	goto	u583_21
  7443  105B  285D               	goto	u583_20
  7444  105C                     u583_21:
  7445  105C  286D               	goto	i1l3468
  7446  105D                     u583_20:
  7447  105D                     i1l3466:
  7448  105D  0970               	comf	i1___xxtofl@val,w
  7449  105E  00FA               	movwf	i1___xxtofl@arg
  7450  105F  0971               	comf	i1___xxtofl@val+1,w
  7451  1060  00FB               	movwf	i1___xxtofl@arg+1
  7452  1061  0972               	comf	i1___xxtofl@val+2,w
  7453  1062  00FC               	movwf	i1___xxtofl@arg+2
  7454  1063  0973               	comf	i1___xxtofl@val+3,w
  7455  1064  00FD               	movwf	i1___xxtofl@arg+3
  7456  1065  0AFA               	incf	i1___xxtofl@arg,f
  7457  1066  1903               	skipnz
  7458  1067  0AFB               	incf	i1___xxtofl@arg+1,f
  7459  1068  1903               	skipnz
  7460  1069  0AFC               	incf	i1___xxtofl@arg+2,f
  7461  106A  1903               	skipnz
  7462  106B  0AFD               	incf	i1___xxtofl@arg+3,f
  7463  106C  2875               	goto	i1l723
  7464  106D                     i1l3468:
  7465  106D  0873               	movf	i1___xxtofl@val+3,w
  7466  106E  00FD               	movwf	i1___xxtofl@arg+3
  7467  106F  0872               	movf	i1___xxtofl@val+2,w
  7468  1070  00FC               	movwf	i1___xxtofl@arg+2
  7469  1071  0871               	movf	i1___xxtofl@val+1,w
  7470  1072  00FB               	movwf	i1___xxtofl@arg+1
  7471  1073  0870               	movf	i1___xxtofl@val,w
  7472  1074  00FA               	movwf	i1___xxtofl@arg
  7473  1075                     i1l723:
  7474  1075  0873               	movf	i1___xxtofl@val+3,w
  7475  1076  0472               	iorwf	i1___xxtofl@val+2,w
  7476  1077  0471               	iorwf	i1___xxtofl@val+1,w
  7477  1078  0470               	iorwf	i1___xxtofl@val,w
  7478  1079  1D03               	skipz
  7479  107A  287C               	goto	u584_21
  7480  107B  287D               	goto	u584_20
  7481  107C                     u584_21:
  7482  107C  2886               	goto	i1l3474
  7483  107D                     u584_20:
  7484  107D                     i1l3470:
  7485  107D  3000               	movlw	0
  7486  107E  00F3               	movwf	?i1___xxtofl+3
  7487  107F  3000               	movlw	0
  7488  1080  00F2               	movwf	?i1___xxtofl+2
  7489  1081  3000               	movlw	0
  7490  1082  00F1               	movwf	?i1___xxtofl+1
  7491  1083  3000               	movlw	0
  7492  1084  00F0               	movwf	?i1___xxtofl
  7493  1085  290C               	goto	i1l725
  7494  1086                     i1l3474:
  7495  1086  3096               	movlw	150
  7496  1087  00F4               	movwf	??i1___xxtofl
  7497  1088  0874               	movf	??i1___xxtofl,w
  7498  1089  00F9               	movwf	i1___xxtofl@exp
  7499  108A  2898               	goto	i1l3478
  7500  108B                     i1l3476:
  7501  108B  3001               	movlw	1
  7502  108C  00F4               	movwf	??i1___xxtofl
  7503  108D  0874               	movf	??i1___xxtofl,w
  7504  108E  07F9               	addwf	i1___xxtofl@exp,f
  7505  108F  3001               	movlw	1
  7506  1090                     u585_25:
  7507  1090  1003               	clrc
  7508  1091  0CFD               	rrf	i1___xxtofl@arg+3,f
  7509  1092  0CFC               	rrf	i1___xxtofl@arg+2,f
  7510  1093  0CFB               	rrf	i1___xxtofl@arg+1,f
  7511  1094  0CFA               	rrf	i1___xxtofl@arg,f
  7512  1095  3EFF               	addlw	-1
  7513  1096  1D03               	skipz
  7514  1097  2890               	goto	u585_25
  7515  1098                     i1l3478:
  7516  1098  30FE               	movlw	254
  7517  1099  057D               	andwf	i1___xxtofl@arg+3,w
  7518  109A  1D03               	btfss	3,2
  7519  109B  289D               	goto	u586_21
  7520  109C  289E               	goto	u586_20
  7521  109D                     u586_21:
  7522  109D  288B               	goto	i1l3476
  7523  109E                     u586_20:
  7524  109E  28BA               	goto	i1l729
  7525  109F                     i1l3480:
  7526  109F  3001               	movlw	1
  7527  10A0  00F4               	movwf	??i1___xxtofl
  7528  10A1  0874               	movf	??i1___xxtofl,w
  7529  10A2  07F9               	addwf	i1___xxtofl@exp,f
  7530  10A3                     i1l3482:
  7531  10A3  3001               	movlw	1
  7532  10A4  07FA               	addwf	i1___xxtofl@arg,f
  7533  10A5  3000               	movlw	0
  7534  10A6  1803               	skipnc
  7535  10A7  3001               	movlw	1
  7536  10A8  07FB               	addwf	i1___xxtofl@arg+1,f
  7537  10A9  3000               	movlw	0
  7538  10AA  1803               	skipnc
  7539  10AB  3001               	movlw	1
  7540  10AC  07FC               	addwf	i1___xxtofl@arg+2,f
  7541  10AD  3000               	movlw	0
  7542  10AE  1803               	skipnc
  7543  10AF  3001               	movlw	1
  7544  10B0  07FD               	addwf	i1___xxtofl@arg+3,f
  7545  10B1                     i1l3484:
  7546  10B1  3001               	movlw	1
  7547  10B2                     u587_25:
  7548  10B2  1003               	clrc
  7549  10B3  0CFD               	rrf	i1___xxtofl@arg+3,f
  7550  10B4  0CFC               	rrf	i1___xxtofl@arg+2,f
  7551  10B5  0CFB               	rrf	i1___xxtofl@arg+1,f
  7552  10B6  0CFA               	rrf	i1___xxtofl@arg,f
  7553  10B7  3EFF               	addlw	-1
  7554  10B8  1D03               	skipz
  7555  10B9  28B2               	goto	u587_25
  7556  10BA                     i1l729:
  7557  10BA  30FF               	movlw	255
  7558  10BB  057D               	andwf	i1___xxtofl@arg+3,w
  7559  10BC  1D03               	btfss	3,2
  7560  10BD  28BF               	goto	u588_21
  7561  10BE  28C0               	goto	u588_20
  7562  10BF                     u588_21:
  7563  10BF  289F               	goto	i1l3480
  7564  10C0                     u588_20:
  7565  10C0  28CC               	goto	i1l3488
  7566  10C1                     i1l3486:
  7567  10C1  3001               	movlw	1
  7568  10C2  02F9               	subwf	i1___xxtofl@exp,f
  7569  10C3  3001               	movlw	1
  7570  10C4  00F4               	movwf	??i1___xxtofl
  7571  10C5                     u589_25:
  7572  10C5  1003               	clrc
  7573  10C6  0DFA               	rlf	i1___xxtofl@arg,f
  7574  10C7  0DFB               	rlf	i1___xxtofl@arg+1,f
  7575  10C8  0DFC               	rlf	i1___xxtofl@arg+2,f
  7576  10C9  0DFD               	rlf	i1___xxtofl@arg+3,f
  7577  10CA  0BF4               	decfsz	??i1___xxtofl,f
  7578  10CB  28C5               	goto	u589_25
  7579  10CC                     i1l3488:
  7580  10CC  1BFC               	btfsc	i1___xxtofl@arg+2,7
  7581  10CD  28CF               	goto	u590_21
  7582  10CE  28D0               	goto	u590_20
  7583  10CF                     u590_21:
  7584  10CF  28D6               	goto	i1l736
  7585  10D0                     u590_20:
  7586  10D0                     i1l3490:
  7587  10D0  3002               	movlw	2
  7588  10D1  0279               	subwf	i1___xxtofl@exp,w
  7589  10D2  1803               	skipnc
  7590  10D3  28D5               	goto	u591_21
  7591  10D4  28D6               	goto	u591_20
  7592  10D5                     u591_21:
  7593  10D5  28C1               	goto	i1l3486
  7594  10D6                     u591_20:
  7595  10D6                     i1l736:
  7596  10D6  1879               	btfsc	i1___xxtofl@exp,0
  7597  10D7  28D9               	goto	u592_21
  7598  10D8  28DA               	goto	u592_20
  7599  10D9                     u592_21:
  7600  10D9  28E2               	goto	i1l737
  7601  10DA                     u592_20:
  7602  10DA                     i1l3492:
  7603  10DA  30FF               	movlw	255
  7604  10DB  05FA               	andwf	i1___xxtofl@arg,f
  7605  10DC  30FF               	movlw	255
  7606  10DD  05FB               	andwf	i1___xxtofl@arg+1,f
  7607  10DE  307F               	movlw	127
  7608  10DF  05FC               	andwf	i1___xxtofl@arg+2,f
  7609  10E0  30FF               	movlw	255
  7610  10E1  05FD               	andwf	i1___xxtofl@arg+3,f
  7611  10E2                     i1l737:
  7612  10E2  1003               	clrc
  7613  10E3  0CF9               	rrf	i1___xxtofl@exp,f
  7614  10E4                     i1l3494:
  7615  10E4  0879               	movf	i1___xxtofl@exp,w
  7616  10E5  00F4               	movwf	??i1___xxtofl
  7617  10E6  01F5               	clrf	??i1___xxtofl+1
  7618  10E7  01F6               	clrf	??i1___xxtofl+2
  7619  10E8  01F7               	clrf	??i1___xxtofl+3
  7620  10E9  3018               	movlw	24
  7621  10EA                     u593_25:
  7622  10EA  1003               	clrc
  7623  10EB  0DF4               	rlf	??i1___xxtofl,f
  7624  10EC  0DF5               	rlf	??i1___xxtofl+1,f
  7625  10ED  0DF6               	rlf	??i1___xxtofl+2,f
  7626  10EE  0DF7               	rlf	??i1___xxtofl+3,f
  7627  10EF                     u593_20:
  7628  10EF  3EFF               	addlw	-1
  7629  10F0  1D03               	skipz
  7630  10F1  28EA               	goto	u593_25
  7631  10F2  0874               	movf	??i1___xxtofl,w
  7632  10F3  04FA               	iorwf	i1___xxtofl@arg,f
  7633  10F4  0875               	movf	??i1___xxtofl+1,w
  7634  10F5  04FB               	iorwf	i1___xxtofl@arg+1,f
  7635  10F6  0876               	movf	??i1___xxtofl+2,w
  7636  10F7  04FC               	iorwf	i1___xxtofl@arg+2,f
  7637  10F8  0877               	movf	??i1___xxtofl+3,w
  7638  10F9  04FD               	iorwf	i1___xxtofl@arg+3,f
  7639  10FA                     i1l3496:
  7640  10FA  0878               	movf	i1___xxtofl@sign,w
  7641  10FB  1903               	btfsc	3,2
  7642  10FC  28FE               	goto	u594_21
  7643  10FD  28FF               	goto	u594_20
  7644  10FE                     u594_21:
  7645  10FE  2904               	goto	i1l3502
  7646  10FF                     u594_20:
  7647  10FF                     i1l3498:
  7648  10FF  1FF3               	btfss	i1___xxtofl@val+3,7
  7649  1100  2902               	goto	u595_21
  7650  1101  2903               	goto	u595_20
  7651  1102                     u595_21:
  7652  1102  2904               	goto	i1l3502
  7653  1103                     u595_20:
  7654  1103                     i1l3500:
  7655  1103  17FD               	bsf	i1___xxtofl@arg+3,7
  7656  1104                     i1l3502:
  7657  1104  087D               	movf	i1___xxtofl@arg+3,w
  7658  1105  00F3               	movwf	?i1___xxtofl+3
  7659  1106  087C               	movf	i1___xxtofl@arg+2,w
  7660  1107  00F2               	movwf	?i1___xxtofl+2
  7661  1108  087B               	movf	i1___xxtofl@arg+1,w
  7662  1109  00F1               	movwf	?i1___xxtofl+1
  7663  110A  087A               	movf	i1___xxtofl@arg,w
  7664  110B  00F0               	movwf	?i1___xxtofl
  7665  110C                     i1l725:
  7666  110C  0008               	return
  7667  110D                     __end_ofi1___xxtofl:
  7668                           
  7669                           	psect	text18
  7670  1EB2                     __ptext18:	
  7671 ;; *************** function i1___fltol *****************
  7672 ;; Defined at:
  7673 ;;		line 43 in file "C:\Program Files\Microchip\xc8\v2.35\pic\sources\c90\common\fltol.c"
  7674 ;; Parameters:    Size  Location     Type
  7675 ;;  f1              4   72[BANK0 ] unsigned char 
  7676 ;; Auto vars:     Size  Location     Type
  7677 ;;  exp1            1   77[BANK0 ] unsigned char 
  7678 ;;  sign1           1   76[BANK0 ] unsigned char 
  7679 ;; Return value:  Size  Location     Type
  7680 ;;                  4   72[BANK0 ] long 
  7681 ;; Registers used:
  7682 ;;		wreg, status,2, status,0
  7683 ;; Tracked objects:
  7684 ;;		On entry : 0/0
  7685 ;;		On exit  : 0/0
  7686 ;;		Unchanged: 0/0
  7687 ;; Data sizes:     COMMON   BANK0   BANK1   BANK3   BANK2
  7688 ;;      Params:         0       4       0       0       0
  7689 ;;      Locals:         0       2       0       0       0
  7690 ;;      Temps:          0       0       5       0       0
  7691 ;;      Totals:         0       6       5       0       0
  7692 ;;Total ram usage:       11 bytes
  7693 ;; Hardware stack levels used: 1
  7694 ;; This function calls:
  7695 ;;		Nothing
  7696 ;; This function is called by:
  7697 ;;		i1_interpole
  7698 ;; This function uses a non-reentrant model
  7699 ;;
  7700                           
  7701  1EB2                     i1___fltol:	
  7702                           ;psect for function i1___fltol
  7703                           
  7704  1EB2                     i1l2950:	
  7705                           ;incstack = 0
  7706                           ; Regs used in i1___fltol: [wreg+status,2+status,0]
  7707                           
  7708  1EB2  1003               	clrc
  7709  1EB3  1283               	bcf	3,5	;RP0=0, select bank0
  7710  1EB4  1303               	bcf	3,6	;RP1=0, select bank0
  7711  1EB5  0D6A               	rlf	i1___fltol@f1+2,w
  7712  1EB6  0D6B               	rlf	i1___fltol@f1+3,w
  7713  1EB7  1683               	bsf	3,5	;RP0=1, select bank1
  7714  1EB8  1303               	bcf	3,6	;RP1=0, select bank1
  7715  1EB9  00A0               	movwf	??i1___fltol^(0+128)
  7716  1EBA  0820               	movf	??i1___fltol^(0+128),w
  7717  1EBB  1283               	bcf	3,5	;RP0=0, select bank0
  7718  1EBC  1303               	bcf	3,6	;RP1=0, select bank0
  7719  1EBD  00ED               	movwf	i1___fltol@exp1
  7720  1EBE  086D               	movf	i1___fltol@exp1,w
  7721  1EBF  1D03               	btfss	3,2
  7722  1EC0  2EC2               	goto	u460_21
  7723  1EC1  2EC3               	goto	u460_20
  7724  1EC2                     u460_21:
  7725  1EC2  2ECC               	goto	i1l2956
  7726  1EC3                     u460_20:
  7727  1EC3                     i1l2952:
  7728  1EC3  3000               	movlw	0
  7729  1EC4  00EB               	movwf	?i1___fltol+3
  7730  1EC5  3000               	movlw	0
  7731  1EC6  00EA               	movwf	?i1___fltol+2
  7732  1EC7  3000               	movlw	0
  7733  1EC8  00E9               	movwf	?i1___fltol+1
  7734  1EC9  3000               	movlw	0
  7735  1ECA  00E8               	movwf	?i1___fltol
  7736  1ECB  2F4D               	goto	i1l476
  7737  1ECC                     i1l2956:
  7738  1ECC  0868               	movf	i1___fltol@f1,w
  7739  1ECD  1683               	bsf	3,5	;RP0=1, select bank1
  7740  1ECE  1303               	bcf	3,6	;RP1=0, select bank1
  7741  1ECF  00A0               	movwf	??i1___fltol^(0+128)
  7742  1ED0  1283               	bcf	3,5	;RP0=0, select bank0
  7743  1ED1  1303               	bcf	3,6	;RP1=0, select bank0
  7744  1ED2  0869               	movf	i1___fltol@f1+1,w
  7745  1ED3  1683               	bsf	3,5	;RP0=1, select bank1
  7746  1ED4  1303               	bcf	3,6	;RP1=0, select bank1
  7747  1ED5  00A1               	movwf	(??i1___fltol^(0+128)+1)
  7748  1ED6  1283               	bcf	3,5	;RP0=0, select bank0
  7749  1ED7  1303               	bcf	3,6	;RP1=0, select bank0
  7750  1ED8  086A               	movf	i1___fltol@f1+2,w
  7751  1ED9  1683               	bsf	3,5	;RP0=1, select bank1
  7752  1EDA  1303               	bcf	3,6	;RP1=0, select bank1
  7753  1EDB  00A2               	movwf	(??i1___fltol^(0+128)+2)
  7754  1EDC  1283               	bcf	3,5	;RP0=0, select bank0
  7755  1EDD  1303               	bcf	3,6	;RP1=0, select bank0
  7756  1EDE  086B               	movf	i1___fltol@f1+3,w
  7757  1EDF  1683               	bsf	3,5	;RP0=1, select bank1
  7758  1EE0  1303               	bcf	3,6	;RP1=0, select bank1
  7759  1EE1  00A3               	movwf	(??i1___fltol^(0+128)+3)
  7760  1EE2  301F               	movlw	31
  7761  1EE3                     u461_25:
  7762  1EE3  1003               	clrc
  7763  1EE4  0CA3               	rrf	(??i1___fltol^(0+128)+3),f
  7764  1EE5  0CA2               	rrf	(??i1___fltol^(0+128)+2),f
  7765  1EE6  0CA1               	rrf	(??i1___fltol^(0+128)+1),f
  7766  1EE7  0CA0               	rrf	??i1___fltol^(0+128),f
  7767  1EE8                     u461_20:
  7768  1EE8  3EFF               	addlw	-1
  7769  1EE9  1D03               	skipz
  7770  1EEA  2EE3               	goto	u461_25
  7771  1EEB  0820               	movf	??i1___fltol^(0+128),w
  7772  1EEC  00A4               	movwf	(??i1___fltol+4)^(0+128)
  7773  1EED  0824               	movf	(??i1___fltol+4)^(0+128),w
  7774  1EEE  1283               	bcf	3,5	;RP0=0, select bank0
  7775  1EEF  1303               	bcf	3,6	;RP1=0, select bank0
  7776  1EF0  00EC               	movwf	i1___fltol@sign1
  7777  1EF1                     i1l2958:
  7778  1EF1  17EA               	bsf	i1___fltol@f1+2,7
  7779  1EF2                     i1l2960:
  7780  1EF2  30FF               	movlw	255
  7781  1EF3  05E8               	andwf	i1___fltol@f1,f
  7782  1EF4  30FF               	movlw	255
  7783  1EF5  05E9               	andwf	i1___fltol@f1+1,f
  7784  1EF6  30FF               	movlw	255
  7785  1EF7  05EA               	andwf	i1___fltol@f1+2,f
  7786  1EF8  3000               	movlw	0
  7787  1EF9  05EB               	andwf	i1___fltol@f1+3,f
  7788  1EFA                     i1l2962:
  7789  1EFA  3096               	movlw	150
  7790  1EFB  02ED               	subwf	i1___fltol@exp1,f
  7791  1EFC                     i1l2964:
  7792  1EFC  1FED               	btfss	i1___fltol@exp1,7
  7793  1EFD  2EFF               	goto	u462_21
  7794  1EFE  2F00               	goto	u462_20
  7795  1EFF                     u462_21:
  7796  1EFF  2F1E               	goto	i1l2974
  7797  1F00                     u462_20:
  7798  1F00                     i1l2966:
  7799  1F00  086D               	movf	i1___fltol@exp1,w
  7800  1F01  3A80               	xorlw	128
  7801  1F02  3E97               	addlw	151
  7802  1F03  1803               	skipnc
  7803  1F04  2F06               	goto	u463_21
  7804  1F05  2F07               	goto	u463_20
  7805  1F06                     u463_21:
  7806  1F06  2F08               	goto	i1l2972
  7807  1F07                     u463_20:
  7808  1F07  2EC3               	goto	i1l2952
  7809  1F08                     i1l2972:
  7810  1F08  3001               	movlw	1
  7811  1F09                     u464_25:
  7812  1F09  1003               	clrc
  7813  1F0A  0CEB               	rrf	i1___fltol@f1+3,f
  7814  1F0B  0CEA               	rrf	i1___fltol@f1+2,f
  7815  1F0C  0CE9               	rrf	i1___fltol@f1+1,f
  7816  1F0D  0CE8               	rrf	i1___fltol@f1,f
  7817  1F0E  3EFF               	addlw	-1
  7818  1F0F  1D03               	skipz
  7819  1F10  2F09               	goto	u464_25
  7820  1F11  3001               	movlw	1
  7821  1F12  1683               	bsf	3,5	;RP0=1, select bank1
  7822  1F13  1303               	bcf	3,6	;RP1=0, select bank1
  7823  1F14  00A0               	movwf	??i1___fltol^(0+128)
  7824  1F15  0820               	movf	??i1___fltol^(0+128),w
  7825  1F16  1283               	bcf	3,5	;RP0=0, select bank0
  7826  1F17  1303               	bcf	3,6	;RP1=0, select bank0
  7827  1F18  07ED               	addwf	i1___fltol@exp1,f
  7828  1F19  1D03               	btfss	3,2
  7829  1F1A  2F1C               	goto	u465_21
  7830  1F1B  2F1D               	goto	u465_20
  7831  1F1C                     u465_21:
  7832  1F1C  2F08               	goto	i1l2972
  7833  1F1D                     u465_20:
  7834  1F1D  2F3D               	goto	i1l2982
  7835  1F1E                     i1l2974:
  7836  1F1E  3020               	movlw	32
  7837  1F1F  026D               	subwf	i1___fltol@exp1,w
  7838  1F20  1C03               	skipc
  7839  1F21  2F23               	goto	u466_21
  7840  1F22  2F24               	goto	u466_20
  7841  1F23                     u466_21:
  7842  1F23  2F38               	goto	i1l483
  7843  1F24                     u466_20:
  7844  1F24  2EC3               	goto	i1l2952
  7845  1F25                     i1l2980:
  7846  1F25  3001               	movlw	1
  7847  1F26  1683               	bsf	3,5	;RP0=1, select bank1
  7848  1F27  1303               	bcf	3,6	;RP1=0, select bank1
  7849  1F28  00A0               	movwf	??i1___fltol^(0+128)
  7850  1F29                     u467_25:
  7851  1F29  1003               	clrc
  7852  1F2A  1283               	bcf	3,5	;RP0=0, select bank0
  7853  1F2B  1303               	bcf	3,6	;RP1=0, select bank0
  7854  1F2C  0DE8               	rlf	i1___fltol@f1,f
  7855  1F2D  0DE9               	rlf	i1___fltol@f1+1,f
  7856  1F2E  0DEA               	rlf	i1___fltol@f1+2,f
  7857  1F2F  0DEB               	rlf	i1___fltol@f1+3,f
  7858  1F30  1683               	bsf	3,5	;RP0=1, select bank1
  7859  1F31  1303               	bcf	3,6	;RP1=0, select bank1
  7860  1F32  0BA0               	decfsz	??i1___fltol^(0+128),f
  7861  1F33  2F29               	goto	u467_25
  7862  1F34  3001               	movlw	1
  7863  1F35  1283               	bcf	3,5	;RP0=0, select bank0
  7864  1F36  1303               	bcf	3,6	;RP1=0, select bank0
  7865  1F37  02ED               	subwf	i1___fltol@exp1,f
  7866  1F38                     i1l483:
  7867  1F38  086D               	movf	i1___fltol@exp1,w
  7868  1F39  1D03               	btfss	3,2
  7869  1F3A  2F3C               	goto	u468_21
  7870  1F3B  2F3D               	goto	u468_20
  7871  1F3C                     u468_21:
  7872  1F3C  2F25               	goto	i1l2980
  7873  1F3D                     u468_20:
  7874  1F3D                     i1l2982:
  7875  1F3D  086C               	movf	i1___fltol@sign1,w
  7876  1F3E  1903               	btfsc	3,2
  7877  1F3F  2F41               	goto	u469_21
  7878  1F40  2F42               	goto	u469_20
  7879  1F41                     u469_21:
  7880  1F41  2F4D               	goto	i1l486
  7881  1F42                     u469_20:
  7882  1F42                     i1l2984:
  7883  1F42  09E8               	comf	i1___fltol@f1,f
  7884  1F43  09E9               	comf	i1___fltol@f1+1,f
  7885  1F44  09EA               	comf	i1___fltol@f1+2,f
  7886  1F45  09EB               	comf	i1___fltol@f1+3,f
  7887  1F46  0AE8               	incf	i1___fltol@f1,f
  7888  1F47  1903               	skipnz
  7889  1F48  0AE9               	incf	i1___fltol@f1+1,f
  7890  1F49  1903               	skipnz
  7891  1F4A  0AEA               	incf	i1___fltol@f1+2,f
  7892  1F4B  1903               	skipnz
  7893  1F4C  0AEB               	incf	i1___fltol@f1+3,f
  7894  1F4D                     i1l486:
  7895  1F4D                     i1l476:
  7896  1F4D  0008               	return
  7897  1F4E                     __end_ofi1___fltol:
  7898                           
  7899                           	psect	text19
  7900  03E1                     __ptext19:	
  7901 ;; *************** function i1___flmul *****************
  7902 ;; Defined at:
  7903 ;;		line 8 in file "C:\Program Files\Microchip\xc8\v2.35\pic\sources\c90\common\sprcmul.c"
  7904 ;; Parameters:    Size  Location     Type
  7905 ;;  b               4   26[BANK0 ] long 
  7906 ;;  a               4   30[BANK0 ] long 
  7907 ;; Auto vars:     Size  Location     Type
  7908 ;;  prod            4   46[BANK0 ] struct .
  7909 ;;  grs             4   40[BANK0 ] unsigned long 
  7910 ;;  temp            2   50[BANK0 ] struct .
  7911 ;;  bexp            1   45[BANK0 ] unsigned char 
  7912 ;;  aexp            1   44[BANK0 ] unsigned char 
  7913 ;;  sign            1   39[BANK0 ] unsigned char 
  7914 ;; Return value:  Size  Location     Type
  7915 ;;                  4   26[BANK0 ] unsigned char 
  7916 ;; Registers used:
  7917 ;;		wreg, status,2, status,0, btemp+1, pclath, cstack
  7918 ;; Tracked objects:
  7919 ;;		On entry : 0/0
  7920 ;;		On exit  : 0/0
  7921 ;;		Unchanged: 0/0
  7922 ;; Data sizes:     COMMON   BANK0   BANK1   BANK3   BANK2
  7923 ;;      Params:         0       8       0       0       0
  7924 ;;      Locals:         0      13       0       0       0
  7925 ;;      Temps:          0       5       0       0       0
  7926 ;;      Totals:         0      26       0       0       0
  7927 ;;Total ram usage:       26 bytes
  7928 ;; Hardware stack levels used: 1
  7929 ;; Hardware stack levels required when called: 1
  7930 ;; This function calls:
  7931 ;;		i1__Umul8_16
  7932 ;; This function is called by:
  7933 ;;		i1_interpole
  7934 ;; This function uses a non-reentrant model
  7935 ;;
  7936                           
  7937  03E1                     i1___flmul:	
  7938                           ;psect for function i1___flmul
  7939                           
  7940  03E1                     i1l3322:	
  7941                           ;incstack = 0
  7942 ;; hardware stack exceeded
  7943                           ; Regs used in i1___flmul: [wreg+status,2+status,0+btemp+1+pclath+cstack]
  7944                           
  7945  03E1  1283               	bcf	3,5	;RP0=0, select bank0
  7946  03E2  1303               	bcf	3,6	;RP1=0, select bank0
  7947  03E3  083D               	movf	i1___flmul@b+3,w
  7948  03E4  3980               	andlw	128
  7949  03E5  00C2               	movwf	??i1___flmul
  7950  03E6  0842               	movf	??i1___flmul,w
  7951  03E7  00C7               	movwf	i1___flmul@sign
  7952  03E8                     i1l3324:
  7953  03E8  083D               	movf	i1___flmul@b+3,w
  7954  03E9  00C2               	movwf	??i1___flmul
  7955  03EA  0742               	addwf	??i1___flmul,w
  7956  03EB  00C3               	movwf	??i1___flmul+1
  7957  03EC  0843               	movf	??i1___flmul+1,w
  7958  03ED  00CD               	movwf	i1___flmul@bexp
  7959  03EE                     i1l3326:
  7960  03EE  1FBC               	btfss	i1___flmul@b+2,7
  7961  03EF  2BF1               	goto	u545_21
  7962  03F0  2BF2               	goto	u545_20
  7963  03F1                     u545_21:
  7964  03F1  2BF3               	goto	i1l3330
  7965  03F2                     u545_20:
  7966  03F2                     i1l3328:
  7967  03F2  144D               	bsf	i1___flmul@bexp,0
  7968  03F3                     i1l3330:
  7969  03F3  084D               	movf	i1___flmul@bexp,w
  7970  03F4  1903               	btfsc	3,2
  7971  03F5  2BF7               	goto	u546_21
  7972  03F6  2BF8               	goto	u546_20
  7973  03F7                     u546_21:
  7974  03F7  2C07               	goto	i1l3338
  7975  03F8                     u546_20:
  7976  03F8                     i1l3332:
  7977  03F8  0A4D               	incf	i1___flmul@bexp,w
  7978  03F9  1D03               	btfss	3,2
  7979  03FA  2BFC               	goto	u547_21
  7980  03FB  2BFD               	goto	u547_20
  7981  03FC                     u547_21:
  7982  03FC  2C05               	goto	i1l3336
  7983  03FD                     u547_20:
  7984  03FD                     i1l3334:
  7985  03FD  3000               	movlw	0
  7986  03FE  00BD               	movwf	i1___flmul@b+3
  7987  03FF  3000               	movlw	0
  7988  0400  00BC               	movwf	i1___flmul@b+2
  7989  0401  3000               	movlw	0
  7990  0402  00BB               	movwf	i1___flmul@b+1
  7991  0403  3000               	movlw	0
  7992  0404  00BA               	movwf	i1___flmul@b
  7993  0405                     i1l3336:
  7994  0405  17BC               	bsf	i1___flmul@b+2,7
  7995  0406  2C0F               	goto	i1l3340
  7996  0407                     i1l3338:
  7997  0407  3000               	movlw	0
  7998  0408  00BD               	movwf	i1___flmul@b+3
  7999  0409  3000               	movlw	0
  8000  040A  00BC               	movwf	i1___flmul@b+2
  8001  040B  3000               	movlw	0
  8002  040C  00BB               	movwf	i1___flmul@b+1
  8003  040D  3000               	movlw	0
  8004  040E  00BA               	movwf	i1___flmul@b
  8005  040F                     i1l3340:
  8006  040F  0841               	movf	i1___flmul@a+3,w
  8007  0410  3980               	andlw	128
  8008  0411  00C2               	movwf	??i1___flmul
  8009  0412  0842               	movf	??i1___flmul,w
  8010  0413  06C7               	xorwf	i1___flmul@sign,f
  8011  0414                     i1l3342:
  8012  0414  0841               	movf	i1___flmul@a+3,w
  8013  0415  00C2               	movwf	??i1___flmul
  8014  0416  0742               	addwf	??i1___flmul,w
  8015  0417  00C3               	movwf	??i1___flmul+1
  8016  0418  0843               	movf	??i1___flmul+1,w
  8017  0419  00CC               	movwf	i1___flmul@aexp
  8018  041A                     i1l3344:
  8019  041A  1FC0               	btfss	i1___flmul@a+2,7
  8020  041B  2C1D               	goto	u548_21
  8021  041C  2C1E               	goto	u548_20
  8022  041D                     u548_21:
  8023  041D  2C1F               	goto	i1l3348
  8024  041E                     u548_20:
  8025  041E                     i1l3346:
  8026  041E  144C               	bsf	i1___flmul@aexp,0
  8027  041F                     i1l3348:
  8028  041F  084C               	movf	i1___flmul@aexp,w
  8029  0420  1903               	btfsc	3,2
  8030  0421  2C23               	goto	u549_21
  8031  0422  2C24               	goto	u549_20
  8032  0423                     u549_21:
  8033  0423  2C33               	goto	i1l3356
  8034  0424                     u549_20:
  8035  0424                     i1l3350:
  8036  0424  0A4C               	incf	i1___flmul@aexp,w
  8037  0425  1D03               	btfss	3,2
  8038  0426  2C28               	goto	u550_21
  8039  0427  2C29               	goto	u550_20
  8040  0428                     u550_21:
  8041  0428  2C31               	goto	i1l3354
  8042  0429                     u550_20:
  8043  0429                     i1l3352:
  8044  0429  3000               	movlw	0
  8045  042A  00C1               	movwf	i1___flmul@a+3
  8046  042B  3000               	movlw	0
  8047  042C  00C0               	movwf	i1___flmul@a+2
  8048  042D  3000               	movlw	0
  8049  042E  00BF               	movwf	i1___flmul@a+1
  8050  042F  3000               	movlw	0
  8051  0430  00BE               	movwf	i1___flmul@a
  8052  0431                     i1l3354:
  8053  0431  17C0               	bsf	i1___flmul@a+2,7
  8054  0432  2C3B               	goto	i1l3358
  8055  0433                     i1l3356:
  8056  0433  3000               	movlw	0
  8057  0434  00C1               	movwf	i1___flmul@a+3
  8058  0435  3000               	movlw	0
  8059  0436  00C0               	movwf	i1___flmul@a+2
  8060  0437  3000               	movlw	0
  8061  0438  00BF               	movwf	i1___flmul@a+1
  8062  0439  3000               	movlw	0
  8063  043A  00BE               	movwf	i1___flmul@a
  8064  043B                     i1l3358:
  8065  043B  084C               	movf	i1___flmul@aexp,w
  8066  043C  1903               	btfsc	3,2
  8067  043D  2C3F               	goto	u551_21
  8068  043E  2C40               	goto	u551_20
  8069  043F                     u551_21:
  8070  043F  2C45               	goto	i1l3362
  8071  0440                     u551_20:
  8072  0440                     i1l3360:
  8073  0440  084D               	movf	i1___flmul@bexp,w
  8074  0441  1D03               	btfss	3,2
  8075  0442  2C44               	goto	u552_21
  8076  0443  2C45               	goto	u552_20
  8077  0444                     u552_21:
  8078  0444  2C4E               	goto	i1l3366
  8079  0445                     u552_20:
  8080  0445                     i1l3362:
  8081  0445  3000               	movlw	0
  8082  0446  00BD               	movwf	?i1___flmul+3
  8083  0447  3000               	movlw	0
  8084  0448  00BC               	movwf	?i1___flmul+2
  8085  0449  3000               	movlw	0
  8086  044A  00BB               	movwf	?i1___flmul+1
  8087  044B  3000               	movlw	0
  8088  044C  00BA               	movwf	?i1___flmul
  8089  044D  2F41               	goto	i1l679
  8090  044E                     i1l3366:
  8091  044E  083A               	movf	i1___flmul@b,w
  8092  044F  00C2               	movwf	??i1___flmul
  8093  0450  0842               	movf	??i1___flmul,w
  8094  0451  00F0               	movwf	i1__Umul8_16@multiplicand
  8095  0452  0840               	movf	i1___flmul@a+2,w
  8096  0453  160A  118A  2003  120A  118A  	fcall	i1__Umul8_16
  8097  0458  0871               	movf	?i1__Umul8_16+1,w
  8098  0459  1283               	bcf	3,5	;RP0=0, select bank0
  8099  045A  1303               	bcf	3,6	;RP1=0, select bank0
  8100  045B  00D3               	movwf	i1___flmul@temp+1
  8101  045C  0870               	movf	?i1__Umul8_16,w
  8102  045D  00D2               	movwf	i1___flmul@temp
  8103  045E                     i1l3368:
  8104  045E  0852               	movf	i1___flmul@temp,w
  8105  045F  00C2               	movwf	??i1___flmul
  8106  0460  01C3               	clrf	??i1___flmul+1
  8107  0461  01C4               	clrf	??i1___flmul+2
  8108  0462  01C5               	clrf	??i1___flmul+3
  8109  0463  0845               	movf	??i1___flmul+3,w
  8110  0464  00CB               	movwf	i1___flmul@grs+3
  8111  0465  0844               	movf	??i1___flmul+2,w
  8112  0466  00CA               	movwf	i1___flmul@grs+2
  8113  0467  0843               	movf	??i1___flmul+1,w
  8114  0468  00C9               	movwf	i1___flmul@grs+1
  8115  0469  0842               	movf	??i1___flmul,w
  8116  046A  00C8               	movwf	i1___flmul@grs
  8117  046B                     i1l3370:
  8118  046B  0853               	movf	i1___flmul@temp+1,w
  8119  046C  00C2               	movwf	??i1___flmul
  8120  046D  01C3               	clrf	??i1___flmul+1
  8121  046E  01C4               	clrf	??i1___flmul+2
  8122  046F  01C5               	clrf	??i1___flmul+3
  8123  0470  0845               	movf	??i1___flmul+3,w
  8124  0471  00D1               	movwf	i1___flmul@prod+3
  8125  0472  0844               	movf	??i1___flmul+2,w
  8126  0473  00D0               	movwf	i1___flmul@prod+2
  8127  0474  0843               	movf	??i1___flmul+1,w
  8128  0475  00CF               	movwf	i1___flmul@prod+1
  8129  0476  0842               	movf	??i1___flmul,w
  8130  0477  00CE               	movwf	i1___flmul@prod
  8131  0478  083B               	movf	i1___flmul@b+1,w
  8132  0479  00C2               	movwf	??i1___flmul
  8133  047A  0842               	movf	??i1___flmul,w
  8134  047B  00F0               	movwf	i1__Umul8_16@multiplicand
  8135  047C  083F               	movf	i1___flmul@a+1,w
  8136  047D  160A  118A  2003  120A  118A  	fcall	i1__Umul8_16
  8137  0482  0871               	movf	?i1__Umul8_16+1,w
  8138  0483  1283               	bcf	3,5	;RP0=0, select bank0
  8139  0484  1303               	bcf	3,6	;RP1=0, select bank0
  8140  0485  00D3               	movwf	i1___flmul@temp+1
  8141  0486  0870               	movf	?i1__Umul8_16,w
  8142  0487  00D2               	movwf	i1___flmul@temp
  8143  0488                     i1l3372:
  8144  0488  0852               	movf	i1___flmul@temp,w
  8145  0489  00C2               	movwf	??i1___flmul
  8146  048A  01C3               	clrf	??i1___flmul+1
  8147  048B  01C4               	clrf	??i1___flmul+2
  8148  048C  01C5               	clrf	??i1___flmul+3
  8149  048D  0842               	movf	??i1___flmul,w
  8150  048E  07C8               	addwf	i1___flmul@grs,f
  8151  048F  0843               	movf	??i1___flmul+1,w
  8152  0490  1103               	clrz
  8153  0491  1803               	skipnc
  8154  0492  3E01               	addlw	1
  8155  0493  1903               	skipnz
  8156  0494  2C96               	goto	u553_21
  8157  0495  07C9               	addwf	i1___flmul@grs+1,f
  8158  0496                     u553_21:
  8159  0496  0844               	movf	??i1___flmul+2,w
  8160  0497  1103               	clrz
  8161  0498  1803               	skipnc
  8162  0499  3E01               	addlw	1
  8163  049A  1903               	skipnz
  8164  049B  2C9D               	goto	u553_22
  8165  049C  07CA               	addwf	i1___flmul@grs+2,f
  8166  049D                     u553_22:
  8167  049D  0845               	movf	??i1___flmul+3,w
  8168  049E  1103               	clrz
  8169  049F  1803               	skipnc
  8170  04A0  3E01               	addlw	1
  8171  04A1  1903               	skipnz
  8172  04A2  2CA4               	goto	u553_23
  8173  04A3  07CB               	addwf	i1___flmul@grs+3,f
  8174  04A4                     u553_23:
  8175  04A4                     i1l3374:
  8176  04A4  0853               	movf	i1___flmul@temp+1,w
  8177  04A5  00C2               	movwf	??i1___flmul
  8178  04A6  01C3               	clrf	??i1___flmul+1
  8179  04A7  01C4               	clrf	??i1___flmul+2
  8180  04A8  01C5               	clrf	??i1___flmul+3
  8181  04A9  0842               	movf	??i1___flmul,w
  8182  04AA  07CE               	addwf	i1___flmul@prod,f
  8183  04AB  0843               	movf	??i1___flmul+1,w
  8184  04AC  1103               	clrz
  8185  04AD  1803               	skipnc
  8186  04AE  3E01               	addlw	1
  8187  04AF  1903               	skipnz
  8188  04B0  2CB2               	goto	u554_21
  8189  04B1  07CF               	addwf	i1___flmul@prod+1,f
  8190  04B2                     u554_21:
  8191  04B2  0844               	movf	??i1___flmul+2,w
  8192  04B3  1103               	clrz
  8193  04B4  1803               	skipnc
  8194  04B5  3E01               	addlw	1
  8195  04B6  1903               	skipnz
  8196  04B7  2CB9               	goto	u554_22
  8197  04B8  07D0               	addwf	i1___flmul@prod+2,f
  8198  04B9                     u554_22:
  8199  04B9  0845               	movf	??i1___flmul+3,w
  8200  04BA  1103               	clrz
  8201  04BB  1803               	skipnc
  8202  04BC  3E01               	addlw	1
  8203  04BD  1903               	skipnz
  8204  04BE  2CC0               	goto	u554_23
  8205  04BF  07D1               	addwf	i1___flmul@prod+3,f
  8206  04C0                     u554_23:
  8207  04C0  083C               	movf	i1___flmul@b+2,w
  8208  04C1  00C2               	movwf	??i1___flmul
  8209  04C2  0842               	movf	??i1___flmul,w
  8210  04C3  00F0               	movwf	i1__Umul8_16@multiplicand
  8211  04C4  083E               	movf	i1___flmul@a,w
  8212  04C5  160A  118A  2003  120A  118A  	fcall	i1__Umul8_16
  8213  04CA  0871               	movf	?i1__Umul8_16+1,w
  8214  04CB  1283               	bcf	3,5	;RP0=0, select bank0
  8215  04CC  1303               	bcf	3,6	;RP1=0, select bank0
  8216  04CD  00D3               	movwf	i1___flmul@temp+1
  8217  04CE  0870               	movf	?i1__Umul8_16,w
  8218  04CF  00D2               	movwf	i1___flmul@temp
  8219  04D0                     i1l3376:
  8220  04D0  0852               	movf	i1___flmul@temp,w
  8221  04D1  00C2               	movwf	??i1___flmul
  8222  04D2  01C3               	clrf	??i1___flmul+1
  8223  04D3  01C4               	clrf	??i1___flmul+2
  8224  04D4  01C5               	clrf	??i1___flmul+3
  8225  04D5  0842               	movf	??i1___flmul,w
  8226  04D6  07C8               	addwf	i1___flmul@grs,f
  8227  04D7  0843               	movf	??i1___flmul+1,w
  8228  04D8  1103               	clrz
  8229  04D9  1803               	skipnc
  8230  04DA  3E01               	addlw	1
  8231  04DB  1903               	skipnz
  8232  04DC  2CDE               	goto	u555_21
  8233  04DD  07C9               	addwf	i1___flmul@grs+1,f
  8234  04DE                     u555_21:
  8235  04DE  0844               	movf	??i1___flmul+2,w
  8236  04DF  1103               	clrz
  8237  04E0  1803               	skipnc
  8238  04E1  3E01               	addlw	1
  8239  04E2  1903               	skipnz
  8240  04E3  2CE5               	goto	u555_22
  8241  04E4  07CA               	addwf	i1___flmul@grs+2,f
  8242  04E5                     u555_22:
  8243  04E5  0845               	movf	??i1___flmul+3,w
  8244  04E6  1103               	clrz
  8245  04E7  1803               	skipnc
  8246  04E8  3E01               	addlw	1
  8247  04E9  1903               	skipnz
  8248  04EA  2CEC               	goto	u555_23
  8249  04EB  07CB               	addwf	i1___flmul@grs+3,f
  8250  04EC                     u555_23:
  8251  04EC                     i1l3378:
  8252  04EC  0853               	movf	i1___flmul@temp+1,w
  8253  04ED  00C2               	movwf	??i1___flmul
  8254  04EE  01C3               	clrf	??i1___flmul+1
  8255  04EF  01C4               	clrf	??i1___flmul+2
  8256  04F0  01C5               	clrf	??i1___flmul+3
  8257  04F1  0842               	movf	??i1___flmul,w
  8258  04F2  07CE               	addwf	i1___flmul@prod,f
  8259  04F3  0843               	movf	??i1___flmul+1,w
  8260  04F4  1103               	clrz
  8261  04F5  1803               	skipnc
  8262  04F6  3E01               	addlw	1
  8263  04F7  1903               	skipnz
  8264  04F8  2CFA               	goto	u556_21
  8265  04F9  07CF               	addwf	i1___flmul@prod+1,f
  8266  04FA                     u556_21:
  8267  04FA  0844               	movf	??i1___flmul+2,w
  8268  04FB  1103               	clrz
  8269  04FC  1803               	skipnc
  8270  04FD  3E01               	addlw	1
  8271  04FE  1903               	skipnz
  8272  04FF  2D01               	goto	u556_22
  8273  0500  07D0               	addwf	i1___flmul@prod+2,f
  8274  0501                     u556_22:
  8275  0501  0845               	movf	??i1___flmul+3,w
  8276  0502  1103               	clrz
  8277  0503  1803               	skipnc
  8278  0504  3E01               	addlw	1
  8279  0505  1903               	skipnz
  8280  0506  2D08               	goto	u556_23
  8281  0507  07D1               	addwf	i1___flmul@prod+3,f
  8282  0508                     u556_23:
  8283  0508                     i1l3380:
  8284  0508  3008               	movlw	8
  8285  0509  00C2               	movwf	??i1___flmul
  8286  050A                     u557_25:
  8287  050A  1003               	clrc
  8288  050B  0DC8               	rlf	i1___flmul@grs,f
  8289  050C  0DC9               	rlf	i1___flmul@grs+1,f
  8290  050D  0DCA               	rlf	i1___flmul@grs+2,f
  8291  050E  0DCB               	rlf	i1___flmul@grs+3,f
  8292  050F  0BC2               	decfsz	??i1___flmul,f
  8293  0510  2D0A               	goto	u557_25
  8294  0511                     i1l3382:
  8295  0511  083B               	movf	i1___flmul@b+1,w
  8296  0512  00C2               	movwf	??i1___flmul
  8297  0513  0842               	movf	??i1___flmul,w
  8298  0514  00F0               	movwf	i1__Umul8_16@multiplicand
  8299  0515  083E               	movf	i1___flmul@a,w
  8300  0516  160A  118A  2003  120A  118A  	fcall	i1__Umul8_16
  8301  051B  0871               	movf	?i1__Umul8_16+1,w
  8302  051C  1283               	bcf	3,5	;RP0=0, select bank0
  8303  051D  1303               	bcf	3,6	;RP1=0, select bank0
  8304  051E  00D3               	movwf	i1___flmul@temp+1
  8305  051F  0870               	movf	?i1__Umul8_16,w
  8306  0520  00D2               	movwf	i1___flmul@temp
  8307  0521                     i1l3384:
  8308  0521  0852               	movf	i1___flmul@temp,w
  8309  0522  00C2               	movwf	??i1___flmul
  8310  0523  0853               	movf	i1___flmul@temp+1,w
  8311  0524  00C3               	movwf	??i1___flmul+1
  8312  0525  01C4               	clrf	??i1___flmul+2
  8313  0526  01C5               	clrf	??i1___flmul+3
  8314  0527  0842               	movf	??i1___flmul,w
  8315  0528  07C8               	addwf	i1___flmul@grs,f
  8316  0529  0843               	movf	??i1___flmul+1,w
  8317  052A  1103               	clrz
  8318  052B  1803               	skipnc
  8319  052C  3E01               	addlw	1
  8320  052D  1903               	skipnz
  8321  052E  2D30               	goto	u558_21
  8322  052F  07C9               	addwf	i1___flmul@grs+1,f
  8323  0530                     u558_21:
  8324  0530  0844               	movf	??i1___flmul+2,w
  8325  0531  1103               	clrz
  8326  0532  1803               	skipnc
  8327  0533  3E01               	addlw	1
  8328  0534  1903               	skipnz
  8329  0535  2D37               	goto	u558_22
  8330  0536  07CA               	addwf	i1___flmul@grs+2,f
  8331  0537                     u558_22:
  8332  0537  0845               	movf	??i1___flmul+3,w
  8333  0538  1103               	clrz
  8334  0539  1803               	skipnc
  8335  053A  3E01               	addlw	1
  8336  053B  1903               	skipnz
  8337  053C  2D3E               	goto	u558_23
  8338  053D  07CB               	addwf	i1___flmul@grs+3,f
  8339  053E                     u558_23:
  8340  053E                     i1l3386:
  8341  053E  083A               	movf	i1___flmul@b,w
  8342  053F  00C2               	movwf	??i1___flmul
  8343  0540  0842               	movf	??i1___flmul,w
  8344  0541  00F0               	movwf	i1__Umul8_16@multiplicand
  8345  0542  083F               	movf	i1___flmul@a+1,w
  8346  0543  160A  118A  2003  120A  118A  	fcall	i1__Umul8_16
  8347  0548  0871               	movf	?i1__Umul8_16+1,w
  8348  0549  1283               	bcf	3,5	;RP0=0, select bank0
  8349  054A  1303               	bcf	3,6	;RP1=0, select bank0
  8350  054B  00D3               	movwf	i1___flmul@temp+1
  8351  054C  0870               	movf	?i1__Umul8_16,w
  8352  054D  00D2               	movwf	i1___flmul@temp
  8353  054E                     i1l3388:
  8354  054E  0852               	movf	i1___flmul@temp,w
  8355  054F  00C2               	movwf	??i1___flmul
  8356  0550  0853               	movf	i1___flmul@temp+1,w
  8357  0551  00C3               	movwf	??i1___flmul+1
  8358  0552  01C4               	clrf	??i1___flmul+2
  8359  0553  01C5               	clrf	??i1___flmul+3
  8360  0554  0842               	movf	??i1___flmul,w
  8361  0555  07C8               	addwf	i1___flmul@grs,f
  8362  0556  0843               	movf	??i1___flmul+1,w
  8363  0557  1103               	clrz
  8364  0558  1803               	skipnc
  8365  0559  3E01               	addlw	1
  8366  055A  1903               	skipnz
  8367  055B  2D5D               	goto	u559_21
  8368  055C  07C9               	addwf	i1___flmul@grs+1,f
  8369  055D                     u559_21:
  8370  055D  0844               	movf	??i1___flmul+2,w
  8371  055E  1103               	clrz
  8372  055F  1803               	skipnc
  8373  0560  3E01               	addlw	1
  8374  0561  1903               	skipnz
  8375  0562  2D64               	goto	u559_22
  8376  0563  07CA               	addwf	i1___flmul@grs+2,f
  8377  0564                     u559_22:
  8378  0564  0845               	movf	??i1___flmul+3,w
  8379  0565  1103               	clrz
  8380  0566  1803               	skipnc
  8381  0567  3E01               	addlw	1
  8382  0568  1903               	skipnz
  8383  0569  2D6B               	goto	u559_23
  8384  056A  07CB               	addwf	i1___flmul@grs+3,f
  8385  056B                     u559_23:
  8386  056B                     i1l3390:
  8387  056B  3008               	movlw	8
  8388  056C  00C2               	movwf	??i1___flmul
  8389  056D                     u560_25:
  8390  056D  1003               	clrc
  8391  056E  0DC8               	rlf	i1___flmul@grs,f
  8392  056F  0DC9               	rlf	i1___flmul@grs+1,f
  8393  0570  0DCA               	rlf	i1___flmul@grs+2,f
  8394  0571  0DCB               	rlf	i1___flmul@grs+3,f
  8395  0572  0BC2               	decfsz	??i1___flmul,f
  8396  0573  2D6D               	goto	u560_25
  8397  0574  083A               	movf	i1___flmul@b,w
  8398  0575  00C2               	movwf	??i1___flmul
  8399  0576  0842               	movf	??i1___flmul,w
  8400  0577  00F0               	movwf	i1__Umul8_16@multiplicand
  8401  0578  083E               	movf	i1___flmul@a,w
  8402  0579  160A  118A  2003  120A  118A  	fcall	i1__Umul8_16
  8403  057E  0871               	movf	?i1__Umul8_16+1,w
  8404  057F  1283               	bcf	3,5	;RP0=0, select bank0
  8405  0580  1303               	bcf	3,6	;RP1=0, select bank0
  8406  0581  00D3               	movwf	i1___flmul@temp+1
  8407  0582  0870               	movf	?i1__Umul8_16,w
  8408  0583  00D2               	movwf	i1___flmul@temp
  8409  0584                     i1l3392:
  8410  0584  0852               	movf	i1___flmul@temp,w
  8411  0585  00C2               	movwf	??i1___flmul
  8412  0586  0853               	movf	i1___flmul@temp+1,w
  8413  0587  00C3               	movwf	??i1___flmul+1
  8414  0588  01C4               	clrf	??i1___flmul+2
  8415  0589  01C5               	clrf	??i1___flmul+3
  8416  058A  0842               	movf	??i1___flmul,w
  8417  058B  07C8               	addwf	i1___flmul@grs,f
  8418  058C  0843               	movf	??i1___flmul+1,w
  8419  058D  1103               	clrz
  8420  058E  1803               	skipnc
  8421  058F  3E01               	addlw	1
  8422  0590  1903               	skipnz
  8423  0591  2D93               	goto	u561_21
  8424  0592  07C9               	addwf	i1___flmul@grs+1,f
  8425  0593                     u561_21:
  8426  0593  0844               	movf	??i1___flmul+2,w
  8427  0594  1103               	clrz
  8428  0595  1803               	skipnc
  8429  0596  3E01               	addlw	1
  8430  0597  1903               	skipnz
  8431  0598  2D9A               	goto	u561_22
  8432  0599  07CA               	addwf	i1___flmul@grs+2,f
  8433  059A                     u561_22:
  8434  059A  0845               	movf	??i1___flmul+3,w
  8435  059B  1103               	clrz
  8436  059C  1803               	skipnc
  8437  059D  3E01               	addlw	1
  8438  059E  1903               	skipnz
  8439  059F  2DA1               	goto	u561_23
  8440  05A0  07CB               	addwf	i1___flmul@grs+3,f
  8441  05A1                     u561_23:
  8442  05A1                     i1l3394:
  8443  05A1  083B               	movf	i1___flmul@b+1,w
  8444  05A2  00C2               	movwf	??i1___flmul
  8445  05A3  0842               	movf	??i1___flmul,w
  8446  05A4  00F0               	movwf	i1__Umul8_16@multiplicand
  8447  05A5  0840               	movf	i1___flmul@a+2,w
  8448  05A6  160A  118A  2003  120A  118A  	fcall	i1__Umul8_16
  8449  05AB  0871               	movf	?i1__Umul8_16+1,w
  8450  05AC  1283               	bcf	3,5	;RP0=0, select bank0
  8451  05AD  1303               	bcf	3,6	;RP1=0, select bank0
  8452  05AE  00D3               	movwf	i1___flmul@temp+1
  8453  05AF  0870               	movf	?i1__Umul8_16,w
  8454  05B0  00D2               	movwf	i1___flmul@temp
  8455  05B1  0852               	movf	i1___flmul@temp,w
  8456  05B2  00C2               	movwf	??i1___flmul
  8457  05B3  0853               	movf	i1___flmul@temp+1,w
  8458  05B4  00C3               	movwf	??i1___flmul+1
  8459  05B5  01C4               	clrf	??i1___flmul+2
  8460  05B6  01C5               	clrf	??i1___flmul+3
  8461  05B7  0842               	movf	??i1___flmul,w
  8462  05B8  07CE               	addwf	i1___flmul@prod,f
  8463  05B9  0843               	movf	??i1___flmul+1,w
  8464  05BA  1103               	clrz
  8465  05BB  1803               	skipnc
  8466  05BC  3E01               	addlw	1
  8467  05BD  1903               	skipnz
  8468  05BE  2DC0               	goto	u562_21
  8469  05BF  07CF               	addwf	i1___flmul@prod+1,f
  8470  05C0                     u562_21:
  8471  05C0  0844               	movf	??i1___flmul+2,w
  8472  05C1  1103               	clrz
  8473  05C2  1803               	skipnc
  8474  05C3  3E01               	addlw	1
  8475  05C4  1903               	skipnz
  8476  05C5  2DC7               	goto	u562_22
  8477  05C6  07D0               	addwf	i1___flmul@prod+2,f
  8478  05C7                     u562_22:
  8479  05C7  0845               	movf	??i1___flmul+3,w
  8480  05C8  1103               	clrz
  8481  05C9  1803               	skipnc
  8482  05CA  3E01               	addlw	1
  8483  05CB  1903               	skipnz
  8484  05CC  2DCE               	goto	u562_23
  8485  05CD  07D1               	addwf	i1___flmul@prod+3,f
  8486  05CE                     u562_23:
  8487  05CE                     i1l3396:
  8488  05CE  083C               	movf	i1___flmul@b+2,w
  8489  05CF  00C2               	movwf	??i1___flmul
  8490  05D0  0842               	movf	??i1___flmul,w
  8491  05D1  00F0               	movwf	i1__Umul8_16@multiplicand
  8492  05D2  083F               	movf	i1___flmul@a+1,w
  8493  05D3  160A  118A  2003  120A  118A  	fcall	i1__Umul8_16
  8494  05D8  0871               	movf	?i1__Umul8_16+1,w
  8495  05D9  1283               	bcf	3,5	;RP0=0, select bank0
  8496  05DA  1303               	bcf	3,6	;RP1=0, select bank0
  8497  05DB  00D3               	movwf	i1___flmul@temp+1
  8498  05DC  0870               	movf	?i1__Umul8_16,w
  8499  05DD  00D2               	movwf	i1___flmul@temp
  8500  05DE                     i1l3398:
  8501  05DE  0852               	movf	i1___flmul@temp,w
  8502  05DF  00C2               	movwf	??i1___flmul
  8503  05E0  0853               	movf	i1___flmul@temp+1,w
  8504  05E1  00C3               	movwf	??i1___flmul+1
  8505  05E2  01C4               	clrf	??i1___flmul+2
  8506  05E3  01C5               	clrf	??i1___flmul+3
  8507  05E4  0842               	movf	??i1___flmul,w
  8508  05E5  07CE               	addwf	i1___flmul@prod,f
  8509  05E6  0843               	movf	??i1___flmul+1,w
  8510  05E7  1103               	clrz
  8511  05E8  1803               	skipnc
  8512  05E9  3E01               	addlw	1
  8513  05EA  1903               	skipnz
  8514  05EB  2DED               	goto	u563_21
  8515  05EC  07CF               	addwf	i1___flmul@prod+1,f
  8516  05ED                     u563_21:
  8517  05ED  0844               	movf	??i1___flmul+2,w
  8518  05EE  1103               	clrz
  8519  05EF  1803               	skipnc
  8520  05F0  3E01               	addlw	1
  8521  05F1  1903               	skipnz
  8522  05F2  2DF4               	goto	u563_22
  8523  05F3  07D0               	addwf	i1___flmul@prod+2,f
  8524  05F4                     u563_22:
  8525  05F4  0845               	movf	??i1___flmul+3,w
  8526  05F5  1103               	clrz
  8527  05F6  1803               	skipnc
  8528  05F7  3E01               	addlw	1
  8529  05F8  1903               	skipnz
  8530  05F9  2DFB               	goto	u563_23
  8531  05FA  07D1               	addwf	i1___flmul@prod+3,f
  8532  05FB                     u563_23:
  8533  05FB  083C               	movf	i1___flmul@b+2,w
  8534  05FC  00C2               	movwf	??i1___flmul
  8535  05FD  0842               	movf	??i1___flmul,w
  8536  05FE  00F0               	movwf	i1__Umul8_16@multiplicand
  8537  05FF  0840               	movf	i1___flmul@a+2,w
  8538  0600  160A  118A  2003  120A  118A  	fcall	i1__Umul8_16
  8539  0605  0871               	movf	?i1__Umul8_16+1,w
  8540  0606  1283               	bcf	3,5	;RP0=0, select bank0
  8541  0607  1303               	bcf	3,6	;RP1=0, select bank0
  8542  0608  00D3               	movwf	i1___flmul@temp+1
  8543  0609  0870               	movf	?i1__Umul8_16,w
  8544  060A  00D2               	movwf	i1___flmul@temp
  8545  060B                     i1l3400:
  8546  060B  0852               	movf	i1___flmul@temp,w
  8547  060C  00C2               	movwf	??i1___flmul
  8548  060D  0853               	movf	i1___flmul@temp+1,w
  8549  060E  00C3               	movwf	??i1___flmul+1
  8550  060F  01C4               	clrf	??i1___flmul+2
  8551  0610  01C5               	clrf	??i1___flmul+3
  8552  0611  3008               	movlw	8
  8553  0612                     u564_25:
  8554  0612  1003               	clrc
  8555  0613  0DC2               	rlf	??i1___flmul,f
  8556  0614  0DC3               	rlf	??i1___flmul+1,f
  8557  0615  0DC4               	rlf	??i1___flmul+2,f
  8558  0616  0DC5               	rlf	??i1___flmul+3,f
  8559  0617                     u564_20:
  8560  0617  3EFF               	addlw	-1
  8561  0618  1D03               	skipz
  8562  0619  2E12               	goto	u564_25
  8563  061A  0842               	movf	??i1___flmul,w
  8564  061B  07CE               	addwf	i1___flmul@prod,f
  8565  061C  0843               	movf	??i1___flmul+1,w
  8566  061D  1103               	clrz
  8567  061E  1803               	skipnc
  8568  061F  3E01               	addlw	1
  8569  0620  1903               	skipnz
  8570  0621  2E23               	goto	u565_21
  8571  0622  07CF               	addwf	i1___flmul@prod+1,f
  8572  0623                     u565_21:
  8573  0623  0844               	movf	??i1___flmul+2,w
  8574  0624  1103               	clrz
  8575  0625  1803               	skipnc
  8576  0626  3E01               	addlw	1
  8577  0627  1903               	skipnz
  8578  0628  2E2A               	goto	u565_22
  8579  0629  07D0               	addwf	i1___flmul@prod+2,f
  8580  062A                     u565_22:
  8581  062A  0845               	movf	??i1___flmul+3,w
  8582  062B  1103               	clrz
  8583  062C  1803               	skipnc
  8584  062D  3E01               	addlw	1
  8585  062E  1903               	skipnz
  8586  062F  2E31               	goto	u565_23
  8587  0630  07D1               	addwf	i1___flmul@prod+3,f
  8588  0631                     u565_23:
  8589  0631                     i1l3402:
  8590  0631  0848               	movf	i1___flmul@grs,w
  8591  0632  00C2               	movwf	??i1___flmul
  8592  0633  0849               	movf	i1___flmul@grs+1,w
  8593  0634  00C3               	movwf	??i1___flmul+1
  8594  0635  084A               	movf	i1___flmul@grs+2,w
  8595  0636  00C4               	movwf	??i1___flmul+2
  8596  0637  084B               	movf	i1___flmul@grs+3,w
  8597  0638  00C5               	movwf	??i1___flmul+3
  8598  0639  3018               	movlw	24
  8599  063A                     u566_25:
  8600  063A  1003               	clrc
  8601  063B  0CC5               	rrf	??i1___flmul+3,f
  8602  063C  0CC4               	rrf	??i1___flmul+2,f
  8603  063D  0CC3               	rrf	??i1___flmul+1,f
  8604  063E  0CC2               	rrf	??i1___flmul,f
  8605  063F                     u566_20:
  8606  063F  3EFF               	addlw	-1
  8607  0640  1D03               	skipz
  8608  0641  2E3A               	goto	u566_25
  8609  0642  0842               	movf	??i1___flmul,w
  8610  0643  07CE               	addwf	i1___flmul@prod,f
  8611  0644  0843               	movf	??i1___flmul+1,w
  8612  0645  1103               	clrz
  8613  0646  1803               	skipnc
  8614  0647  3E01               	addlw	1
  8615  0648  1903               	skipnz
  8616  0649  2E4B               	goto	u567_21
  8617  064A  07CF               	addwf	i1___flmul@prod+1,f
  8618  064B                     u567_21:
  8619  064B  0844               	movf	??i1___flmul+2,w
  8620  064C  1103               	clrz
  8621  064D  1803               	skipnc
  8622  064E  3E01               	addlw	1
  8623  064F  1903               	skipnz
  8624  0650  2E52               	goto	u567_22
  8625  0651  07D0               	addwf	i1___flmul@prod+2,f
  8626  0652                     u567_22:
  8627  0652  0845               	movf	??i1___flmul+3,w
  8628  0653  1103               	clrz
  8629  0654  1803               	skipnc
  8630  0655  3E01               	addlw	1
  8631  0656  1903               	skipnz
  8632  0657  2E59               	goto	u567_23
  8633  0658  07D1               	addwf	i1___flmul@prod+3,f
  8634  0659                     u567_23:
  8635  0659                     i1l3404:
  8636  0659  3008               	movlw	8
  8637  065A  00C2               	movwf	??i1___flmul
  8638  065B                     u568_25:
  8639  065B  1003               	clrc
  8640  065C  0DC8               	rlf	i1___flmul@grs,f
  8641  065D  0DC9               	rlf	i1___flmul@grs+1,f
  8642  065E  0DCA               	rlf	i1___flmul@grs+2,f
  8643  065F  0DCB               	rlf	i1___flmul@grs+3,f
  8644  0660  0BC2               	decfsz	??i1___flmul,f
  8645  0661  2E5B               	goto	u568_25
  8646  0662                     i1l3406:
  8647  0662  084D               	movf	i1___flmul@bexp,w
  8648  0663  074C               	addwf	i1___flmul@aexp,w
  8649  0664  00C2               	movwf	??i1___flmul
  8650  0665  01C3               	clrf	??i1___flmul+1
  8651  0666  0DC3               	rlf	??i1___flmul+1,f
  8652  0667  0842               	movf	??i1___flmul,w
  8653  0668  3E82               	addlw	130
  8654  0669  00D2               	movwf	i1___flmul@temp
  8655  066A  0843               	movf	??i1___flmul+1,w
  8656  066B  1803               	skipnc
  8657  066C  3E01               	addlw	1
  8658  066D  3EFF               	addlw	255
  8659  066E  00D3               	movwf	i1___flmul@temp+1
  8660  066F  2E8D               	goto	i1l3418
  8661  0670                     i1l3408:
  8662  0670  3001               	movlw	1
  8663  0671  00C2               	movwf	??i1___flmul
  8664  0672                     u569_25:
  8665  0672  1003               	clrc
  8666  0673  0DCE               	rlf	i1___flmul@prod,f
  8667  0674  0DCF               	rlf	i1___flmul@prod+1,f
  8668  0675  0DD0               	rlf	i1___flmul@prod+2,f
  8669  0676  0DD1               	rlf	i1___flmul@prod+3,f
  8670  0677  0BC2               	decfsz	??i1___flmul,f
  8671  0678  2E72               	goto	u569_25
  8672  0679                     i1l3410:
  8673  0679  1FCB               	btfss	i1___flmul@grs+3,7
  8674  067A  2E7C               	goto	u570_21
  8675  067B  2E7D               	goto	u570_20
  8676  067C                     u570_21:
  8677  067C  2E7E               	goto	i1l3414
  8678  067D                     u570_20:
  8679  067D                     i1l3412:
  8680  067D  144E               	bsf	i1___flmul@prod,0
  8681  067E                     i1l3414:
  8682  067E  3001               	movlw	1
  8683  067F  00C2               	movwf	??i1___flmul
  8684  0680                     u571_25:
  8685  0680  1003               	clrc
  8686  0681  0DC8               	rlf	i1___flmul@grs,f
  8687  0682  0DC9               	rlf	i1___flmul@grs+1,f
  8688  0683  0DCA               	rlf	i1___flmul@grs+2,f
  8689  0684  0DCB               	rlf	i1___flmul@grs+3,f
  8690  0685  0BC2               	decfsz	??i1___flmul,f
  8691  0686  2E80               	goto	u571_25
  8692  0687                     i1l3416:
  8693  0687  30FF               	movlw	255
  8694  0688  07D2               	addwf	i1___flmul@temp,f
  8695  0689  1803               	skipnc
  8696  068A  0AD3               	incf	i1___flmul@temp+1,f
  8697  068B  30FF               	movlw	255
  8698  068C  07D3               	addwf	i1___flmul@temp+1,f
  8699  068D                     i1l3418:
  8700  068D  1FD0               	btfss	i1___flmul@prod+2,7
  8701  068E  2E90               	goto	u572_21
  8702  068F  2E91               	goto	u572_20
  8703  0690                     u572_21:
  8704  0690  2E70               	goto	i1l3408
  8705  0691                     u572_20:
  8706  0691                     i1l3420:
  8707  0691  01CC               	clrf	i1___flmul@aexp
  8708  0692                     i1l3422:
  8709  0692  1FCB               	btfss	i1___flmul@grs+3,7
  8710  0693  2E95               	goto	u573_21
  8711  0694  2E96               	goto	u573_20
  8712  0695                     u573_21:
  8713  0695  2EB2               	goto	i1l3430
  8714  0696                     u573_20:
  8715  0696                     i1l3424:
  8716  0696  30FF               	movlw	255
  8717  0697  0548               	andwf	i1___flmul@grs,w
  8718  0698  00C2               	movwf	??i1___flmul
  8719  0699  30FF               	movlw	255
  8720  069A  0549               	andwf	i1___flmul@grs+1,w
  8721  069B  00C3               	movwf	??i1___flmul+1
  8722  069C  30FF               	movlw	255
  8723  069D  054A               	andwf	i1___flmul@grs+2,w
  8724  069E  00C4               	movwf	??i1___flmul+2
  8725  069F  307F               	movlw	127
  8726  06A0  054B               	andwf	i1___flmul@grs+3,w
  8727  06A1  00C5               	movwf	??i1___flmul+3
  8728  06A2  0845               	movf	??i1___flmul+3,w
  8729  06A3  0444               	iorwf	??i1___flmul+2,w
  8730  06A4  0443               	iorwf	??i1___flmul+1,w
  8731  06A5  0442               	iorwf	??i1___flmul,w
  8732  06A6  1903               	skipnz
  8733  06A7  2EA9               	goto	u574_21
  8734  06A8  2EAA               	goto	u574_20
  8735  06A9                     u574_21:
  8736  06A9  2EAD               	goto	i1l685
  8737  06AA                     u574_20:
  8738  06AA                     i1l3426:
  8739  06AA  01CC               	clrf	i1___flmul@aexp
  8740  06AB  0ACC               	incf	i1___flmul@aexp,f
  8741  06AC  2EB2               	goto	i1l3430
  8742  06AD                     i1l685:
  8743  06AD  1C4E               	btfss	i1___flmul@prod,0
  8744  06AE  2EB0               	goto	u575_21
  8745  06AF  2EB1               	goto	u575_20
  8746  06B0                     u575_21:
  8747  06B0  2EB2               	goto	i1l3430
  8748  06B1                     u575_20:
  8749  06B1  2EAA               	goto	i1l3426
  8750  06B2                     i1l3430:
  8751  06B2  084C               	movf	i1___flmul@aexp,w
  8752  06B3  1903               	btfsc	3,2
  8753  06B4  2EB6               	goto	u576_21
  8754  06B5  2EB7               	goto	u576_20
  8755  06B6                     u576_21:
  8756  06B6  2EE8               	goto	i1l3440
  8757  06B7                     u576_20:
  8758  06B7                     i1l3432:
  8759  06B7  3001               	movlw	1
  8760  06B8  07CE               	addwf	i1___flmul@prod,f
  8761  06B9  3000               	movlw	0
  8762  06BA  1803               	skipnc
  8763  06BB  3001               	movlw	1
  8764  06BC  07CF               	addwf	i1___flmul@prod+1,f
  8765  06BD  3000               	movlw	0
  8766  06BE  1803               	skipnc
  8767  06BF  3001               	movlw	1
  8768  06C0  07D0               	addwf	i1___flmul@prod+2,f
  8769  06C1  3000               	movlw	0
  8770  06C2  1803               	skipnc
  8771  06C3  3001               	movlw	1
  8772  06C4  07D1               	addwf	i1___flmul@prod+3,f
  8773  06C5                     i1l3434:
  8774  06C5  1C51               	btfss	i1___flmul@prod+3,0
  8775  06C6  2EC8               	goto	u577_21
  8776  06C7  2EC9               	goto	u577_20
  8777  06C8                     u577_21:
  8778  06C8  2EE8               	goto	i1l3440
  8779  06C9                     u577_20:
  8780  06C9                     i1l3436:
  8781  06C9  084E               	movf	i1___flmul@prod,w
  8782  06CA  00C2               	movwf	??i1___flmul
  8783  06CB  084F               	movf	i1___flmul@prod+1,w
  8784  06CC  00C3               	movwf	??i1___flmul+1
  8785  06CD  0850               	movf	i1___flmul@prod+2,w
  8786  06CE  00C4               	movwf	??i1___flmul+2
  8787  06CF  0851               	movf	i1___flmul@prod+3,w
  8788  06D0  00C5               	movwf	??i1___flmul+3
  8789  06D1  3001               	movlw	1
  8790  06D2  00C6               	movwf	??i1___flmul+4
  8791  06D3                     u578_25:
  8792  06D3  0D45               	rlf	??i1___flmul+3,w
  8793  06D4  0CC5               	rrf	??i1___flmul+3,f
  8794  06D5  0CC4               	rrf	??i1___flmul+2,f
  8795  06D6  0CC3               	rrf	??i1___flmul+1,f
  8796  06D7  0CC2               	rrf	??i1___flmul,f
  8797  06D8                     u578_20:
  8798  06D8  0BC6               	decfsz	??i1___flmul+4,f
  8799  06D9  2ED3               	goto	u578_25
  8800  06DA  0845               	movf	??i1___flmul+3,w
  8801  06DB  00D1               	movwf	i1___flmul@prod+3
  8802  06DC  0844               	movf	??i1___flmul+2,w
  8803  06DD  00D0               	movwf	i1___flmul@prod+2
  8804  06DE  0843               	movf	??i1___flmul+1,w
  8805  06DF  00CF               	movwf	i1___flmul@prod+1
  8806  06E0  0842               	movf	??i1___flmul,w
  8807  06E1  00CE               	movwf	i1___flmul@prod
  8808  06E2                     i1l3438:
  8809  06E2  3001               	movlw	1
  8810  06E3  07D2               	addwf	i1___flmul@temp,f
  8811  06E4  1803               	skipnc
  8812  06E5  0AD3               	incf	i1___flmul@temp+1,f
  8813  06E6  3000               	movlw	0
  8814  06E7  07D3               	addwf	i1___flmul@temp+1,f
  8815  06E8                     i1l3440:
  8816  06E8  0853               	movf	i1___flmul@temp+1,w
  8817  06E9  3A80               	xorlw	128
  8818  06EA  00FF               	movwf	btemp+1
  8819  06EB  3080               	movlw	128
  8820  06EC  027F               	subwf	btemp+1,w
  8821  06ED  1D03               	skipz
  8822  06EE  2EF1               	goto	u579_25
  8823  06EF  30FF               	movlw	255
  8824  06F0  0252               	subwf	i1___flmul@temp,w
  8825  06F1                     u579_25:
  8826  06F1  1C03               	skipc
  8827  06F2  2EF4               	goto	u579_21
  8828  06F3  2EF5               	goto	u579_20
  8829  06F4                     u579_21:
  8830  06F4  2F00               	goto	i1l3444
  8831  06F5                     u579_20:
  8832  06F5                     i1l3442:
  8833  06F5  307F               	movlw	127
  8834  06F6  1283               	bcf	3,5	;RP0=0, select bank0
  8835  06F7  1303               	bcf	3,6	;RP1=0, select bank0
  8836  06F8  00D1               	movwf	i1___flmul@prod+3
  8837  06F9  3080               	movlw	128
  8838  06FA  00D0               	movwf	i1___flmul@prod+2
  8839  06FB  3000               	movlw	0
  8840  06FC  00CF               	movwf	i1___flmul@prod+1
  8841  06FD  3000               	movlw	0
  8842  06FE  00CE               	movwf	i1___flmul@prod
  8843  06FF  2F35               	goto	i1l691
  8844  0700                     i1l3444:
  8845  0700  1283               	bcf	3,5	;RP0=0, select bank0
  8846  0701  1303               	bcf	3,6	;RP1=0, select bank0
  8847  0702  0853               	movf	i1___flmul@temp+1,w
  8848  0703  3A80               	xorlw	128
  8849  0704  00FF               	movwf	btemp+1
  8850  0705  3080               	movlw	128
  8851  0706  027F               	subwf	btemp+1,w
  8852  0707  1D03               	skipz
  8853  0708  2F0B               	goto	u580_25
  8854  0709  3001               	movlw	1
  8855  070A  0252               	subwf	i1___flmul@temp,w
  8856  070B                     u580_25:
  8857  070B  1803               	skipnc
  8858  070C  2F0E               	goto	u580_21
  8859  070D  2F0F               	goto	u580_20
  8860  070E                     u580_21:
  8861  070E  2F1B               	goto	i1l3450
  8862  070F                     u580_20:
  8863  070F                     i1l3446:
  8864  070F  3000               	movlw	0
  8865  0710  1283               	bcf	3,5	;RP0=0, select bank0
  8866  0711  1303               	bcf	3,6	;RP1=0, select bank0
  8867  0712  00D1               	movwf	i1___flmul@prod+3
  8868  0713  3000               	movlw	0
  8869  0714  00D0               	movwf	i1___flmul@prod+2
  8870  0715  3000               	movlw	0
  8871  0716  00CF               	movwf	i1___flmul@prod+1
  8872  0717  3000               	movlw	0
  8873  0718  00CE               	movwf	i1___flmul@prod
  8874  0719                     i1l3448:
  8875  0719  01C7               	clrf	i1___flmul@sign
  8876  071A  2F35               	goto	i1l691
  8877  071B                     i1l3450:
  8878  071B  1283               	bcf	3,5	;RP0=0, select bank0
  8879  071C  1303               	bcf	3,6	;RP1=0, select bank0
  8880  071D  0852               	movf	i1___flmul@temp,w
  8881  071E  00C2               	movwf	??i1___flmul
  8882  071F  0842               	movf	??i1___flmul,w
  8883  0720  00CD               	movwf	i1___flmul@bexp
  8884  0721  30FF               	movlw	255
  8885  0722  05CE               	andwf	i1___flmul@prod,f
  8886  0723  30FF               	movlw	255
  8887  0724  05CF               	andwf	i1___flmul@prod+1,f
  8888  0725  307F               	movlw	127
  8889  0726  05D0               	andwf	i1___flmul@prod+2,f
  8890  0727  3000               	movlw	0
  8891  0728  05D1               	andwf	i1___flmul@prod+3,f
  8892  0729                     i1l3452:
  8893  0729  1C4D               	btfss	i1___flmul@bexp,0
  8894  072A  2F2C               	goto	u581_21
  8895  072B  2F2D               	goto	u581_20
  8896  072C                     u581_21:
  8897  072C  2F2E               	goto	i1l3456
  8898  072D                     u581_20:
  8899  072D                     i1l3454:
  8900  072D  17D0               	bsf	i1___flmul@prod+2,7
  8901  072E                     i1l3456:
  8902  072E  084D               	movf	i1___flmul@bexp,w
  8903  072F  00C2               	movwf	??i1___flmul
  8904  0730  1003               	clrc
  8905  0731  0C42               	rrf	??i1___flmul,w
  8906  0732  00C3               	movwf	??i1___flmul+1
  8907  0733  0843               	movf	??i1___flmul+1,w
  8908  0734  00D1               	movwf	i1___flmul@prod+3
  8909  0735                     i1l691:
  8910  0735  0847               	movf	i1___flmul@sign,w
  8911  0736  00C2               	movwf	??i1___flmul
  8912  0737  0842               	movf	??i1___flmul,w
  8913  0738  04D1               	iorwf	i1___flmul@prod+3,f
  8914  0739                     i1l3458:
  8915  0739  0851               	movf	i1___flmul@prod+3,w
  8916  073A  00BD               	movwf	?i1___flmul+3
  8917  073B  0850               	movf	i1___flmul@prod+2,w
  8918  073C  00BC               	movwf	?i1___flmul+2
  8919  073D  084F               	movf	i1___flmul@prod+1,w
  8920  073E  00BB               	movwf	?i1___flmul+1
  8921  073F  084E               	movf	i1___flmul@prod,w
  8922  0740  00BA               	movwf	?i1___flmul
  8923  0741                     i1l679:
  8924  0741  0008               	return
  8925  0742                     __end_ofi1___flmul:
  8926                           
  8927                           	psect	text20
  8928  1003                     __ptext20:	
  8929 ;; *************** function i1__Umul8_16 *****************
  8930 ;; Defined at:
  8931 ;;		line 4 in file "C:\Program Files\Microchip\xc8\v2.35\pic\sources\c90\common\Umul8_16.c"
  8932 ;; Parameters:    Size  Location     Type
  8933 ;;  multiplier      1    wreg     unsigned char 
  8934 ;;  multiplicand    1    0[COMMON] unsigned char 
  8935 ;; Auto vars:     Size  Location     Type
  8936 ;;  multiplier      1    8[COMMON] unsigned char 
  8937 ;;  word_mpld       2    6[COMMON] unsigned int 
  8938 ;;  product         2    4[COMMON] unsigned int 
  8939 ;; Return value:  Size  Location     Type
  8940 ;;                  2    0[COMMON] unsigned int 
  8941 ;; Registers used:
  8942 ;;		wreg, status,2, status,0
  8943 ;; Tracked objects:
  8944 ;;		On entry : 0/0
  8945 ;;		On exit  : 0/0
  8946 ;;		Unchanged: 0/0
  8947 ;; Data sizes:     COMMON   BANK0   BANK1   BANK3   BANK2
  8948 ;;      Params:         2       0       0       0       0
  8949 ;;      Locals:         5       0       0       0       0
  8950 ;;      Temps:          2       0       0       0       0
  8951 ;;      Totals:         9       0       0       0       0
  8952 ;;Total ram usage:        9 bytes
  8953 ;; Hardware stack levels used: 1
  8954 ;; This function calls:
  8955 ;;		Nothing
  8956 ;; This function is called by:
  8957 ;;		i1___flmul
  8958 ;; This function uses a non-reentrant model
  8959 ;;
  8960                           
  8961  1003                     i1__Umul8_16:	
  8962                           ;psect for function i1__Umul8_16
  8963                           
  8964                           
  8965                           ;incstack = 0
  8966 ;; hardware stack exceeded
  8967                           ; Regs used in i1__Umul8_16: [wreg+status,2+status,0]
  8968                           ;i1__Umul8_16@multiplier stored from wreg
  8969  1003  00F8               	movwf	i1__Umul8_16@multiplier
  8970  1004                     i1l2380:
  8971  1004  01F4               	clrf	i1__Umul8_16@product
  8972  1005  01F5               	clrf	i1__Umul8_16@product+1
  8973  1006                     i1l2382:
  8974  1006  0870               	movf	i1__Umul8_16@multiplicand,w
  8975  1007  00F2               	movwf	??i1__Umul8_16
  8976  1008  01F3               	clrf	??i1__Umul8_16+1
  8977  1009  0872               	movf	??i1__Umul8_16,w
  8978  100A  00F6               	movwf	i1__Umul8_16@word_mpld
  8979  100B  0873               	movf	??i1__Umul8_16+1,w
  8980  100C  00F7               	movwf	i1__Umul8_16@word_mpld+1
  8981  100D                     i1l2384:
  8982  100D  1C78               	btfss	i1__Umul8_16@multiplier,0
  8983  100E  2810               	goto	u320_21
  8984  100F  2811               	goto	u320_20
  8985  1010                     u320_21:
  8986  1010  2817               	goto	i1l698
  8987  1011                     u320_20:
  8988  1011                     i1l2386:
  8989  1011  0876               	movf	i1__Umul8_16@word_mpld,w
  8990  1012  07F4               	addwf	i1__Umul8_16@product,f
  8991  1013  1803               	skipnc
  8992  1014  0AF5               	incf	i1__Umul8_16@product+1,f
  8993  1015  0877               	movf	i1__Umul8_16@word_mpld+1,w
  8994  1016  07F5               	addwf	i1__Umul8_16@product+1,f
  8995  1017                     i1l698:
  8996  1017  3001               	movlw	1
  8997  1018                     u321_25:
  8998  1018  1003               	clrc
  8999  1019  0DF6               	rlf	i1__Umul8_16@word_mpld,f
  9000  101A  0DF7               	rlf	i1__Umul8_16@word_mpld+1,f
  9001  101B  3EFF               	addlw	-1
  9002  101C  1D03               	skipz
  9003  101D  2818               	goto	u321_25
  9004  101E  1003               	clrc
  9005  101F  0CF8               	rrf	i1__Umul8_16@multiplier,f
  9006  1020                     i1l2388:
  9007  1020  0878               	movf	i1__Umul8_16@multiplier,w
  9008  1021  1D03               	btfss	3,2
  9009  1022  2824               	goto	u322_21
  9010  1023  2825               	goto	u322_20
  9011  1024                     u322_21:
  9012  1024  280D               	goto	i1l2384
  9013  1025                     u322_20:
  9014  1025                     i1l2390:
  9015  1025  0875               	movf	i1__Umul8_16@product+1,w
  9016  1026  00F1               	movwf	?i1__Umul8_16+1
  9017  1027  0874               	movf	i1__Umul8_16@product,w
  9018  1028  00F0               	movwf	?i1__Umul8_16
  9019  1029                     i1l700:
  9020  1029  0008               	return
  9021  102A                     __end_ofi1__Umul8_16:
  9022                           
  9023                           	psect	text21
  9024  139B                     __ptext21:	
  9025 ;; *************** function i1___fldiv *****************
  9026 ;; Defined at:
  9027 ;;		line 8 in file "C:\Program Files\Microchip\xc8\v2.35\pic\sources\c90\common\sprcdiv.c"
  9028 ;; Parameters:    Size  Location     Type
  9029 ;;  a               4    0[BANK0 ] unsigned int 
  9030 ;;  b               4    4[BANK0 ] unsigned int 
  9031 ;; Auto vars:     Size  Location     Type
  9032 ;;  grs             4   20[BANK0 ] unsigned long 
  9033 ;;  rem             4   13[BANK0 ] unsigned long 
  9034 ;;  new_exp         2   18[BANK0 ] int 
  9035 ;;  aexp            1   25[BANK0 ] unsigned char 
  9036 ;;  bexp            1   24[BANK0 ] unsigned char 
  9037 ;;  sign            1   17[BANK0 ] unsigned char 
  9038 ;; Return value:  Size  Location     Type
  9039 ;;                  4    0[BANK0 ] unsigned char 
  9040 ;; Registers used:
  9041 ;;		wreg, status,2, status,0, btemp+1
  9042 ;; Tracked objects:
  9043 ;;		On entry : 0/0
  9044 ;;		On exit  : 0/0
  9045 ;;		Unchanged: 0/0
  9046 ;; Data sizes:     COMMON   BANK0   BANK1   BANK3   BANK2
  9047 ;;      Params:         0       8       0       0       0
  9048 ;;      Locals:         0      13       0       0       0
  9049 ;;      Temps:          0       5       0       0       0
  9050 ;;      Totals:         0      26       0       0       0
  9051 ;;Total ram usage:       26 bytes
  9052 ;; Hardware stack levels used: 1
  9053 ;; This function calls:
  9054 ;;		Nothing
  9055 ;; This function is called by:
  9056 ;;		i1_interpole
  9057 ;; This function uses a non-reentrant model
  9058 ;;
  9059                           
  9060  139B                     i1___fldiv:	
  9061                           ;psect for function i1___fldiv
  9062                           
  9063  139B                     i1l3180:	
  9064                           ;incstack = 0
  9065                           ; Regs used in i1___fldiv: [wreg+status,2+status,0+btemp+1]
  9066                           
  9067  139B  1283               	bcf	3,5	;RP0=0, select bank0
  9068  139C  1303               	bcf	3,6	;RP1=0, select bank0
  9069  139D  0827               	movf	i1___fldiv@b+3,w
  9070  139E  3980               	andlw	128
  9071  139F  00A8               	movwf	??i1___fldiv
  9072  13A0  0828               	movf	??i1___fldiv,w
  9073  13A1  00B1               	movwf	i1___fldiv@sign
  9074  13A2                     i1l3182:
  9075  13A2  0827               	movf	i1___fldiv@b+3,w
  9076  13A3  00A8               	movwf	??i1___fldiv
  9077  13A4  0728               	addwf	??i1___fldiv,w
  9078  13A5  00A9               	movwf	??i1___fldiv+1
  9079  13A6  0829               	movf	??i1___fldiv+1,w
  9080  13A7  00B8               	movwf	i1___fldiv@bexp
  9081  13A8                     i1l3184:
  9082  13A8  1FA6               	btfss	i1___fldiv@b+2,7
  9083  13A9  2BAB               	goto	u516_21
  9084  13AA  2BAC               	goto	u516_20
  9085  13AB                     u516_21:
  9086  13AB  2BAD               	goto	i1l3188
  9087  13AC                     u516_20:
  9088  13AC                     i1l3186:
  9089  13AC  1438               	bsf	i1___fldiv@bexp,0
  9090  13AD                     i1l3188:
  9091  13AD  0838               	movf	i1___fldiv@bexp,w
  9092  13AE  1903               	btfsc	3,2
  9093  13AF  2BB1               	goto	u517_21
  9094  13B0  2BB2               	goto	u517_20
  9095  13B1                     u517_21:
  9096  13B1  2BC2               	goto	i1l3198
  9097  13B2                     u517_20:
  9098  13B2                     i1l3190:
  9099  13B2  0A38               	incf	i1___fldiv@bexp,w
  9100  13B3  1D03               	btfss	3,2
  9101  13B4  2BB6               	goto	u518_21
  9102  13B5  2BB7               	goto	u518_20
  9103  13B6                     u518_21:
  9104  13B6  2BBF               	goto	i1l3194
  9105  13B7                     u518_20:
  9106  13B7                     i1l3192:
  9107  13B7  3000               	movlw	0
  9108  13B8  00A7               	movwf	i1___fldiv@b+3
  9109  13B9  3000               	movlw	0
  9110  13BA  00A6               	movwf	i1___fldiv@b+2
  9111  13BB  3000               	movlw	0
  9112  13BC  00A5               	movwf	i1___fldiv@b+1
  9113  13BD  3000               	movlw	0
  9114  13BE  00A4               	movwf	i1___fldiv@b
  9115  13BF                     i1l3194:
  9116  13BF  17A6               	bsf	i1___fldiv@b+2,7
  9117  13C0                     i1l3196:
  9118  13C0  01A7               	clrf	i1___fldiv@b+3
  9119  13C1  2BCA               	goto	i1l3200
  9120  13C2                     i1l3198:
  9121  13C2  3000               	movlw	0
  9122  13C3  00A7               	movwf	i1___fldiv@b+3
  9123  13C4  3000               	movlw	0
  9124  13C5  00A6               	movwf	i1___fldiv@b+2
  9125  13C6  3000               	movlw	0
  9126  13C7  00A5               	movwf	i1___fldiv@b+1
  9127  13C8  3000               	movlw	0
  9128  13C9  00A4               	movwf	i1___fldiv@b
  9129  13CA                     i1l3200:
  9130  13CA  0823               	movf	i1___fldiv@a+3,w
  9131  13CB  3980               	andlw	128
  9132  13CC  00A8               	movwf	??i1___fldiv
  9133  13CD  0828               	movf	??i1___fldiv,w
  9134  13CE  06B1               	xorwf	i1___fldiv@sign,f
  9135  13CF                     i1l3202:
  9136  13CF  0823               	movf	i1___fldiv@a+3,w
  9137  13D0  00A8               	movwf	??i1___fldiv
  9138  13D1  0728               	addwf	??i1___fldiv,w
  9139  13D2  00A9               	movwf	??i1___fldiv+1
  9140  13D3  0829               	movf	??i1___fldiv+1,w
  9141  13D4  00B9               	movwf	i1___fldiv@aexp
  9142  13D5                     i1l3204:
  9143  13D5  1FA2               	btfss	i1___fldiv@a+2,7
  9144  13D6  2BD8               	goto	u519_21
  9145  13D7  2BD9               	goto	u519_20
  9146  13D8                     u519_21:
  9147  13D8  2BDA               	goto	i1l3208
  9148  13D9                     u519_20:
  9149  13D9                     i1l3206:
  9150  13D9  1439               	bsf	i1___fldiv@aexp,0
  9151  13DA                     i1l3208:
  9152  13DA  0839               	movf	i1___fldiv@aexp,w
  9153  13DB  1903               	btfsc	3,2
  9154  13DC  2BDE               	goto	u520_21
  9155  13DD  2BDF               	goto	u520_20
  9156  13DE                     u520_21:
  9157  13DE  2BEF               	goto	i1l3218
  9158  13DF                     u520_20:
  9159  13DF                     i1l3210:
  9160  13DF  0A39               	incf	i1___fldiv@aexp,w
  9161  13E0  1D03               	btfss	3,2
  9162  13E1  2BE3               	goto	u521_21
  9163  13E2  2BE4               	goto	u521_20
  9164  13E3                     u521_21:
  9165  13E3  2BEC               	goto	i1l3214
  9166  13E4                     u521_20:
  9167  13E4                     i1l3212:
  9168  13E4  3000               	movlw	0
  9169  13E5  00A3               	movwf	i1___fldiv@a+3
  9170  13E6  3000               	movlw	0
  9171  13E7  00A2               	movwf	i1___fldiv@a+2
  9172  13E8  3000               	movlw	0
  9173  13E9  00A1               	movwf	i1___fldiv@a+1
  9174  13EA  3000               	movlw	0
  9175  13EB  00A0               	movwf	i1___fldiv@a
  9176  13EC                     i1l3214:
  9177  13EC  17A2               	bsf	i1___fldiv@a+2,7
  9178  13ED                     i1l3216:
  9179  13ED  01A3               	clrf	i1___fldiv@a+3
  9180  13EE  2BF7               	goto	i1l639
  9181  13EF                     i1l3218:
  9182  13EF  3000               	movlw	0
  9183  13F0  00A3               	movwf	i1___fldiv@a+3
  9184  13F1  3000               	movlw	0
  9185  13F2  00A2               	movwf	i1___fldiv@a+2
  9186  13F3  3000               	movlw	0
  9187  13F4  00A1               	movwf	i1___fldiv@a+1
  9188  13F5  3000               	movlw	0
  9189  13F6  00A0               	movwf	i1___fldiv@a
  9190  13F7                     i1l639:
  9191  13F7  0823               	movf	i1___fldiv@a+3,w
  9192  13F8  0422               	iorwf	i1___fldiv@a+2,w
  9193  13F9  0421               	iorwf	i1___fldiv@a+1,w
  9194  13FA  0420               	iorwf	i1___fldiv@a,w
  9195  13FB  1D03               	skipz
  9196  13FC  2BFE               	goto	u522_21
  9197  13FD  2BFF               	goto	u522_20
  9198  13FE                     u522_21:
  9199  13FE  2C18               	goto	i1l3228
  9200  13FF                     u522_20:
  9201  13FF                     i1l3220:
  9202  13FF  3000               	movlw	0
  9203  1400  00A7               	movwf	i1___fldiv@b+3
  9204  1401  3000               	movlw	0
  9205  1402  00A6               	movwf	i1___fldiv@b+2
  9206  1403  3000               	movlw	0
  9207  1404  00A5               	movwf	i1___fldiv@b+1
  9208  1405  3000               	movlw	0
  9209  1406  00A4               	movwf	i1___fldiv@b
  9210  1407  3080               	movlw	128
  9211  1408  04A6               	iorwf	i1___fldiv@b+2,f
  9212  1409  307F               	movlw	127
  9213  140A  04A7               	iorwf	i1___fldiv@b+3,f
  9214  140B                     i1l3222:
  9215  140B  0831               	movf	i1___fldiv@sign,w
  9216  140C  00A8               	movwf	??i1___fldiv
  9217  140D  0828               	movf	??i1___fldiv,w
  9218  140E  04A7               	iorwf	i1___fldiv@b+3,f
  9219  140F                     i1l3224:
  9220  140F  0827               	movf	i1___fldiv@b+3,w
  9221  1410  00A3               	movwf	?i1___fldiv+3
  9222  1411  0826               	movf	i1___fldiv@b+2,w
  9223  1412  00A2               	movwf	?i1___fldiv+2
  9224  1413  0825               	movf	i1___fldiv@b+1,w
  9225  1414  00A1               	movwf	?i1___fldiv+1
  9226  1415  0824               	movf	i1___fldiv@b,w
  9227  1416  00A0               	movwf	?i1___fldiv
  9228  1417  2D77               	goto	i1l641
  9229  1418                     i1l3228:
  9230  1418  0838               	movf	i1___fldiv@bexp,w
  9231  1419  1D03               	btfss	3,2
  9232  141A  2C1C               	goto	u523_21
  9233  141B  2C1D               	goto	u523_20
  9234  141C                     u523_21:
  9235  141C  2C26               	goto	i1l3234
  9236  141D                     u523_20:
  9237  141D                     i1l3230:
  9238  141D  3000               	movlw	0
  9239  141E  00A3               	movwf	?i1___fldiv+3
  9240  141F  3000               	movlw	0
  9241  1420  00A2               	movwf	?i1___fldiv+2
  9242  1421  3000               	movlw	0
  9243  1422  00A1               	movwf	?i1___fldiv+1
  9244  1423  3000               	movlw	0
  9245  1424  00A0               	movwf	?i1___fldiv
  9246  1425  2D77               	goto	i1l641
  9247  1426                     i1l3234:
  9248  1426  0838               	movf	i1___fldiv@bexp,w
  9249  1427  00A8               	movwf	??i1___fldiv
  9250  1428  01A9               	clrf	??i1___fldiv+1
  9251  1429  0829               	movf	??i1___fldiv+1,w
  9252  142A  00AB               	movwf	??i1___fldiv+3
  9253  142B  0839               	movf	i1___fldiv@aexp,w
  9254  142C  0228               	subwf	??i1___fldiv,w
  9255  142D  00AA               	movwf	??i1___fldiv+2
  9256  142E  1C03               	skipc
  9257  142F  03AB               	decf	??i1___fldiv+3,f
  9258  1430  082A               	movf	??i1___fldiv+2,w
  9259  1431  3E7F               	addlw	127
  9260  1432  00B2               	movwf	i1___fldiv@new_exp
  9261  1433  082B               	movf	??i1___fldiv+3,w
  9262  1434  1803               	skipnc
  9263  1435  3E01               	addlw	1
  9264  1436  3E00               	addlw	0
  9265  1437  00B3               	movwf	i1___fldiv@new_exp+1
  9266  1438                     i1l3236:
  9267  1438  0827               	movf	i1___fldiv@b+3,w
  9268  1439  00B0               	movwf	i1___fldiv@rem+3
  9269  143A  0826               	movf	i1___fldiv@b+2,w
  9270  143B  00AF               	movwf	i1___fldiv@rem+2
  9271  143C  0825               	movf	i1___fldiv@b+1,w
  9272  143D  00AE               	movwf	i1___fldiv@rem+1
  9273  143E  0824               	movf	i1___fldiv@b,w
  9274  143F  00AD               	movwf	i1___fldiv@rem
  9275  1440                     i1l3238:
  9276  1440  3000               	movlw	0
  9277  1441  00A7               	movwf	i1___fldiv@b+3
  9278  1442  3000               	movlw	0
  9279  1443  00A6               	movwf	i1___fldiv@b+2
  9280  1444  3000               	movlw	0
  9281  1445  00A5               	movwf	i1___fldiv@b+1
  9282  1446  3000               	movlw	0
  9283  1447  00A4               	movwf	i1___fldiv@b
  9284  1448                     i1l3240:
  9285  1448  3000               	movlw	0
  9286  1449  00B7               	movwf	i1___fldiv@grs+3
  9287  144A  3000               	movlw	0
  9288  144B  00B6               	movwf	i1___fldiv@grs+2
  9289  144C  3000               	movlw	0
  9290  144D  00B5               	movwf	i1___fldiv@grs+1
  9291  144E  3000               	movlw	0
  9292  144F  00B4               	movwf	i1___fldiv@grs
  9293  1450                     i1l3242:
  9294  1450  01B9               	clrf	i1___fldiv@aexp
  9295  1451  2C9C               	goto	i1l3262
  9296  1452                     i1l3244:
  9297  1452  0839               	movf	i1___fldiv@aexp,w
  9298  1453  1903               	btfsc	3,2
  9299  1454  2C56               	goto	u524_21
  9300  1455  2C57               	goto	u524_20
  9301  1456                     u524_21:
  9302  1456  2C77               	goto	i1l3254
  9303  1457                     u524_20:
  9304  1457                     i1l3246:
  9305  1457  3001               	movlw	1
  9306  1458  00A8               	movwf	??i1___fldiv
  9307  1459                     u525_25:
  9308  1459  1003               	clrc
  9309  145A  0DAD               	rlf	i1___fldiv@rem,f
  9310  145B  0DAE               	rlf	i1___fldiv@rem+1,f
  9311  145C  0DAF               	rlf	i1___fldiv@rem+2,f
  9312  145D  0DB0               	rlf	i1___fldiv@rem+3,f
  9313  145E  0BA8               	decfsz	??i1___fldiv,f
  9314  145F  2C59               	goto	u525_25
  9315  1460  3001               	movlw	1
  9316  1461  00A8               	movwf	??i1___fldiv
  9317  1462                     u526_25:
  9318  1462  1003               	clrc
  9319  1463  0DA4               	rlf	i1___fldiv@b,f
  9320  1464  0DA5               	rlf	i1___fldiv@b+1,f
  9321  1465  0DA6               	rlf	i1___fldiv@b+2,f
  9322  1466  0DA7               	rlf	i1___fldiv@b+3,f
  9323  1467  0BA8               	decfsz	??i1___fldiv,f
  9324  1468  2C62               	goto	u526_25
  9325  1469                     i1l3248:
  9326  1469  1FB7               	btfss	i1___fldiv@grs+3,7
  9327  146A  2C6C               	goto	u527_21
  9328  146B  2C6D               	goto	u527_20
  9329  146C                     u527_21:
  9330  146C  2C6E               	goto	i1l3252
  9331  146D                     u527_20:
  9332  146D                     i1l3250:
  9333  146D  1424               	bsf	i1___fldiv@b,0
  9334  146E                     i1l3252:
  9335  146E  3001               	movlw	1
  9336  146F  00A8               	movwf	??i1___fldiv
  9337  1470                     u528_25:
  9338  1470  1003               	clrc
  9339  1471  0DB4               	rlf	i1___fldiv@grs,f
  9340  1472  0DB5               	rlf	i1___fldiv@grs+1,f
  9341  1473  0DB6               	rlf	i1___fldiv@grs+2,f
  9342  1474  0DB7               	rlf	i1___fldiv@grs+3,f
  9343  1475  0BA8               	decfsz	??i1___fldiv,f
  9344  1476  2C70               	goto	u528_25
  9345  1477                     i1l3254:
  9346  1477  0823               	movf	i1___fldiv@a+3,w
  9347  1478  0230               	subwf	i1___fldiv@rem+3,w
  9348  1479  1D03               	skipz
  9349  147A  2C85               	goto	u529_25
  9350  147B  0822               	movf	i1___fldiv@a+2,w
  9351  147C  022F               	subwf	i1___fldiv@rem+2,w
  9352  147D  1D03               	skipz
  9353  147E  2C85               	goto	u529_25
  9354  147F  0821               	movf	i1___fldiv@a+1,w
  9355  1480  022E               	subwf	i1___fldiv@rem+1,w
  9356  1481  1D03               	skipz
  9357  1482  2C85               	goto	u529_25
  9358  1483  0820               	movf	i1___fldiv@a,w
  9359  1484  022D               	subwf	i1___fldiv@rem,w
  9360  1485                     u529_25:
  9361  1485  1C03               	skipc
  9362  1486  2C88               	goto	u529_21
  9363  1487  2C89               	goto	u529_20
  9364  1488                     u529_21:
  9365  1488  2C98               	goto	i1l3260
  9366  1489                     u529_20:
  9367  1489                     i1l3256:
  9368  1489  1737               	bsf	i1___fldiv@grs+3,6
  9369  148A                     i1l3258:
  9370  148A  0820               	movf	i1___fldiv@a,w
  9371  148B  02AD               	subwf	i1___fldiv@rem,f
  9372  148C  0821               	movf	i1___fldiv@a+1,w
  9373  148D  1C03               	skipc
  9374  148E  0F21               	incfsz	i1___fldiv@a+1,w
  9375  148F  02AE               	subwf	i1___fldiv@rem+1,f
  9376  1490  0822               	movf	i1___fldiv@a+2,w
  9377  1491  1C03               	skipc
  9378  1492  0F22               	incfsz	i1___fldiv@a+2,w
  9379  1493  02AF               	subwf	i1___fldiv@rem+2,f
  9380  1494  0823               	movf	i1___fldiv@a+3,w
  9381  1495  1C03               	skipc
  9382  1496  0F23               	incfsz	i1___fldiv@a+3,w
  9383  1497  02B0               	subwf	i1___fldiv@rem+3,f
  9384  1498                     i1l3260:
  9385  1498  3001               	movlw	1
  9386  1499  00A8               	movwf	??i1___fldiv
  9387  149A  0828               	movf	??i1___fldiv,w
  9388  149B  07B9               	addwf	i1___fldiv@aexp,f
  9389  149C                     i1l3262:
  9390  149C  301A               	movlw	26
  9391  149D  0239               	subwf	i1___fldiv@aexp,w
  9392  149E  1C03               	skipc
  9393  149F  2CA1               	goto	u530_21
  9394  14A0  2CA2               	goto	u530_20
  9395  14A1                     u530_21:
  9396  14A1  2C52               	goto	i1l3244
  9397  14A2                     u530_20:
  9398  14A2                     i1l3264:
  9399  14A2  0830               	movf	i1___fldiv@rem+3,w
  9400  14A3  042F               	iorwf	i1___fldiv@rem+2,w
  9401  14A4  042E               	iorwf	i1___fldiv@rem+1,w
  9402  14A5  042D               	iorwf	i1___fldiv@rem,w
  9403  14A6  1903               	skipnz
  9404  14A7  2CA9               	goto	u531_21
  9405  14A8  2CAA               	goto	u531_20
  9406  14A9                     u531_21:
  9407  14A9  2CC9               	goto	i1l3278
  9408  14AA                     u531_20:
  9409  14AA                     i1l3266:
  9410  14AA  1434               	bsf	i1___fldiv@grs,0
  9411  14AB  2CC9               	goto	i1l3278
  9412  14AC                     i1l3268:
  9413  14AC  3001               	movlw	1
  9414  14AD  00A8               	movwf	??i1___fldiv
  9415  14AE                     u532_25:
  9416  14AE  1003               	clrc
  9417  14AF  0DA4               	rlf	i1___fldiv@b,f
  9418  14B0  0DA5               	rlf	i1___fldiv@b+1,f
  9419  14B1  0DA6               	rlf	i1___fldiv@b+2,f
  9420  14B2  0DA7               	rlf	i1___fldiv@b+3,f
  9421  14B3  0BA8               	decfsz	??i1___fldiv,f
  9422  14B4  2CAE               	goto	u532_25
  9423  14B5                     i1l3270:
  9424  14B5  1FB7               	btfss	i1___fldiv@grs+3,7
  9425  14B6  2CB8               	goto	u533_21
  9426  14B7  2CB9               	goto	u533_20
  9427  14B8                     u533_21:
  9428  14B8  2CBA               	goto	i1l3274
  9429  14B9                     u533_20:
  9430  14B9                     i1l3272:
  9431  14B9  1424               	bsf	i1___fldiv@b,0
  9432  14BA                     i1l3274:
  9433  14BA  3001               	movlw	1
  9434  14BB  00A8               	movwf	??i1___fldiv
  9435  14BC                     u534_25:
  9436  14BC  1003               	clrc
  9437  14BD  0DB4               	rlf	i1___fldiv@grs,f
  9438  14BE  0DB5               	rlf	i1___fldiv@grs+1,f
  9439  14BF  0DB6               	rlf	i1___fldiv@grs+2,f
  9440  14C0  0DB7               	rlf	i1___fldiv@grs+3,f
  9441  14C1  0BA8               	decfsz	??i1___fldiv,f
  9442  14C2  2CBC               	goto	u534_25
  9443  14C3                     i1l3276:
  9444  14C3  30FF               	movlw	255
  9445  14C4  07B2               	addwf	i1___fldiv@new_exp,f
  9446  14C5  1803               	skipnc
  9447  14C6  0AB3               	incf	i1___fldiv@new_exp+1,f
  9448  14C7  30FF               	movlw	255
  9449  14C8  07B3               	addwf	i1___fldiv@new_exp+1,f
  9450  14C9                     i1l3278:
  9451  14C9  1FA6               	btfss	i1___fldiv@b+2,7
  9452  14CA  2CCC               	goto	u535_21
  9453  14CB  2CCD               	goto	u535_20
  9454  14CC                     u535_21:
  9455  14CC  2CAC               	goto	i1l3268
  9456  14CD                     u535_20:
  9457  14CD                     i1l3280:
  9458  14CD  01B9               	clrf	i1___fldiv@aexp
  9459  14CE                     i1l3282:
  9460  14CE  1FB7               	btfss	i1___fldiv@grs+3,7
  9461  14CF  2CD1               	goto	u536_21
  9462  14D0  2CD2               	goto	u536_20
  9463  14D1                     u536_21:
  9464  14D1  2CEE               	goto	i1l3290
  9465  14D2                     u536_20:
  9466  14D2                     i1l3284:
  9467  14D2  30FF               	movlw	255
  9468  14D3  0534               	andwf	i1___fldiv@grs,w
  9469  14D4  00A8               	movwf	??i1___fldiv
  9470  14D5  30FF               	movlw	255
  9471  14D6  0535               	andwf	i1___fldiv@grs+1,w
  9472  14D7  00A9               	movwf	??i1___fldiv+1
  9473  14D8  30FF               	movlw	255
  9474  14D9  0536               	andwf	i1___fldiv@grs+2,w
  9475  14DA  00AA               	movwf	??i1___fldiv+2
  9476  14DB  307F               	movlw	127
  9477  14DC  0537               	andwf	i1___fldiv@grs+3,w
  9478  14DD  00AB               	movwf	??i1___fldiv+3
  9479  14DE  082B               	movf	??i1___fldiv+3,w
  9480  14DF  042A               	iorwf	??i1___fldiv+2,w
  9481  14E0  0429               	iorwf	??i1___fldiv+1,w
  9482  14E1  0428               	iorwf	??i1___fldiv,w
  9483  14E2  1903               	skipnz
  9484  14E3  2CE5               	goto	u537_21
  9485  14E4  2CE6               	goto	u537_20
  9486  14E5                     u537_21:
  9487  14E5  2CE9               	goto	i1l655
  9488  14E6                     u537_20:
  9489  14E6                     i1l3286:
  9490  14E6  01B9               	clrf	i1___fldiv@aexp
  9491  14E7  0AB9               	incf	i1___fldiv@aexp,f
  9492  14E8  2CEE               	goto	i1l3290
  9493  14E9                     i1l655:
  9494  14E9  1C24               	btfss	i1___fldiv@b,0
  9495  14EA  2CEC               	goto	u538_21
  9496  14EB  2CED               	goto	u538_20
  9497  14EC                     u538_21:
  9498  14EC  2CEE               	goto	i1l3290
  9499  14ED                     u538_20:
  9500  14ED  2CE6               	goto	i1l3286
  9501  14EE                     i1l3290:
  9502  14EE  0839               	movf	i1___fldiv@aexp,w
  9503  14EF  1903               	btfsc	3,2
  9504  14F0  2CF2               	goto	u539_21
  9505  14F1  2CF3               	goto	u539_20
  9506  14F2                     u539_21:
  9507  14F2  2D24               	goto	i1l3300
  9508  14F3                     u539_20:
  9509  14F3                     i1l3292:
  9510  14F3  3001               	movlw	1
  9511  14F4  07A4               	addwf	i1___fldiv@b,f
  9512  14F5  3000               	movlw	0
  9513  14F6  1803               	skipnc
  9514  14F7  3001               	movlw	1
  9515  14F8  07A5               	addwf	i1___fldiv@b+1,f
  9516  14F9  3000               	movlw	0
  9517  14FA  1803               	skipnc
  9518  14FB  3001               	movlw	1
  9519  14FC  07A6               	addwf	i1___fldiv@b+2,f
  9520  14FD  3000               	movlw	0
  9521  14FE  1803               	skipnc
  9522  14FF  3001               	movlw	1
  9523  1500  07A7               	addwf	i1___fldiv@b+3,f
  9524  1501                     i1l3294:
  9525  1501  1C27               	btfss	i1___fldiv@b+3,0
  9526  1502  2D04               	goto	u540_21
  9527  1503  2D05               	goto	u540_20
  9528  1504                     u540_21:
  9529  1504  2D24               	goto	i1l3300
  9530  1505                     u540_20:
  9531  1505                     i1l3296:
  9532  1505  0824               	movf	i1___fldiv@b,w
  9533  1506  00A8               	movwf	??i1___fldiv
  9534  1507  0825               	movf	i1___fldiv@b+1,w
  9535  1508  00A9               	movwf	??i1___fldiv+1
  9536  1509  0826               	movf	i1___fldiv@b+2,w
  9537  150A  00AA               	movwf	??i1___fldiv+2
  9538  150B  0827               	movf	i1___fldiv@b+3,w
  9539  150C  00AB               	movwf	??i1___fldiv+3
  9540  150D  3001               	movlw	1
  9541  150E  00AC               	movwf	??i1___fldiv+4
  9542  150F                     u541_25:
  9543  150F  0D2B               	rlf	??i1___fldiv+3,w
  9544  1510  0CAB               	rrf	??i1___fldiv+3,f
  9545  1511  0CAA               	rrf	??i1___fldiv+2,f
  9546  1512  0CA9               	rrf	??i1___fldiv+1,f
  9547  1513  0CA8               	rrf	??i1___fldiv,f
  9548  1514                     u541_20:
  9549  1514  0BAC               	decfsz	??i1___fldiv+4,f
  9550  1515  2D0F               	goto	u541_25
  9551  1516  082B               	movf	??i1___fldiv+3,w
  9552  1517  00A7               	movwf	i1___fldiv@b+3
  9553  1518  082A               	movf	??i1___fldiv+2,w
  9554  1519  00A6               	movwf	i1___fldiv@b+2
  9555  151A  0829               	movf	??i1___fldiv+1,w
  9556  151B  00A5               	movwf	i1___fldiv@b+1
  9557  151C  0828               	movf	??i1___fldiv,w
  9558  151D  00A4               	movwf	i1___fldiv@b
  9559  151E                     i1l3298:
  9560  151E  3001               	movlw	1
  9561  151F  07B2               	addwf	i1___fldiv@new_exp,f
  9562  1520  1803               	skipnc
  9563  1521  0AB3               	incf	i1___fldiv@new_exp+1,f
  9564  1522  3000               	movlw	0
  9565  1523  07B3               	addwf	i1___fldiv@new_exp+1,f
  9566  1524                     i1l3300:
  9567  1524  0833               	movf	i1___fldiv@new_exp+1,w
  9568  1525  3A80               	xorlw	128
  9569  1526  00FF               	movwf	btemp+1
  9570  1527  3080               	movlw	128
  9571  1528  027F               	subwf	btemp+1,w
  9572  1529  1D03               	skipz
  9573  152A  2D2D               	goto	u542_25
  9574  152B  30FF               	movlw	255
  9575  152C  0232               	subwf	i1___fldiv@new_exp,w
  9576  152D                     u542_25:
  9577  152D  1C03               	skipc
  9578  152E  2D30               	goto	u542_21
  9579  152F  2D31               	goto	u542_20
  9580  1530                     u542_21:
  9581  1530  2D3F               	goto	i1l3304
  9582  1531                     u542_20:
  9583  1531                     i1l3302:
  9584  1531  30FF               	movlw	255
  9585  1532  1283               	bcf	3,5	;RP0=0, select bank0
  9586  1533  1303               	bcf	3,6	;RP1=0, select bank0
  9587  1534  00B2               	movwf	i1___fldiv@new_exp
  9588  1535  3000               	movlw	0
  9589  1536  00B3               	movwf	i1___fldiv@new_exp+1
  9590  1537  3000               	movlw	0
  9591  1538  00A7               	movwf	i1___fldiv@b+3
  9592  1539  3000               	movlw	0
  9593  153A  00A6               	movwf	i1___fldiv@b+2
  9594  153B  3000               	movlw	0
  9595  153C  00A5               	movwf	i1___fldiv@b+1
  9596  153D  3000               	movlw	0
  9597  153E  00A4               	movwf	i1___fldiv@b
  9598  153F                     i1l3304:
  9599  153F  1283               	bcf	3,5	;RP0=0, select bank0
  9600  1540  1303               	bcf	3,6	;RP1=0, select bank0
  9601  1541  0833               	movf	i1___fldiv@new_exp+1,w
  9602  1542  3A80               	xorlw	128
  9603  1543  00FF               	movwf	btemp+1
  9604  1544  3080               	movlw	128
  9605  1545  027F               	subwf	btemp+1,w
  9606  1546  1D03               	skipz
  9607  1547  2D4A               	goto	u543_25
  9608  1548  3001               	movlw	1
  9609  1549  0232               	subwf	i1___fldiv@new_exp,w
  9610  154A                     u543_25:
  9611  154A  1803               	skipnc
  9612  154B  2D4D               	goto	u543_21
  9613  154C  2D4E               	goto	u543_20
  9614  154D                     u543_21:
  9615  154D  2D5B               	goto	i1l661
  9616  154E                     u543_20:
  9617  154E                     i1l3306:
  9618  154E  1283               	bcf	3,5	;RP0=0, select bank0
  9619  154F  1303               	bcf	3,6	;RP1=0, select bank0
  9620  1550  01B2               	clrf	i1___fldiv@new_exp
  9621  1551  01B3               	clrf	i1___fldiv@new_exp+1
  9622  1552                     i1l3308:
  9623  1552  3000               	movlw	0
  9624  1553  00A7               	movwf	i1___fldiv@b+3
  9625  1554  3000               	movlw	0
  9626  1555  00A6               	movwf	i1___fldiv@b+2
  9627  1556  3000               	movlw	0
  9628  1557  00A5               	movwf	i1___fldiv@b+1
  9629  1558  3000               	movlw	0
  9630  1559  00A4               	movwf	i1___fldiv@b
  9631  155A                     i1l3310:
  9632  155A  01B1               	clrf	i1___fldiv@sign
  9633  155B                     i1l661:
  9634  155B  1283               	bcf	3,5	;RP0=0, select bank0
  9635  155C  1303               	bcf	3,6	;RP1=0, select bank0
  9636  155D  0832               	movf	i1___fldiv@new_exp,w
  9637  155E  00A8               	movwf	??i1___fldiv
  9638  155F  0828               	movf	??i1___fldiv,w
  9639  1560  00B8               	movwf	i1___fldiv@bexp
  9640  1561                     i1l3312:
  9641  1561  1C38               	btfss	i1___fldiv@bexp,0
  9642  1562  2D64               	goto	u544_21
  9643  1563  2D65               	goto	u544_20
  9644  1564                     u544_21:
  9645  1564  2D67               	goto	i1l3316
  9646  1565                     u544_20:
  9647  1565                     i1l3314:
  9648  1565  17A6               	bsf	i1___fldiv@b+2,7
  9649  1566  2D6B               	goto	i1l663
  9650  1567                     i1l3316:
  9651  1567  307F               	movlw	127
  9652  1568  00A8               	movwf	??i1___fldiv
  9653  1569  0828               	movf	??i1___fldiv,w
  9654  156A  05A6               	andwf	i1___fldiv@b+2,f
  9655  156B                     i1l663:
  9656  156B  0838               	movf	i1___fldiv@bexp,w
  9657  156C  00A8               	movwf	??i1___fldiv
  9658  156D  1003               	clrc
  9659  156E  0C28               	rrf	??i1___fldiv,w
  9660  156F  00A9               	movwf	??i1___fldiv+1
  9661  1570  0829               	movf	??i1___fldiv+1,w
  9662  1571  00A7               	movwf	i1___fldiv@b+3
  9663  1572  0831               	movf	i1___fldiv@sign,w
  9664  1573  00A8               	movwf	??i1___fldiv
  9665  1574  0828               	movf	??i1___fldiv,w
  9666  1575  04A7               	iorwf	i1___fldiv@b+3,f
  9667  1576  2C0F               	goto	i1l3224
  9668  1577                     i1l641:
  9669  1577  0008               	return
  9670  1578                     __end_ofi1___fldiv:
  9671                           
  9672                           	psect	text22
  9673  1578                     __ptext22:	
  9674 ;; *************** function i1___fladd *****************
  9675 ;; Defined at:
  9676 ;;		line 10 in file "C:\Program Files\Microchip\xc8\v2.35\pic\sources\c90\common\sprcadd.c"
  9677 ;; Parameters:    Size  Location     Type
  9678 ;;  b               4   52[BANK0 ] unsigned char 
  9679 ;;  a               4   56[BANK0 ] unsigned char 
  9680 ;; Auto vars:     Size  Location     Type
  9681 ;;  grs             1   71[BANK0 ] unsigned char 
  9682 ;;  bexp            1   70[BANK0 ] unsigned char 
  9683 ;;  aexp            1   69[BANK0 ] unsigned char 
  9684 ;;  signs           1   68[BANK0 ] unsigned char 
  9685 ;; Return value:  Size  Location     Type
  9686 ;;                  4   52[BANK0 ] unsigned char 
  9687 ;; Registers used:
  9688 ;;		wreg, status,2, status,0, btemp+1
  9689 ;; Tracked objects:
  9690 ;;		On entry : 0/0
  9691 ;;		On exit  : 0/0
  9692 ;;		Unchanged: 0/0
  9693 ;; Data sizes:     COMMON   BANK0   BANK1   BANK3   BANK2
  9694 ;;      Params:         0       8       0       0       0
  9695 ;;      Locals:         0       4       0       0       0
  9696 ;;      Temps:          0       8       0       0       0
  9697 ;;      Totals:         0      20       0       0       0
  9698 ;;Total ram usage:       20 bytes
  9699 ;; Hardware stack levels used: 1
  9700 ;; This function calls:
  9701 ;;		Nothing
  9702 ;; This function is called by:
  9703 ;;		i1_interpole
  9704 ;; This function uses a non-reentrant model
  9705 ;;
  9706                           
  9707  1578                     i1___fladd:	
  9708                           ;psect for function i1___fladd
  9709                           
  9710  1578                     i1l2986:	
  9711                           ;incstack = 0
  9712                           ; Regs used in i1___fladd: [wreg+status,2+status,0+btemp+1]
  9713                           
  9714  1578  1283               	bcf	3,5	;RP0=0, select bank0
  9715  1579  1303               	bcf	3,6	;RP1=0, select bank0
  9716  157A  0857               	movf	i1___fladd@b+3,w
  9717  157B  3980               	andlw	128
  9718  157C  00DC               	movwf	??i1___fladd
  9719  157D  085C               	movf	??i1___fladd,w
  9720  157E  00E4               	movwf	i1___fladd@signs
  9721  157F                     i1l2988:
  9722  157F  0857               	movf	i1___fladd@b+3,w
  9723  1580  00DC               	movwf	??i1___fladd
  9724  1581  075C               	addwf	??i1___fladd,w
  9725  1582  00DD               	movwf	??i1___fladd+1
  9726  1583  085D               	movf	??i1___fladd+1,w
  9727  1584  00E6               	movwf	i1___fladd@bexp
  9728  1585                     i1l2990:
  9729  1585  1FD6               	btfss	i1___fladd@b+2,7
  9730  1586  2D88               	goto	u470_21
  9731  1587  2D89               	goto	u470_20
  9732  1588                     u470_21:
  9733  1588  2D8A               	goto	i1l2994
  9734  1589                     u470_20:
  9735  1589                     i1l2992:
  9736  1589  1466               	bsf	i1___fladd@bexp,0
  9737  158A                     i1l2994:
  9738  158A  0866               	movf	i1___fladd@bexp,w
  9739  158B  1903               	btfsc	3,2
  9740  158C  2D8E               	goto	u471_21
  9741  158D  2D8F               	goto	u471_20
  9742  158E                     u471_21:
  9743  158E  2D9F               	goto	i1l3004
  9744  158F                     u471_20:
  9745  158F                     i1l2996:
  9746  158F  0A66               	incf	i1___fladd@bexp,w
  9747  1590  1D03               	btfss	3,2
  9748  1591  2D93               	goto	u472_21
  9749  1592  2D94               	goto	u472_20
  9750  1593                     u472_21:
  9751  1593  2D9C               	goto	i1l3000
  9752  1594                     u472_20:
  9753  1594                     i1l2998:
  9754  1594  3000               	movlw	0
  9755  1595  00D7               	movwf	i1___fladd@b+3
  9756  1596  3000               	movlw	0
  9757  1597  00D6               	movwf	i1___fladd@b+2
  9758  1598  3000               	movlw	0
  9759  1599  00D5               	movwf	i1___fladd@b+1
  9760  159A  3000               	movlw	0
  9761  159B  00D4               	movwf	i1___fladd@b
  9762  159C                     i1l3000:
  9763  159C  17D6               	bsf	i1___fladd@b+2,7
  9764  159D                     i1l3002:
  9765  159D  01D7               	clrf	i1___fladd@b+3
  9766  159E  2DA7               	goto	i1l3006
  9767  159F                     i1l3004:
  9768  159F  3000               	movlw	0
  9769  15A0  00D7               	movwf	i1___fladd@b+3
  9770  15A1  3000               	movlw	0
  9771  15A2  00D6               	movwf	i1___fladd@b+2
  9772  15A3  3000               	movlw	0
  9773  15A4  00D5               	movwf	i1___fladd@b+1
  9774  15A5  3000               	movlw	0
  9775  15A6  00D4               	movwf	i1___fladd@b
  9776  15A7                     i1l3006:
  9777  15A7  085B               	movf	i1___fladd@a+3,w
  9778  15A8  3980               	andlw	128
  9779  15A9  00DC               	movwf	??i1___fladd
  9780  15AA  085C               	movf	??i1___fladd,w
  9781  15AB  00E5               	movwf	i1___fladd@aexp
  9782  15AC                     i1l3008:
  9783  15AC  0865               	movf	i1___fladd@aexp,w
  9784  15AD  0664               	xorwf	i1___fladd@signs,w
  9785  15AE  1903               	skipnz
  9786  15AF  2DB1               	goto	u473_21
  9787  15B0  2DB2               	goto	u473_20
  9788  15B1                     u473_21:
  9789  15B1  2DB3               	goto	i1l3012
  9790  15B2                     u473_20:
  9791  15B2                     i1l3010:
  9792  15B2  1764               	bsf	i1___fladd@signs,6
  9793  15B3                     i1l3012:
  9794  15B3  085B               	movf	i1___fladd@a+3,w
  9795  15B4  00DC               	movwf	??i1___fladd
  9796  15B5  075C               	addwf	??i1___fladd,w
  9797  15B6  00DD               	movwf	??i1___fladd+1
  9798  15B7  085D               	movf	??i1___fladd+1,w
  9799  15B8  00E5               	movwf	i1___fladd@aexp
  9800  15B9                     i1l3014:
  9801  15B9  1FDA               	btfss	i1___fladd@a+2,7
  9802  15BA  2DBC               	goto	u474_21
  9803  15BB  2DBD               	goto	u474_20
  9804  15BC                     u474_21:
  9805  15BC  2DBE               	goto	i1l3018
  9806  15BD                     u474_20:
  9807  15BD                     i1l3016:
  9808  15BD  1465               	bsf	i1___fladd@aexp,0
  9809  15BE                     i1l3018:
  9810  15BE  0865               	movf	i1___fladd@aexp,w
  9811  15BF  1903               	btfsc	3,2
  9812  15C0  2DC2               	goto	u475_21
  9813  15C1  2DC3               	goto	u475_20
  9814  15C2                     u475_21:
  9815  15C2  2DD3               	goto	i1l3028
  9816  15C3                     u475_20:
  9817  15C3                     i1l3020:
  9818  15C3  0A65               	incf	i1___fladd@aexp,w
  9819  15C4  1D03               	btfss	3,2
  9820  15C5  2DC7               	goto	u476_21
  9821  15C6  2DC8               	goto	u476_20
  9822  15C7                     u476_21:
  9823  15C7  2DD0               	goto	i1l3024
  9824  15C8                     u476_20:
  9825  15C8                     i1l3022:
  9826  15C8  3000               	movlw	0
  9827  15C9  00DB               	movwf	i1___fladd@a+3
  9828  15CA  3000               	movlw	0
  9829  15CB  00DA               	movwf	i1___fladd@a+2
  9830  15CC  3000               	movlw	0
  9831  15CD  00D9               	movwf	i1___fladd@a+1
  9832  15CE  3000               	movlw	0
  9833  15CF  00D8               	movwf	i1___fladd@a
  9834  15D0                     i1l3024:
  9835  15D0  17DA               	bsf	i1___fladd@a+2,7
  9836  15D1                     i1l3026:
  9837  15D1  01DB               	clrf	i1___fladd@a+3
  9838  15D2  2DDB               	goto	i1l583
  9839  15D3                     i1l3028:
  9840  15D3  3000               	movlw	0
  9841  15D4  00DB               	movwf	i1___fladd@a+3
  9842  15D5  3000               	movlw	0
  9843  15D6  00DA               	movwf	i1___fladd@a+2
  9844  15D7  3000               	movlw	0
  9845  15D8  00D9               	movwf	i1___fladd@a+1
  9846  15D9  3000               	movlw	0
  9847  15DA  00D8               	movwf	i1___fladd@a
  9848  15DB                     i1l583:
  9849  15DB  0866               	movf	i1___fladd@bexp,w
  9850  15DC  0265               	subwf	i1___fladd@aexp,w
  9851  15DD  1803               	skipnc
  9852  15DE  2DE0               	goto	u477_21
  9853  15DF  2DE1               	goto	u477_20
  9854  15E0                     u477_21:
  9855  15E0  2E25               	goto	i1l3064
  9856  15E1                     u477_20:
  9857  15E1                     i1l3030:
  9858  15E1  1F64               	btfss	i1___fladd@signs,6
  9859  15E2  2DE4               	goto	u478_21
  9860  15E3  2DE5               	goto	u478_20
  9861  15E4                     u478_21:
  9862  15E4  2DE9               	goto	i1l3034
  9863  15E5                     u478_20:
  9864  15E5                     i1l3032:
  9865  15E5  3080               	movlw	128
  9866  15E6  00DC               	movwf	??i1___fladd
  9867  15E7  085C               	movf	??i1___fladd,w
  9868  15E8  06E4               	xorwf	i1___fladd@signs,f
  9869  15E9                     i1l3034:
  9870  15E9  0866               	movf	i1___fladd@bexp,w
  9871  15EA  00DC               	movwf	??i1___fladd
  9872  15EB  085C               	movf	??i1___fladd,w
  9873  15EC  00E7               	movwf	i1___fladd@grs
  9874  15ED                     i1l3036:
  9875  15ED  0865               	movf	i1___fladd@aexp,w
  9876  15EE  00DC               	movwf	??i1___fladd
  9877  15EF  085C               	movf	??i1___fladd,w
  9878  15F0  00E6               	movwf	i1___fladd@bexp
  9879  15F1                     i1l3038:
  9880  15F1  0867               	movf	i1___fladd@grs,w
  9881  15F2  00DC               	movwf	??i1___fladd
  9882  15F3  085C               	movf	??i1___fladd,w
  9883  15F4  00E5               	movwf	i1___fladd@aexp
  9884  15F5                     i1l3040:
  9885  15F5  0854               	movf	i1___fladd@b,w
  9886  15F6  00DC               	movwf	??i1___fladd
  9887  15F7  085C               	movf	??i1___fladd,w
  9888  15F8  00E7               	movwf	i1___fladd@grs
  9889  15F9                     i1l3042:
  9890  15F9  0858               	movf	i1___fladd@a,w
  9891  15FA  00DC               	movwf	??i1___fladd
  9892  15FB  085C               	movf	??i1___fladd,w
  9893  15FC  00D4               	movwf	i1___fladd@b
  9894  15FD                     i1l3044:
  9895  15FD  0867               	movf	i1___fladd@grs,w
  9896  15FE  00DC               	movwf	??i1___fladd
  9897  15FF  085C               	movf	??i1___fladd,w
  9898  1600  00D8               	movwf	i1___fladd@a
  9899  1601                     i1l3046:
  9900  1601  0855               	movf	i1___fladd@b+1,w
  9901  1602  00DC               	movwf	??i1___fladd
  9902  1603  085C               	movf	??i1___fladd,w
  9903  1604  00E7               	movwf	i1___fladd@grs
  9904  1605                     i1l3048:
  9905  1605  0859               	movf	i1___fladd@a+1,w
  9906  1606  00DC               	movwf	??i1___fladd
  9907  1607  085C               	movf	??i1___fladd,w
  9908  1608  00D5               	movwf	i1___fladd@b+1
  9909  1609                     i1l3050:
  9910  1609  0867               	movf	i1___fladd@grs,w
  9911  160A  00DC               	movwf	??i1___fladd
  9912  160B  085C               	movf	??i1___fladd,w
  9913  160C  00D9               	movwf	i1___fladd@a+1
  9914  160D                     i1l3052:
  9915  160D  0856               	movf	i1___fladd@b+2,w
  9916  160E  00DC               	movwf	??i1___fladd
  9917  160F  085C               	movf	??i1___fladd,w
  9918  1610  00E7               	movwf	i1___fladd@grs
  9919  1611                     i1l3054:
  9920  1611  085A               	movf	i1___fladd@a+2,w
  9921  1612  00DC               	movwf	??i1___fladd
  9922  1613  085C               	movf	??i1___fladd,w
  9923  1614  00D6               	movwf	i1___fladd@b+2
  9924  1615                     i1l3056:
  9925  1615  0867               	movf	i1___fladd@grs,w
  9926  1616  00DC               	movwf	??i1___fladd
  9927  1617  085C               	movf	??i1___fladd,w
  9928  1618  00DA               	movwf	i1___fladd@a+2
  9929  1619                     i1l3058:
  9930  1619  0857               	movf	i1___fladd@b+3,w
  9931  161A  00DC               	movwf	??i1___fladd
  9932  161B  085C               	movf	??i1___fladd,w
  9933  161C  00E7               	movwf	i1___fladd@grs
  9934  161D                     i1l3060:
  9935  161D  085B               	movf	i1___fladd@a+3,w
  9936  161E  00DC               	movwf	??i1___fladd
  9937  161F  085C               	movf	??i1___fladd,w
  9938  1620  00D7               	movwf	i1___fladd@b+3
  9939  1621                     i1l3062:
  9940  1621  0867               	movf	i1___fladd@grs,w
  9941  1622  00DC               	movwf	??i1___fladd
  9942  1623  085C               	movf	??i1___fladd,w
  9943  1624  00DB               	movwf	i1___fladd@a+3
  9944  1625                     i1l3064:
  9945  1625  01E7               	clrf	i1___fladd@grs
  9946  1626                     i1l3066:
  9947  1626  0865               	movf	i1___fladd@aexp,w
  9948  1627  00DC               	movwf	??i1___fladd
  9949  1628  01DD               	clrf	??i1___fladd+1
  9950  1629  085D               	movf	??i1___fladd+1,w
  9951  162A  00DF               	movwf	??i1___fladd+3
  9952  162B  0866               	movf	i1___fladd@bexp,w
  9953  162C  025C               	subwf	??i1___fladd,w
  9954  162D  00DE               	movwf	??i1___fladd+2
  9955  162E  1C03               	skipc
  9956  162F  03DF               	decf	??i1___fladd+3,f
  9957  1630  085F               	movf	??i1___fladd+3,w
  9958  1631  3A80               	xorlw	128
  9959  1632  00FF               	movwf	btemp+1
  9960  1633  3080               	movlw	128
  9961  1634  027F               	subwf	btemp+1,w
  9962  1635  1D03               	skipz
  9963  1636  2E39               	goto	u479_25
  9964  1637  301A               	movlw	26
  9965  1638  025E               	subwf	??i1___fladd+2,w
  9966  1639                     u479_25:
  9967  1639  1C03               	skipc
  9968  163A  2E3C               	goto	u479_21
  9969  163B  2E3D               	goto	u479_20
  9970  163C                     u479_21:
  9971  163C  2E7A               	goto	i1l3082
  9972  163D                     u479_20:
  9973  163D                     i1l3068:
  9974  163D  1283               	bcf	3,5	;RP0=0, select bank0
  9975  163E  1303               	bcf	3,6	;RP1=0, select bank0
  9976  163F  0857               	movf	i1___fladd@b+3,w
  9977  1640  0456               	iorwf	i1___fladd@b+2,w
  9978  1641  0455               	iorwf	i1___fladd@b+1,w
  9979  1642  0454               	iorwf	i1___fladd@b,w
  9980  1643  1D03               	skipz
  9981  1644  2E46               	goto	u480_21
  9982  1645  2E48               	goto	u480_20
  9983  1646                     u480_21:
  9984  1646  3001               	movlw	1
  9985  1647  2E49               	goto	u481_20
  9986  1648                     u480_20:
  9987  1648  3000               	movlw	0
  9988  1649                     u481_20:
  9989  1649  00DC               	movwf	??i1___fladd
  9990  164A  085C               	movf	??i1___fladd,w
  9991  164B  00E7               	movwf	i1___fladd@grs
  9992  164C  3000               	movlw	0
  9993  164D  00D7               	movwf	i1___fladd@b+3
  9994  164E  3000               	movlw	0
  9995  164F  00D6               	movwf	i1___fladd@b+2
  9996  1650  3000               	movlw	0
  9997  1651  00D5               	movwf	i1___fladd@b+1
  9998  1652  3000               	movlw	0
  9999  1653  00D4               	movwf	i1___fladd@b
 10000  1654  0865               	movf	i1___fladd@aexp,w
 10001  1655  00DC               	movwf	??i1___fladd
 10002  1656  085C               	movf	??i1___fladd,w
 10003  1657  00E6               	movwf	i1___fladd@bexp
 10004  1658  2E82               	goto	i1l587
 10005  1659                     i1l589:
 10006  1659  1C67               	btfss	i1___fladd@grs,0
 10007  165A  2E5C               	goto	u482_21
 10008  165B  2E5D               	goto	u482_20
 10009  165C                     u482_21:
 10010  165C  2E66               	goto	i1l3072
 10011  165D                     u482_20:
 10012  165D                     i1l3070:
 10013  165D  0867               	movf	i1___fladd@grs,w
 10014  165E  00DC               	movwf	??i1___fladd
 10015  165F  1003               	clrc
 10016  1660  0C5C               	rrf	??i1___fladd,w
 10017  1661  3801               	iorlw	1
 10018  1662  00DD               	movwf	??i1___fladd+1
 10019  1663  085D               	movf	??i1___fladd+1,w
 10020  1664  00E7               	movwf	i1___fladd@grs
 10021  1665  2E68               	goto	i1l3074
 10022  1666                     i1l3072:
 10023  1666  1003               	clrc
 10024  1667  0CE7               	rrf	i1___fladd@grs,f
 10025  1668                     i1l3074:
 10026  1668  1C54               	btfss	i1___fladd@b,0
 10027  1669  2E6B               	goto	u483_21
 10028  166A  2E6C               	goto	u483_20
 10029  166B                     u483_21:
 10030  166B  2E6D               	goto	i1l3078
 10031  166C                     u483_20:
 10032  166C                     i1l3076:
 10033  166C  17E7               	bsf	i1___fladd@grs,7
 10034  166D                     i1l3078:
 10035  166D  3001               	movlw	1
 10036  166E  00DC               	movwf	??i1___fladd
 10037  166F                     u484_25:
 10038  166F  0D57               	rlf	i1___fladd@b+3,w
 10039  1670  0CD7               	rrf	i1___fladd@b+3,f
 10040  1671  0CD6               	rrf	i1___fladd@b+2,f
 10041  1672  0CD5               	rrf	i1___fladd@b+1,f
 10042  1673  0CD4               	rrf	i1___fladd@b,f
 10043  1674  0BDC               	decfsz	??i1___fladd& (0+127),f
 10044  1675  2E6F               	goto	u484_25
 10045  1676                     i1l3080:
 10046  1676  3001               	movlw	1
 10047  1677  00DC               	movwf	??i1___fladd
 10048  1678  085C               	movf	??i1___fladd,w
 10049  1679  07E6               	addwf	i1___fladd@bexp,f
 10050  167A                     i1l3082:
 10051  167A  1283               	bcf	3,5	;RP0=0, select bank0
 10052  167B  1303               	bcf	3,6	;RP1=0, select bank0
 10053  167C  0865               	movf	i1___fladd@aexp,w
 10054  167D  0266               	subwf	i1___fladd@bexp,w
 10055  167E  1C03               	skipc
 10056  167F  2E81               	goto	u485_21
 10057  1680  2E82               	goto	u485_20
 10058  1681                     u485_21:
 10059  1681  2E59               	goto	i1l589
 10060  1682                     u485_20:
 10061  1682                     i1l587:
 10062  1682  1B64               	btfsc	i1___fladd@signs,6
 10063  1683  2E85               	goto	u486_21
 10064  1684  2E86               	goto	u486_20
 10065  1685                     u486_21:
 10066  1685  2ED1               	goto	i1l3108
 10067  1686                     u486_20:
 10068  1686                     i1l3084:
 10069  1686  0866               	movf	i1___fladd@bexp,w
 10070  1687  1D03               	btfss	3,2
 10071  1688  2E8A               	goto	u487_21
 10072  1689  2E8B               	goto	u487_20
 10073  168A                     u487_21:
 10074  168A  2E94               	goto	i1l3090
 10075  168B                     u487_20:
 10076  168B                     i1l3086:
 10077  168B  3000               	movlw	0
 10078  168C  00D7               	movwf	?i1___fladd+3
 10079  168D  3000               	movlw	0
 10080  168E  00D6               	movwf	?i1___fladd+2
 10081  168F  3000               	movlw	0
 10082  1690  00D5               	movwf	?i1___fladd+1
 10083  1691  3000               	movlw	0
 10084  1692  00D4               	movwf	?i1___fladd
 10085  1693  2FFF               	goto	i1l596
 10086  1694                     i1l3090:
 10087  1694  0858               	movf	i1___fladd@a,w
 10088  1695  07D4               	addwf	i1___fladd@b,f
 10089  1696  0859               	movf	i1___fladd@a+1,w
 10090  1697  1103               	clrz
 10091  1698  1803               	skipnc
 10092  1699  3E01               	addlw	1
 10093  169A  1903               	skipnz
 10094  169B  2E9D               	goto	u488_21
 10095  169C  07D5               	addwf	i1___fladd@b+1,f
 10096  169D                     u488_21:
 10097  169D  085A               	movf	i1___fladd@a+2,w
 10098  169E  1103               	clrz
 10099  169F  1803               	skipnc
 10100  16A0  3E01               	addlw	1
 10101  16A1  1903               	skipnz
 10102  16A2  2EA4               	goto	u488_22
 10103  16A3  07D6               	addwf	i1___fladd@b+2,f
 10104  16A4                     u488_22:
 10105  16A4  085B               	movf	i1___fladd@a+3,w
 10106  16A5  1103               	clrz
 10107  16A6  1803               	skipnc
 10108  16A7  3E01               	addlw	1
 10109  16A8  1903               	skipnz
 10110  16A9  2EAB               	goto	u488_23
 10111  16AA  07D7               	addwf	i1___fladd@b+3,f
 10112  16AB                     u488_23:
 10113  16AB                     i1l3092:
 10114  16AB  1C57               	btfss	i1___fladd@b+3,0
 10115  16AC  2EAE               	goto	u489_21
 10116  16AD  2EAF               	goto	u489_20
 10117  16AE                     u489_21:
 10118  16AE  2F85               	goto	i1l3142
 10119  16AF                     u489_20:
 10120  16AF                     i1l3094:
 10121  16AF  1C67               	btfss	i1___fladd@grs,0
 10122  16B0  2EB2               	goto	u490_21
 10123  16B1  2EB3               	goto	u490_20
 10124  16B2                     u490_21:
 10125  16B2  2EBC               	goto	i1l3098
 10126  16B3                     u490_20:
 10127  16B3                     i1l3096:
 10128  16B3  0867               	movf	i1___fladd@grs,w
 10129  16B4  00DC               	movwf	??i1___fladd
 10130  16B5  1003               	clrc
 10131  16B6  0C5C               	rrf	??i1___fladd,w
 10132  16B7  3801               	iorlw	1
 10133  16B8  00DD               	movwf	??i1___fladd+1
 10134  16B9  085D               	movf	??i1___fladd+1,w
 10135  16BA  00E7               	movwf	i1___fladd@grs
 10136  16BB  2EBE               	goto	i1l3100
 10137  16BC                     i1l3098:
 10138  16BC  1003               	clrc
 10139  16BD  0CE7               	rrf	i1___fladd@grs,f
 10140  16BE                     i1l3100:
 10141  16BE  1C54               	btfss	i1___fladd@b,0
 10142  16BF  2EC1               	goto	u491_21
 10143  16C0  2EC2               	goto	u491_20
 10144  16C1                     u491_21:
 10145  16C1  2EC3               	goto	i1l3104
 10146  16C2                     u491_20:
 10147  16C2                     i1l3102:
 10148  16C2  17E7               	bsf	i1___fladd@grs,7
 10149  16C3                     i1l3104:
 10150  16C3  3001               	movlw	1
 10151  16C4  00DC               	movwf	??i1___fladd
 10152  16C5                     u492_25:
 10153  16C5  0D57               	rlf	i1___fladd@b+3,w
 10154  16C6  0CD7               	rrf	i1___fladd@b+3,f
 10155  16C7  0CD6               	rrf	i1___fladd@b+2,f
 10156  16C8  0CD5               	rrf	i1___fladd@b+1,f
 10157  16C9  0CD4               	rrf	i1___fladd@b,f
 10158  16CA  0BDC               	decfsz	??i1___fladd& (0+127),f
 10159  16CB  2EC5               	goto	u492_25
 10160  16CC                     i1l3106:
 10161  16CC  3001               	movlw	1
 10162  16CD  00DC               	movwf	??i1___fladd
 10163  16CE  085C               	movf	??i1___fladd,w
 10164  16CF  07E6               	addwf	i1___fladd@bexp,f
 10165  16D0  2F85               	goto	i1l3142
 10166  16D1                     i1l3108:
 10167  16D1  0857               	movf	i1___fladd@b+3,w
 10168  16D2  3A80               	xorlw	128
 10169  16D3  00FF               	movwf	btemp+1
 10170  16D4  085B               	movf	i1___fladd@a+3,w
 10171  16D5  3A80               	xorlw	128
 10172  16D6  027F               	subwf	btemp+1,w
 10173  16D7  1D03               	skipz
 10174  16D8  2EE3               	goto	u493_23
 10175  16D9  085A               	movf	i1___fladd@a+2,w
 10176  16DA  0256               	subwf	i1___fladd@b+2,w
 10177  16DB  1D03               	skipz
 10178  16DC  2EE3               	goto	u493_23
 10179  16DD  0859               	movf	i1___fladd@a+1,w
 10180  16DE  0255               	subwf	i1___fladd@b+1,w
 10181  16DF  1D03               	skipz
 10182  16E0  2EE3               	goto	u493_23
 10183  16E1  0858               	movf	i1___fladd@a,w
 10184  16E2  0254               	subwf	i1___fladd@b,w
 10185  16E3                     u493_23:
 10186  16E3  1803               	skipnc
 10187  16E4  2EE6               	goto	u493_21
 10188  16E5  2EE7               	goto	u493_20
 10189  16E6                     u493_21:
 10190  16E6  2F3F               	goto	i1l3118
 10191  16E7                     u493_20:
 10192  16E7                     i1l3110:
 10193  16E7  30FF               	movlw	255
 10194  16E8  00DC               	movwf	??i1___fladd
 10195  16E9  30FF               	movlw	255
 10196  16EA  00DD               	movwf	??i1___fladd+1
 10197  16EB  30FF               	movlw	255
 10198  16EC  00DE               	movwf	??i1___fladd+2
 10199  16ED  30FF               	movlw	255
 10200  16EE  00DF               	movwf	??i1___fladd+3
 10201  16EF  0858               	movf	i1___fladd@a,w
 10202  16F0  00E0               	movwf	??i1___fladd+4
 10203  16F1  0859               	movf	i1___fladd@a+1,w
 10204  16F2  00E1               	movwf	??i1___fladd+5
 10205  16F3  085A               	movf	i1___fladd@a+2,w
 10206  16F4  00E2               	movwf	??i1___fladd+6
 10207  16F5  085B               	movf	i1___fladd@a+3,w
 10208  16F6  00E3               	movwf	??i1___fladd+7
 10209  16F7  0854               	movf	i1___fladd@b,w
 10210  16F8  02E0               	subwf	??i1___fladd+4,f
 10211  16F9  0855               	movf	i1___fladd@b+1,w
 10212  16FA  1C03               	skipc
 10213  16FB  0F55               	incfsz	i1___fladd@b+1,w
 10214  16FC  2EFE               	goto	u494_21
 10215  16FD  2EFF               	goto	u494_22
 10216  16FE                     u494_21:
 10217  16FE  02E1               	subwf	??i1___fladd+5,f
 10218  16FF                     u494_22:
 10219  16FF  0856               	movf	i1___fladd@b+2,w
 10220  1700  1C03               	skipc
 10221  1701  0F56               	incfsz	i1___fladd@b+2,w
 10222  1702  2F04               	goto	u494_23
 10223  1703  2F05               	goto	u494_24
 10224  1704                     u494_23:
 10225  1704  02E2               	subwf	??i1___fladd+6,f
 10226  1705                     u494_24:
 10227  1705  0857               	movf	i1___fladd@b+3,w
 10228  1706  1C03               	skipc
 10229  1707  0F57               	incfsz	i1___fladd@b+3,w
 10230  1708  2F0A               	goto	u494_25
 10231  1709  2F0B               	goto	u494_26
 10232  170A                     u494_25:
 10233  170A  02E3               	subwf	??i1___fladd+7,f
 10234  170B                     u494_26:
 10235  170B  0860               	movf	??i1___fladd+4,w
 10236  170C  07DC               	addwf	??i1___fladd,f
 10237  170D  0861               	movf	??i1___fladd+5,w
 10238  170E  1803               	skipnc
 10239  170F  0F61               	incfsz	??i1___fladd+5,w
 10240  1710  2F12               	goto	u495_20
 10241  1711  2F13               	goto	u495_21
 10242  1712                     u495_20:
 10243  1712  07DD               	addwf	??i1___fladd+1,f
 10244  1713                     u495_21:
 10245  1713  0862               	movf	??i1___fladd+6,w
 10246  1714  1803               	skipnc
 10247  1715  0F62               	incfsz	??i1___fladd+6,w
 10248  1716  2F18               	goto	u495_22
 10249  1717  2F19               	goto	u495_23
 10250  1718                     u495_22:
 10251  1718  07DE               	addwf	??i1___fladd+2,f
 10252  1719                     u495_23:
 10253  1719  0863               	movf	??i1___fladd+7,w
 10254  171A  1803               	skipnc
 10255  171B  0A63               	incf	??i1___fladd+7,w
 10256  171C  07DF               	addwf	??i1___fladd+3,f
 10257  171D  085F               	movf	??i1___fladd+3,w
 10258  171E  00D7               	movwf	i1___fladd@b+3
 10259  171F  085E               	movf	??i1___fladd+2,w
 10260  1720  00D6               	movwf	i1___fladd@b+2
 10261  1721  085D               	movf	??i1___fladd+1,w
 10262  1722  00D5               	movwf	i1___fladd@b+1
 10263  1723  085C               	movf	??i1___fladd,w
 10264  1724  00D4               	movwf	i1___fladd@b
 10265  1725                     i1l3112:
 10266  1725  3080               	movlw	128
 10267  1726  00DC               	movwf	??i1___fladd
 10268  1727  085C               	movf	??i1___fladd,w
 10269  1728  06E4               	xorwf	i1___fladd@signs,f
 10270  1729  09E7               	comf	i1___fladd@grs,f
 10271  172A  0AE7               	incf	i1___fladd@grs,f
 10272  172B                     i1l3114:
 10273  172B  0867               	movf	i1___fladd@grs,w
 10274  172C  1D03               	btfss	3,2
 10275  172D  2F2F               	goto	u496_21
 10276  172E  2F30               	goto	u496_20
 10277  172F                     u496_21:
 10278  172F  2F4D               	goto	i1l604
 10279  1730                     u496_20:
 10280  1730                     i1l3116:
 10281  1730  3001               	movlw	1
 10282  1731  07D4               	addwf	i1___fladd@b,f
 10283  1732  3000               	movlw	0
 10284  1733  1803               	skipnc
 10285  1734  3001               	movlw	1
 10286  1735  07D5               	addwf	i1___fladd@b+1,f
 10287  1736  3000               	movlw	0
 10288  1737  1803               	skipnc
 10289  1738  3001               	movlw	1
 10290  1739  07D6               	addwf	i1___fladd@b+2,f
 10291  173A  3000               	movlw	0
 10292  173B  1803               	skipnc
 10293  173C  3001               	movlw	1
 10294  173D  07D7               	addwf	i1___fladd@b+3,f
 10295  173E  2F4D               	goto	i1l604
 10296  173F                     i1l3118:
 10297  173F  0858               	movf	i1___fladd@a,w
 10298  1740  02D4               	subwf	i1___fladd@b,f
 10299  1741  0859               	movf	i1___fladd@a+1,w
 10300  1742  1C03               	skipc
 10301  1743  0F59               	incfsz	i1___fladd@a+1,w
 10302  1744  02D5               	subwf	i1___fladd@b+1,f
 10303  1745  085A               	movf	i1___fladd@a+2,w
 10304  1746  1C03               	skipc
 10305  1747  0F5A               	incfsz	i1___fladd@a+2,w
 10306  1748  02D6               	subwf	i1___fladd@b+2,f
 10307  1749  085B               	movf	i1___fladd@a+3,w
 10308  174A  1C03               	skipc
 10309  174B  0F5B               	incfsz	i1___fladd@a+3,w
 10310  174C  02D7               	subwf	i1___fladd@b+3,f
 10311  174D                     i1l604:
 10312  174D  0857               	movf	i1___fladd@b+3,w
 10313  174E  0456               	iorwf	i1___fladd@b+2,w
 10314  174F  0455               	iorwf	i1___fladd@b+1,w
 10315  1750  0454               	iorwf	i1___fladd@b,w
 10316  1751  1D03               	skipz
 10317  1752  2F54               	goto	u497_21
 10318  1753  2F55               	goto	u497_20
 10319  1754                     u497_21:
 10320  1754  2F81               	goto	i1l3140
 10321  1755                     u497_20:
 10322  1755                     i1l3120:
 10323  1755  0867               	movf	i1___fladd@grs,w
 10324  1756  1D03               	btfss	3,2
 10325  1757  2F59               	goto	u498_21
 10326  1758  2F5A               	goto	u498_20
 10327  1759                     u498_21:
 10328  1759  2F81               	goto	i1l3140
 10329  175A                     u498_20:
 10330  175A                     i1l3122:
 10331  175A  3000               	movlw	0
 10332  175B  00D7               	movwf	?i1___fladd+3
 10333  175C  3000               	movlw	0
 10334  175D  00D6               	movwf	?i1___fladd+2
 10335  175E  3000               	movlw	0
 10336  175F  00D5               	movwf	?i1___fladd+1
 10337  1760  3000               	movlw	0
 10338  1761  00D4               	movwf	?i1___fladd
 10339  1762  2FFF               	goto	i1l596
 10340  1763                     i1l3126:
 10341  1763  3001               	movlw	1
 10342  1764  00DC               	movwf	??i1___fladd
 10343  1765                     u499_25:
 10344  1765  1003               	clrc
 10345  1766  0DD4               	rlf	i1___fladd@b,f
 10346  1767  0DD5               	rlf	i1___fladd@b+1,f
 10347  1768  0DD6               	rlf	i1___fladd@b+2,f
 10348  1769  0DD7               	rlf	i1___fladd@b+3,f
 10349  176A  0BDC               	decfsz	??i1___fladd,f
 10350  176B  2F65               	goto	u499_25
 10351  176C                     i1l3128:
 10352  176C  1FE7               	btfss	i1___fladd@grs,7
 10353  176D  2F6F               	goto	u500_21
 10354  176E  2F70               	goto	u500_20
 10355  176F                     u500_21:
 10356  176F  2F71               	goto	i1l608
 10357  1770                     u500_20:
 10358  1770                     i1l3130:
 10359  1770  1454               	bsf	i1___fladd@b,0
 10360  1771                     i1l608:
 10361  1771  1C67               	btfss	i1___fladd@grs,0
 10362  1772  2F74               	goto	u501_21
 10363  1773  2F75               	goto	u501_20
 10364  1774                     u501_21:
 10365  1774  2F78               	goto	i1l3134
 10366  1775                     u501_20:
 10367  1775                     i1l3132:
 10368  1775  1403               	setc
 10369  1776  0DE7               	rlf	i1___fladd@grs,f
 10370  1777  2F7A               	goto	i1l3136
 10371  1778                     i1l3134:
 10372  1778  1003               	clrc
 10373  1779  0DE7               	rlf	i1___fladd@grs,f
 10374  177A                     i1l3136:
 10375  177A  0866               	movf	i1___fladd@bexp,w
 10376  177B  1903               	btfsc	3,2
 10377  177C  2F7E               	goto	u502_21
 10378  177D  2F7F               	goto	u502_20
 10379  177E                     u502_21:
 10380  177E  2F81               	goto	i1l3140
 10381  177F                     u502_20:
 10382  177F                     i1l3138:
 10383  177F  3001               	movlw	1
 10384  1780  02E6               	subwf	i1___fladd@bexp,f
 10385  1781                     i1l3140:
 10386  1781  1FD6               	btfss	i1___fladd@b+2,7
 10387  1782  2F84               	goto	u503_21
 10388  1783  2F85               	goto	u503_20
 10389  1784                     u503_21:
 10390  1784  2F63               	goto	i1l3126
 10391  1785                     u503_20:
 10392  1785                     i1l3142:
 10393  1785  01E5               	clrf	i1___fladd@aexp
 10394  1786                     i1l3144:
 10395  1786  1FE7               	btfss	i1___fladd@grs,7
 10396  1787  2F89               	goto	u504_21
 10397  1788  2F8A               	goto	u504_20
 10398  1789                     u504_21:
 10399  1789  2F98               	goto	i1l3152
 10400  178A                     u504_20:
 10401  178A                     i1l3146:
 10402  178A  0867               	movf	i1___fladd@grs,w
 10403  178B  397F               	andlw	127
 10404  178C  1903               	btfsc	3,2
 10405  178D  2F8F               	goto	u505_21
 10406  178E  2F90               	goto	u505_20
 10407  178F                     u505_21:
 10408  178F  2F93               	goto	i1l614
 10409  1790                     u505_20:
 10410  1790                     i1l3148:
 10411  1790  01E5               	clrf	i1___fladd@aexp
 10412  1791  0AE5               	incf	i1___fladd@aexp,f
 10413  1792  2F98               	goto	i1l3152
 10414  1793                     i1l614:
 10415  1793  1C54               	btfss	i1___fladd@b,0
 10416  1794  2F96               	goto	u506_21
 10417  1795  2F97               	goto	u506_20
 10418  1796                     u506_21:
 10419  1796  2F98               	goto	i1l3152
 10420  1797                     u506_20:
 10421  1797  2F90               	goto	i1l3148
 10422  1798                     i1l3152:
 10423  1798  0865               	movf	i1___fladd@aexp,w
 10424  1799  1903               	btfsc	3,2
 10425  179A  2F9C               	goto	u507_21
 10426  179B  2F9D               	goto	u507_20
 10427  179C                     u507_21:
 10428  179C  2FD1               	goto	i1l617
 10429  179D                     u507_20:
 10430  179D                     i1l3154:
 10431  179D  3001               	movlw	1
 10432  179E  07D4               	addwf	i1___fladd@b,f
 10433  179F  3000               	movlw	0
 10434  17A0  1803               	skipnc
 10435  17A1  3001               	movlw	1
 10436  17A2  07D5               	addwf	i1___fladd@b+1,f
 10437  17A3  3000               	movlw	0
 10438  17A4  1803               	skipnc
 10439  17A5  3001               	movlw	1
 10440  17A6  07D6               	addwf	i1___fladd@b+2,f
 10441  17A7  3000               	movlw	0
 10442  17A8  1803               	skipnc
 10443  17A9  3001               	movlw	1
 10444  17AA  07D7               	addwf	i1___fladd@b+3,f
 10445  17AB                     i1l3156:
 10446  17AB  1C57               	btfss	i1___fladd@b+3,0
 10447  17AC  2FAE               	goto	u508_21
 10448  17AD  2FAF               	goto	u508_20
 10449  17AE                     u508_21:
 10450  17AE  2FD1               	goto	i1l617
 10451  17AF                     u508_20:
 10452  17AF                     i1l3158:
 10453  17AF  0854               	movf	i1___fladd@b,w
 10454  17B0  00DC               	movwf	??i1___fladd
 10455  17B1  0855               	movf	i1___fladd@b+1,w
 10456  17B2  00DD               	movwf	??i1___fladd+1
 10457  17B3  0856               	movf	i1___fladd@b+2,w
 10458  17B4  00DE               	movwf	??i1___fladd+2
 10459  17B5  0857               	movf	i1___fladd@b+3,w
 10460  17B6  00DF               	movwf	??i1___fladd+3
 10461  17B7  3001               	movlw	1
 10462  17B8  00E0               	movwf	??i1___fladd+4
 10463  17B9                     u509_25:
 10464  17B9  0D5F               	rlf	??i1___fladd+3,w
 10465  17BA  0CDF               	rrf	??i1___fladd+3,f
 10466  17BB  0CDE               	rrf	??i1___fladd+2,f
 10467  17BC  0CDD               	rrf	??i1___fladd+1,f
 10468  17BD  0CDC               	rrf	??i1___fladd,f
 10469  17BE                     u509_20:
 10470  17BE  0BE0               	decfsz	??i1___fladd+4,f
 10471  17BF  2FB9               	goto	u509_25
 10472  17C0  085F               	movf	??i1___fladd+3,w
 10473  17C1  00D7               	movwf	i1___fladd@b+3
 10474  17C2  085E               	movf	??i1___fladd+2,w
 10475  17C3  00D6               	movwf	i1___fladd@b+2
 10476  17C4  085D               	movf	??i1___fladd+1,w
 10477  17C5  00D5               	movwf	i1___fladd@b+1
 10478  17C6  085C               	movf	??i1___fladd,w
 10479  17C7  00D4               	movwf	i1___fladd@b
 10480  17C8  0A66               	incf	i1___fladd@bexp,w
 10481  17C9  1903               	btfsc	3,2
 10482  17CA  2FCC               	goto	u510_21
 10483  17CB  2FCD               	goto	u510_20
 10484  17CC                     u510_21:
 10485  17CC  2FD1               	goto	i1l617
 10486  17CD                     u510_20:
 10487  17CD                     i1l3160:
 10488  17CD  3001               	movlw	1
 10489  17CE  00DC               	movwf	??i1___fladd
 10490  17CF  085C               	movf	??i1___fladd,w
 10491  17D0  07E6               	addwf	i1___fladd@bexp,f
 10492  17D1                     i1l617:
 10493  17D1  0A66               	incf	i1___fladd@bexp,w
 10494  17D2  1903               	btfsc	3,2
 10495  17D3  2FD5               	goto	u511_21
 10496  17D4  2FD6               	goto	u511_20
 10497  17D5                     u511_21:
 10498  17D5  2FDB               	goto	i1l3164
 10499  17D6                     u511_20:
 10500  17D6                     i1l3162:
 10501  17D6  0866               	movf	i1___fladd@bexp,w
 10502  17D7  1D03               	btfss	3,2
 10503  17D8  2FDA               	goto	u512_21
 10504  17D9  2FDB               	goto	u512_20
 10505  17DA                     u512_21:
 10506  17DA  2FE9               	goto	i1l3170
 10507  17DB                     u512_20:
 10508  17DB                     i1l3164:
 10509  17DB  3000               	movlw	0
 10510  17DC  00D7               	movwf	i1___fladd@b+3
 10511  17DD  3000               	movlw	0
 10512  17DE  00D6               	movwf	i1___fladd@b+2
 10513  17DF  3000               	movlw	0
 10514  17E0  00D5               	movwf	i1___fladd@b+1
 10515  17E1  3000               	movlw	0
 10516  17E2  00D4               	movwf	i1___fladd@b
 10517  17E3                     i1l3166:
 10518  17E3  0866               	movf	i1___fladd@bexp,w
 10519  17E4  1D03               	btfss	3,2
 10520  17E5  2FE7               	goto	u513_21
 10521  17E6  2FE8               	goto	u513_20
 10522  17E7                     u513_21:
 10523  17E7  2FE9               	goto	i1l3170
 10524  17E8                     u513_20:
 10525  17E8                     i1l3168:
 10526  17E8  01E4               	clrf	i1___fladd@signs
 10527  17E9                     i1l3170:
 10528  17E9  1C66               	btfss	i1___fladd@bexp,0
 10529  17EA  2FEC               	goto	u514_21
 10530  17EB  2FED               	goto	u514_20
 10531  17EC                     u514_21:
 10532  17EC  2FEF               	goto	i1l3174
 10533  17ED                     u514_20:
 10534  17ED                     i1l3172:
 10535  17ED  17D6               	bsf	i1___fladd@b+2,7
 10536  17EE  2FF3               	goto	i1l625
 10537  17EF                     i1l3174:
 10538  17EF  307F               	movlw	127
 10539  17F0  00DC               	movwf	??i1___fladd
 10540  17F1  085C               	movf	??i1___fladd,w
 10541  17F2  05D6               	andwf	i1___fladd@b+2,f
 10542  17F3                     i1l625:
 10543  17F3  0866               	movf	i1___fladd@bexp,w
 10544  17F4  00DC               	movwf	??i1___fladd
 10545  17F5  1003               	clrc
 10546  17F6  0C5C               	rrf	??i1___fladd,w
 10547  17F7  00DD               	movwf	??i1___fladd+1
 10548  17F8  085D               	movf	??i1___fladd+1,w
 10549  17F9  00D7               	movwf	i1___fladd@b+3
 10550  17FA                     i1l3176:
 10551  17FA  1FE4               	btfss	i1___fladd@signs,7
 10552  17FB  2FFD               	goto	u515_21
 10553  17FC  2FFE               	goto	u515_20
 10554  17FD                     u515_21:
 10555  17FD  2FFF               	goto	i1l626
 10556  17FE                     u515_20:
 10557  17FE                     i1l3178:
 10558  17FE  17D7               	bsf	i1___fladd@b+3,7
 10559  17FF                     i1l626:
 10560  17FF                     i1l596:
 10561  17FF  0008               	return
 10562  1800                     __end_ofi1___fladd:
 10563                           
 10564                           	psect	text23
 10565  0809                     __ptext23:	
 10566 ;; *************** function _write_EEPROM *****************
 10567 ;; Defined at:
 10568 ;;		line 481 in file "main_master.c"
 10569 ;; Parameters:    Size  Location     Type
 10570 ;;  address         1    wreg     unsigned char 
 10571 ;;  data            1    0[COMMON] unsigned char 
 10572 ;; Auto vars:     Size  Location     Type
 10573 ;;  address         1    1[COMMON] unsigned char 
 10574 ;; Return value:  Size  Location     Type
 10575 ;;                  1    wreg      void 
 10576 ;; Registers used:
 10577 ;;		wreg
 10578 ;; Tracked objects:
 10579 ;;		On entry : 0/0
 10580 ;;		On exit  : 0/0
 10581 ;;		Unchanged: 0/0
 10582 ;; Data sizes:     COMMON   BANK0   BANK1   BANK3   BANK2
 10583 ;;      Params:         1       0       0       0       0
 10584 ;;      Locals:         1       0       0       0       0
 10585 ;;      Temps:          0       0       0       0       0
 10586 ;;      Totals:         2       0       0       0       0
 10587 ;;Total ram usage:        2 bytes
 10588 ;; Hardware stack levels used: 1
 10589 ;; This function calls:
 10590 ;;		Nothing
 10591 ;; This function is called by:
 10592 ;;		_isr
 10593 ;; This function uses a non-reentrant model
 10594 ;;
 10595                           
 10596  0809                     _write_EEPROM:	
 10597                           ;psect for function _write_EEPROM
 10598                           
 10599                           
 10600                           ;incstack = 0
 10601                           ; Regs used in _write_EEPROM: [wreg]
 10602                           ;write_EEPROM@address stored from wreg
 10603  0809  00F1               	movwf	write_EEPROM@address
 10604  080A                     i1l3546:
 10605                           
 10606                           ;main_master.c: 482:     EEADR = address;
 10607  080A  0871               	movf	write_EEPROM@address,w
 10608  080B  1283               	bcf	3,5	;RP0=0, select bank2
 10609  080C  1703               	bsf	3,6	;RP1=1, select bank2
 10610  080D  008D               	movwf	13	;volatile
 10611                           
 10612                           ;main_master.c: 483:     EEDAT = data;
 10613  080E  0870               	movf	write_EEPROM@data,w
 10614  080F  008C               	movwf	12	;volatile
 10615  0810                     i1l3548:
 10616                           
 10617                           ;main_master.c: 484:     EECON1bits.EEPGD = 0;
 10618  0810  1683               	bsf	3,5	;RP0=1, select bank3
 10619  0811  1703               	bsf	3,6	;RP1=1, select bank3
 10620  0812  138C               	bcf	12,7	;volsfr
 10621  0813                     i1l3550:
 10622                           
 10623                           ;main_master.c: 485:     EECON1bits.WREN = 1;
 10624  0813  150C               	bsf	12,2	;volsfr
 10625  0814                     i1l3552:
 10626                           
 10627                           ;main_master.c: 487:     INTCONbits.GIE = 0;
 10628  0814  138B               	bcf	11,7	;volatile
 10629  0815                     i1l3554:
 10630                           
 10631                           ;main_master.c: 488:     INTCONbits.PEIE = 0;
 10632  0815  130B               	bcf	11,6	;volatile
 10633                           
 10634                           ;main_master.c: 489:     EECON2 = 0x55;
 10635  0816  3055               	movlw	85
 10636  0817  008D               	movwf	13	;volsfr
 10637                           
 10638                           ;main_master.c: 490:     EECON2 = 0xAA;
 10639  0818  30AA               	movlw	170
 10640  0819  008D               	movwf	13	;volsfr
 10641  081A                     i1l3556:
 10642                           
 10643                           ;main_master.c: 492:     EECON1bits.WR = 1;
 10644  081A  148C               	bsf	12,1	;volsfr
 10645  081B                     i1l3558:
 10646                           
 10647                           ;main_master.c: 494:     EECON1bits.WREN = 0;
 10648  081B  110C               	bcf	12,2	;volsfr
 10649  081C                     i1l3560:
 10650                           
 10651                           ;main_master.c: 495:     INTCONbits.RBIF = 0;
 10652  081C  100B               	bcf	11,0	;volatile
 10653  081D                     i1l3562:
 10654                           
 10655                           ;main_master.c: 496:     INTCONbits.GIE = 1;
 10656  081D  178B               	bsf	11,7	;volatile
 10657  081E                     i1l3564:
 10658                           
 10659                           ;main_master.c: 497:     INTCONbits.PEIE = 1;
 10660  081E  170B               	bsf	11,6	;volatile
 10661  081F                     i1l204:
 10662  081F  0008               	return
 10663  0820                     __end_of_write_EEPROM:
 10664  007E                     btemp	set	126	;btemp
 10665  007E                     wtemp0	set	126
 10666                           
 10667                           	psect	idloc
 10668                           
 10669                           ;Config register IDLOC0 @ 0x2000
 10670                           ;	unspecified, using default values
 10671  2000                     	org	8192
 10672  2000  3FFF               	dw	16383
 10673                           
 10674                           ;Config register IDLOC1 @ 0x2001
 10675                           ;	unspecified, using default values
 10676  2001                     	org	8193
 10677  2001  3FFF               	dw	16383
 10678                           
 10679                           ;Config register IDLOC2 @ 0x2002
 10680                           ;	unspecified, using default values
 10681  2002                     	org	8194
 10682  2002  3FFF               	dw	16383
 10683                           
 10684                           ;Config register IDLOC3 @ 0x2003
 10685                           ;	unspecified, using default values
 10686  2003                     	org	8195
 10687  2003  3FFF               	dw	16383
 10688                           
 10689                           	psect	config
 10690                           
 10691                           ;Config register CONFIG1 @ 0x2007
 10692                           ;	Oscillator Selection bits
 10693                           ;	FOSC = INTRC_NOCLKOUT, INTOSCIO oscillator: I/O function on RA6/OSC2/CLKOUT pin, I/O f
      +                          unction on RA7/OSC1/CLKIN
 10694                           ;	Watchdog Timer Enable bit
 10695                           ;	WDTE = OFF, WDT disabled and can be enabled by SWDTEN bit of the WDTCON register
 10696                           ;	Power-up Timer Enable bit
 10697                           ;	PWRTE = OFF, PWRT disabled
 10698                           ;	RE3/MCLR pin function select bit
 10699                           ;	MCLRE = OFF, RE3/MCLR pin function is digital input, MCLR internally tied to VDD
 10700                           ;	Code Protection bit
 10701                           ;	CP = OFF, Program memory code protection is disabled
 10702                           ;	Data Code Protection bit
 10703                           ;	CPD = OFF, Data memory code protection is disabled
 10704                           ;	Brown Out Reset Selection bits
 10705                           ;	BOREN = OFF, BOR disabled
 10706                           ;	Internal External Switchover bit
 10707                           ;	IESO = OFF, Internal/External Switchover mode is disabled
 10708                           ;	Fail-Safe Clock Monitor Enabled bit
 10709                           ;	FCMEN = OFF, Fail-Safe Clock Monitor is disabled
 10710                           ;	Low Voltage Programming Enable bit
 10711                           ;	LVP = OFF, RB3 pin has digital I/O, HV on MCLR must be used for programming
 10712                           ;	In-Circuit Debugger Mode bit
 10713                           ;	DEBUG = 0x1, unprogrammed default
 10714  2007                     	org	8199
 10715  2007  20D4               	dw	8404
 10716                           
 10717                           ;Config register CONFIG2 @ 0x2008
 10718                           ;	Brown-out Reset Selection bit
 10719                           ;	BOR4V = BOR40V, Brown-out Reset set to 4.0V
 10720                           ;	Flash Program Memory Self Write Enable bits
 10721                           ;	WRT = OFF, Write protection off
 10722  2008                     	org	8200
 10723  2008  3FFF               	dw	16383

Data Sizes:
    Strings     0
    Constant    0
    Data        0
    BSS         11
    Persistent  0
    Stack       0

Auto Spaces:
    Space          Size  Autos    Used
    COMMON           14     14      14
    BANK0            80     80      80
    BANK1            80     50      59
    BANK3            96     83      85
    BANK2            96      0       0

Pointer List with Targets:

    None.

Critical Paths under _main in COMMON

    None.

Critical Paths under _isr in COMMON

    i1_interpole->i1___xxtofl
    i1___fltol->i1___xxtofl
    i1___flmul->i1___xxtofl
    i1___fldiv->i1___xxtofl
    i1___fladd->i1___xxtofl

Critical Paths under _main in BANK0

    None.

Critical Paths under _isr in BANK0

    _isr->i1_move_servo
    i1_move_servo->i1_interpole
    i1_interpole->i1___fltol
    i1___fltol->i1___fladd
    i1___flmul->i1___fldiv
    i1___fladd->i1___flmul

Critical Paths under _main in BANK1

    _interpole->___fltol
    ___fltol->___fldiv
    ___flmul->___fldiv
    ___fldiv->___xxtofl
    ___fladd->___fldiv

Critical Paths under _isr in BANK1

    _isr->i1_move_servo
    i1_move_servo->i1_interpole
    i1_interpole->i1___fltol

Critical Paths under _main in BANK3

    _main->_move_servo
    _move_servo->_interpole
    _interpole->___fltol
    ___fltol->___fladd
    ___flmul->___fldiv
    ___fladd->___flmul

Critical Paths under _isr in BANK3

    None.

Critical Paths under _main in BANK2

    None.

Critical Paths under _isr in BANK2

    None.

Call Graph Tables:

 ---------------------------------------------------------------------------------
 (Depth) Function   	        Calls       Base Space   Used Autos Params    Refs
 ---------------------------------------------------------------------------------
 (0) _main                                                 2     2      0   11489
                                             81 BANK3      2     2      0
                         _move_servo
                        _read_EEPROM
                          _send_data
                              _setup
 ---------------------------------------------------------------------------------
 (1) _setup                                                0     0      0       0
 ---------------------------------------------------------------------------------
 (1) _send_data                                            1     1      0      22
                                             21 BANK1      1     1      0
 ---------------------------------------------------------------------------------
 (1) _read_EEPROM                                          1     1      0      22
                                             21 BANK1      1     1      0
 ---------------------------------------------------------------------------------
 (1) _move_servo                                           6     5      1   11445
                                             75 BANK3      6     5      1
                          _interpole
 ---------------------------------------------------------------------------------
 (2) _interpole                                            7     1      6   10678
                                             68 BANK3      7     1      6
                            ___fladd
                            ___fldiv
                            ___flmul
                            ___fltol
                           ___xxtofl
 ---------------------------------------------------------------------------------
 (3) ___xxtofl                                            14    10      4     836
                                             21 BANK1     14    10      4
 ---------------------------------------------------------------------------------
 (3) ___fltol                                             11     7      4     427
                                             48 BANK1      2     2      0
                                             59 BANK3      9     5      4
                            ___fladd (ARG)
                            ___fldiv (ARG)
                            ___flmul (ARG)
                           ___xxtofl (ARG)
 ---------------------------------------------------------------------------------
 (3) ___flmul                                             26    18      8    3353
                                             13 BANK3     26    18      8
                          __Umul8_16
                            ___fldiv (ARG)
                           ___xxtofl (ARG)
 ---------------------------------------------------------------------------------
 (4) __Umul8_16                                            9     7      2     980
                                             21 BANK1      9     7      2
 ---------------------------------------------------------------------------------
 (3) ___fldiv                                             26    18      8    1863
                                             35 BANK1     13     5      8
                                              0 BANK3     13    13      0
                           ___xxtofl (ARG)
 ---------------------------------------------------------------------------------
 (3) ___fladd                                             20    12      8    3262
                                             39 BANK3     20    12      8
                            ___fldiv (ARG)
                            ___flmul (ARG)
                           ___xxtofl (ARG)
 ---------------------------------------------------------------------------------
 Estimated maximum stack depth 4
 ---------------------------------------------------------------------------------
 (Depth) Function   	        Calls       Base Space   Used Autos Params    Refs
 ---------------------------------------------------------------------------------
 (5) _isr                                                  5     5      0    7150
                                             16 BANK1      5     5      0
                       _write_EEPROM
                       i1_move_servo
                      i1_read_EEPROM
                        i1_send_data
 ---------------------------------------------------------------------------------
 (6) i1_send_data                                          1     1      0      22
                                              0 COMMON     1     1      0
 ---------------------------------------------------------------------------------
 (6) i1_read_EEPROM                                        1     1      0      22
                                              0 COMMON     1     1      0
 ---------------------------------------------------------------------------------
 (6) i1_move_servo                                         6     5      1    6454
                                             79 BANK0      1     0      1
                                             11 BANK1      5     5      0
                        i1_interpole
 ---------------------------------------------------------------------------------
 (7) i1_interpole                                          7     1      6    6119
                                             78 BANK0      1     1      0
                                              5 BANK1      6     0      6
                          i1___fladd
                          i1___fldiv
                          i1___flmul
                          i1___fltol
                         i1___xxtofl
 ---------------------------------------------------------------------------------
 (8) i1___xxtofl                                          14    10      4     426
                                              0 COMMON    14    10      4
 ---------------------------------------------------------------------------------
 (8) i1___fltol                                           11     7      4     255
                                             72 BANK0      6     2      4
                                              0 BANK1      5     5      0
                          i1___fladd (ARG)
                          i1___fldiv (ARG)
                          i1___flmul (ARG)
                         i1___xxtofl (ARG)
 ---------------------------------------------------------------------------------
 (8) i1___flmul                                           26    18      8    1867
                                             26 BANK0     26    18      8
                        i1__Umul8_16
                          i1___fldiv (ARG)
                         i1___xxtofl (ARG)
 ---------------------------------------------------------------------------------
 (9) i1__Umul8_16                                          9     7      2     349
                                              0 COMMON     9     7      2
 ---------------------------------------------------------------------------------
 (8) i1___fldiv                                           26    18      8    1173
                                              0 BANK0     26    18      8
                         i1___xxtofl (ARG)
 ---------------------------------------------------------------------------------
 (8) i1___fladd                                           20    12      8    2036
                                             52 BANK0     20    12      8
                          i1___fldiv (ARG)
                          i1___flmul (ARG)
                         i1___xxtofl (ARG)
 ---------------------------------------------------------------------------------
 (6) _write_EEPROM                                         2     1      1     652
                                              0 COMMON     2     1      1
 ---------------------------------------------------------------------------------
 Estimated maximum stack depth 9
 ---------------------------------------------------------------------------------

 Call Graph Graphs:

 _main (ROOT)
   _move_servo
     _interpole
       ___fladd
         ___fldiv (ARG)
           ___xxtofl (ARG)
         ___flmul (ARG)
           __Umul8_16
           ___fldiv (ARG)
           ___xxtofl (ARG)
         ___xxtofl (ARG)
       ___fldiv
       ___flmul
       ___fltol
         ___fladd (ARG)
         ___fldiv (ARG)
         ___flmul (ARG)
         ___xxtofl (ARG)
       ___xxtofl
   _read_EEPROM
   _send_data
   _setup

 _isr (ROOT)
   _write_EEPROM
   i1_move_servo
     i1_interpole
       i1___fladd
         i1___fldiv (ARG)
           i1___xxtofl (ARG)
         i1___flmul (ARG)
           i1__Umul8_16
           i1___fldiv (ARG)
           i1___xxtofl (ARG)
         i1___xxtofl (ARG)
       i1___fldiv
       i1___flmul
       i1___fltol
         i1___fladd (ARG)
         i1___fldiv (ARG)
         i1___flmul (ARG)
         i1___xxtofl (ARG)
       i1___xxtofl
   i1_read_EEPROM
   i1_send_data

 Address spaces:
Name               Size   Autos  Total    Cost      Usage
BITCOMMON            E      0       0       0        0.0%
EEDATA             100      0       0       0        0.0%
NULL                 0      0       0       0        0.0%
CODE                 0      0       0       0        0.0%
COMMON               E      E       E       1      100.0%
BITSFR0              0      0       0       1        0.0%
SFR0                 0      0       0       1        0.0%
BITSFR1              0      0       0       2        0.0%
SFR1                 0      0       0       2        0.0%
STACK                0      0       0       2        0.0%
ABS                  0      0      EE       3        0.0%
BITBANK0            50      0       0       4        0.0%
BITSFR3              0      0       0       4        0.0%
SFR3                 0      0       0       4        0.0%
BANK0               50     50      50       5      100.0%
BITSFR2              0      0       0       5        0.0%
SFR2                 0      0       0       5        0.0%
BITBANK1            50      0       0       6        0.0%
BANK1               50     32      3B       7       73.8%
BITBANK3            60      0       0       8        0.0%
BANK3               60     53      55       9       88.5%
BITBANK2            60      0       0      10        0.0%
BANK2               60      0       0      11        0.0%
DATA                 0      0      EE      12        0.0%


Microchip Technology PIC Macro Assembler V2.35 build 20211206165544 
Symbol Table                                                                                   Thu Jun 02 19:20:02 2022

             ___fldiv@aexp 019C               ___fldiv@bexp 019B                i1___fladd@a 0058  
              i1___fladd@b 0054               ___fldiv@sign 0194                i1___fldiv@a 0020  
              i1___fldiv@b 0024                _SSPSTATbits 0094                i1___flmul@a 003E  
              i1___flmul@b 003A        __Umul8_16@word_mpld 00BB                 i1___xxtofl 1053  
                      l201 1C52                        l170 1330                        l181 1CE6  
                      l174 1381                        l166 12F0                        l183 1CEA  
                      l192 1D8F                        l184 1D03                        l187 11EA  
                      l195 1C6F                        l604 09F5                        l700 1052  
                      l197 1C75                        l614 0A3B                        l198 1C78  
                      l608 0A19                        l625 0A9B                        l617 0A79  
                      l641 0D47                        l626 0AA7                        l483 1E9A  
                      l723 0766                        l476 1EB1                        l661 0D1B  
                      l725 07FD                        l486 1EB1                        l583 0883  
                      l663 0D33                        l655 0C9B                        l639 0B26  
                      l736 07C7                        l737 07D3                        l729 07AB  
                      l587 092A                        l691 03D4                        l596 0AA7  
                      l589 0901                        l685 034C                        l679 03E0  
                      l698 1040                        _PR2 0092       i1read_EEPROM@address 0070  
                      _isr 0D48               i1___fltol@f1 0068              i1___fladd@grs 0067  
             ___flmul@aexp 01AB               ___flmul@bexp 01B0               ___flmul@sign 01AA  
             ___flmul@temp 01B5               ___flmul@prod 01B1              i1___fldiv@grs 0034  
            i1___fldiv@rem 002D               ___fltol@exp1 00D1                       l4000 0844  
                     l4010 085A                       l4002 0845                       l4100 0966  
                     l4020 086B                       l4012 085B                       l4004 0847  
                     l4110 098F                       l4102 096A                       l4030 0889  
                     l4022 0870                       l4014 0861                       l4006 084F  
                     l4120 09FD                       l4112 09CD                       l4104 096B  
                     l4040 089D                       l4032 088D                       l4024 0878  
                     l4016 0865                       l4008 0854                       l4200 0AE8  
                     l4130 0A18                       l4122 0A02                       l4114 09D3  
                     l4106 0974                       l4050 08B1                       l4042 08A1  
                     l4034 0891                       l4026 0879                       l4018 0866  
                     l4210 0B09                       l4202 0AEF                       l4132 0A1D  
                     l4140 0A29                       l4116 09D8                       l4108 0979  
                     l4060 08C5                       l4052 08B5                       l4044 08A5  
                     l4036 0895                       l4028 087B                       l4300 0CDC  
                     l4220 0B2E                       l4212 0B0E                       l4204 0AF9  
                     l4134 0A20                       l4126 0A0B                       l4118 09E7  
                     l4142 0A2D                       l4070 0905                       l4062 08C9  
                     l4054 08B9                       l4046 08A9                       l4038 0899  
                     l4310 0D18                       l4302 0CEB                       l4230 0B52  
                     l4222 0B3A                       l4214 0B18                       l4206 0AFF  
                     l4160 0A75                       l4152 0A40                       l4144 0A2E  
                     l4136 0A22                       l4128 0A14                       l4080 091E  
                     l4072 090E                       l4056 08BD                       l4048 08AD  
                     l4064 08CD                       l4312 0D25                       l4304 0CFB  
                     l4240 0B9D                       l4224 0B42                       l4216 0B1A  
                     l4208 0B02                       l4400 02AA                       l3600 1CA4  
                     l4170 0A91                       l4162 0A7E                       l4154 0A45  
                     l4146 0A32                       l4138 0A27                       l4090 093C  
                     l4074 0910                       l4082 0922                       l4066 08CE  
                     l4058 08C1                       l4314 0D29                       l4306 0D0A  
                     l4250 0BCC                       l4242 0BA7                       l4234 0B5D  
                     l4218 0B1C                       l4410 0318                       l4402 02D0  
                     l4330 0038                       l4322 0026                       l3514 1C47  
                     l3610 1CB9                       l3602 1CA9                       l4172 0A95  
                     l4164 0A83                       l4156 0A53                       l4148 0A38  
                     l4092 0953                       l4084 092E                       l4076 0914  
                     l4068 08E5                       l4316 0D2D                       l4308 0D0E  
                     l4260 0C27                       l4252 0BCF                       l4244 0BA9  
                     l4236 0B7B                       l4228 0B4B                       l4180 0AA8  
                     l4420 0330                       l4412 031C                       l4404 02F8  
                     l4340 0054                       l4332 003D                       l4324 002D  
                     l4500 07F4                       l3516 1C4B                       l3620 1CC7  
                     l3612 1CBA                       l3604 1CAF                       l4174 0A97  
                     l4166 0A8B                       l4158 0A57                       l4094 0957  
                     l4086 0933                       l4078 0915                       l4270 0C48  
                     l4246 0BAE                       l4254 0BDD                       l4262 0C2F  
                     l4238 0B93                       l4190 0ACB                       l4182 0AB1  
                     l4430 0351                       l4422 0331                       l4414 031D  
                     l4406 0301                       l4350 0069                       l4342 0059  
                     l4334 0042                       l4326 0033                       l4502 07F5  
                     l4510 1D07                       l3518 1C4E                       l3542 1C66  
                     l3630 1CD2                       l3622 1CCA                       l3614 1CBE  
                     l3606 1CB0                       l4176 0AA2                       l4168 0A90  
                     l4096 095B                       l4280 0C6D                       l4272 0C4E  
                     l4264 0C35                       l4256 0BFE                       l4248 0BC6  
                     l4192 0AD0                       l4184 0ABB                       l4432 0356  
                     l4440 0387                       l4424 0335                       l4416 0326  
                     l4408 030F                       l4360 0085                       l4352 006E  
                     l4344 005F                       l4336 004A                       l4328 0037  
                     l4520 1D45                       l4512 1D07                       l3544 1C69  
                     l3640 1CE1                       l3632 1CD6                       l3624 1CCB  
                     l3616 1CC1                       l3608 1CB6                       l4600 131C  
                     l4178 0AA6                       l4098 0964                       l4290 0CA0  
                     l4282 0C70                       l4274 0C51                       l4266 0C3D  
                     l4258 0BFF                       l4194 0ADA                       l4186 0AC1  
                     l4450 03BA                       l4442 0394                       l4434 0364  
                     l4426 0349                       l4418 032C                       l4370 00BA  
                     l4362 008A                       l4354 0076                       l4346 0063  
                     l4338 004C                       l4506 1110                       l4522 1D5E  
                     l4514 1D0C                       l3650 1CF4                       l3642 1CE2  
                     l3634 1CDC                       l3626 1CCD                       l3618 1CC4  
                     l3570 1C7E                       l4610 134D                       l4602 1324  
                     l4530 11EB                       l4292 0CA7                       l4284 0C74  
                     l4276 0C5F                       l4268 0C3F                       l4196 0ADC  
                     l4188 0AC4                       l4452 03C8                       l4444 039F  
                     l4436 0368                       l4380 016B                       l4372 00E1  
                     l4356 0078                       l4348 0064                       l4524 1D6C  
                     l4516 1D25                       l3660 1CFE                       l3652 1CF5  
                     l3644 1CE5                       l3636 1CDE                       l3628 1CD0  
                     l3580 1C96                       l3572 1C85                       l4620 136D  
                     l4612 1350                       l4604 1333                       l4540 121E  
                     l4532 11F0                       l4294 0CB7                       l4286 0C96  
                     l4278 0C67                       l4198 0ADE                       l4454 03CC  
                     l4446 03AE                       l4438 0381                       l4390 01E2  
                     l4382 0174                       l4374 00FD                       l4366 0093  
                     l4358 0080                       l4470 076E                       l4462 0745  
                     l4526 1D7D                       l4518 1D33                       l3662 1CFF  
                     l3654 1CF8                       l3646 1CEF                       l3638 1CE0  
                     l3590 1C9F                       l3582 1C99                       l3574 1C89  
                     l3566 1C79                       l4622 1375                       l4614 1358  
                     l4606 133B                       l4550 1257                       l4542 1229  
                     l4534 1204                       l4296 0CBB                       l4456 03CD  
                     l4448 03B8                       l4392 0205                       l4384 018E  
                     l4376 0133                       l4368 00AD                       l4480 0790  
                     l4464 074A                       l3664 1D00                       l3656 1CF9  
                     l3648 1CF3                       l3592 1CA0                       l3584 1C9C  
                     l3576 1C8C                       l3568 1C7D                       l4624 1384  
                     l4616 1364                       l4608 1346                       l4560 1287  
                     l4552 1262                       l4544 123D                       l4536 1210  
                     l4298 0CD4                       l4458 03D8                       l4394 0222  
                     l4386 01AB                       l4378 014F                       l4490 07C1  
                     l4482 0794                       l4474 0777                       l4466 074E  
                     l3658 1CFD                       l3594 1CA1                       l3586 1C9D  
                     l3578 1C8F                       l4626 138C                       l4618 136A  
                     l4570 12B6                       l4562 128E                       l4554 1268  
                     l4546 1249                       l4538 1213                       l3940 1036  
                     l4396 0259                       l4388 01C5                       l4492 07CB  
                     l4484 07A2                       l4476 077C                       l4468 075E  
                     l3596 1CA2                       l3588 1C9E                       l4572 12C3  
                     l4564 129B                       l4556 1273                       l4580 12D8  
                     l4548 124C                       l3942 103A                       l4398 0273  
                     l3950 1E20                       l4494 07D5                       l4486 07B2  
                     l4478 0789                       l3598 1CA3                       l4590 12FC  
                     l4582 12DF                       l4574 12CA                       l4566 12A2  
                     l4558 127A                       l3944 1049                       l3936 102D  
                     l3960 1E56                       l3952 1E2F                       l4496 07EB  
                     l4488 07BD                       l4592 12FF                       l4584 12E5  
                     l4568 12AF                       l4576 12CE                       l3946 104E  
                     l3938 102F                       l3962 1E5E                       l4498 07F0  
                     l4594 1307                       l4586 12EA                       l4578 12D5  
                     l3980 1E8B                       l3972 1E6E                       l3964 1E62  
                     l3956 1E3A                       l4596 1313                       l4588 12F5  
                     l3990 082D                       l3982 1E9F                       l3966 1E66  
                     l3974 1E84                       l3958 1E53                       l4598 1319  
                     l3992 0831                       l3984 1EA4                       l3994 0832  
                     l3986 0820                       l3996 0837                       l3988 0827  
                     ?_isr 0070                       l3998 083C                       u7000 0B52  
                     u7001 0B51                       u7010 0BAE                       u7011 0BAD  
                     u7110 0C4E                       u7111 0C4D                       u7200 0CEB  
                     u7040 0BCC                       u6400 1E6D                       u7201 0CEA  
                     u7105 0C41                       u7041 0BCB                       u7025 0BB2  
                     u6401 1E6C                       u7210 0D0A                       u7130 0C6D  
                     u7211 0D09                       u7131 0C6C                       u7035 0BBF  
                     u6500 085A                       u7220 0D29                       u7140 0C74  
                     u7060 0BFE                       u6340 103A                       u7300 008A  
                     u6420 1E83                       u6501 0859                       u7221 0D28  
                     u7205 0CE7                       u7141 0C73                       u7125 0C54  
                     u7061 0BFD                       u6341 1039                       u7301 0089  
                     u6421 1E82                       u6510 0865                       u7150 0C96  
                     u7070 0C23                       u7230 0037                       u6430 1E8A  
                     u6511 0864                       u7215 0D06                       u7151 0C95  
                     u7055 0BD2                       u7311 00EF                       u7231 0036  
                     u6431 1E89                       u6415 1E6F                       u8007 1388  
                     u6600 0914                       u6520 086B                       u7160 0C9F  
                     u7080 0C35                       u6360 104E                       u7312 00F6  
                     u7240 003D                       u6601 0913                       u6521 086A  
                     u7161 0C9E                       u7081 0C34                       u7065 0BFA  
                     u6361 104D                       u7401 024B                       u7321 010B  
                     u7313 00FD                       u7241 003C                       u8017 1393  
                     u6530 0870                       u7170 0CA7                       u7090 0C3D  
                     u7402 0252                       u7322 0112                       u7250 0042  
                     u6450 1E9F                       u6370 1E2F                       u6531 086F  
                     u7171 0CA6                       u7091 0C3C                       u7075 0C0C  
                     u6355 1041                       u7411 0282                       u7403 0259  
                     u7331 0141                       u7323 0119                       u7251 0041  
                     u6451 1E9E                       u6371 1E2E                       u6700 098F  
                     u6620 092A                       u6540 0889                       u7180 0CBB  
                     u7076 0C0F                       u7500 0330                       u7420 02B6  
                     u7412 0289                       u7332 0148                       u7260 0063  
                     u6460 1EA4                       u6380 1E4A                       u6701 098E  
                     u6621 0929                       u6541 0888                       u7181 0CBA  
                     u7077 0C16                       u7501 032F                       u7413 0290  
                     u7341 015D                       u7333 014F                       u7261 0062  
                     u6461 1EA3                       u6445 1E8F                       u6630 092E  
                     u6550 088D                       u6470 0831                       u7190 0CCA  
                     u7078 0C19                       u7510 0335                       u7342 0164  
                     u7270 0069                       u6390 1E66                       u6711 09A6  
                     u6703 098B                       u6631 092D                       u6615 0917  
                     u6551 088C                       u6471 0830                       u7079 0C20  
                     u7511 0334                       u7431 02C2                       u7343 016B  
                     u7271 0068                       u6391 1E65                       u6800 0A2D  
                     u6720 09BA                       u6712 09A7                       u6640 0933  
                     u6560 08E5                       u6480 0837                       u7520 0349  
                     u7440 02DE                       u7432 02C9                       u7280 006E  
                     u7600 074A                       u6801 0A2C                       u6721 09BB  
                     u6713 09AC                       u6641 0932                       u6561 08E4  
                     u6481 0836                       u7521 0348                       u7433 02D0  
                     u7425 02B1                       u7361 019D                       u7281 006D  
                     u6385 1E45                       u7601 0749                       u6810 0A32  
                     u6730 09D8                       u6722 09C0                       u6714 09AD  
                     u6570 08F0                       u6490 083C                       u7530 0350  
                     u7362 01A4                       u7290 0085                       u7610 074E  
                     u6811 0A31                       u6731 09D7                       u6723 09C1  
                     u6715 09B2                       u6651 0945                       u6571 08EE  
                     u6491 083B                       u7195 0CC5                       u7531 034F  
                     u7451 02EA                       u7371 01D4                       u7363 01AB  
                     u7355 016D                       u7291 0084                       u7611 074D  
                     u6900 0A90                       u6820 0A38                       u6740 09FD  
                     u6716 09B3                       u6660 0957                       u6652 094C  
                     u6580 08F1                       u7540 0356                       u7452 02F1  
                     u7372 01DB                       u7700 07CB                       u7620 076E  
                     u6901 0A8F                       u6821 0A37                       u6741 09FC  
                     u6661 0956                       u6653 0953                       u6565 08E1  
                     u7541 0355                       u7453 02F8                       u7445 02D9  
                     u7373 01E2                       u7701 07CA                       u7621 076D  
                     u6910 0A95                       u6830 0A3F                       u6750 0A02  
                     u6670 095B                       u6590 0905                       u7550 0368  
                     u7710 07E0                       u6911 0A94                       u6831 0A3E  
                     u6751 0A01                       u6671 095A                       u6591 0904  
                     u7551 0367                       u7391 0214                       u6920 0AA6  
                     u6840 0A45                       u6680 096A                       u7560 0377  
                     u7480 031C                       u7392 021B                       u7720 07F0  
                     u7640 078F                       u7800 12C3                       u6921 0AA5  
                     u6841 0A44                       u6681 0969                       u7481 031B  
                     u7465 02FA                       u7393 0222                       u7385 01E4  
                     u7721 07EF                       u7641 078E                       u7801 12C2  
                     u6850 0A57                       u6770 0A18                       u6930 0AC1  
                     u7570 0394                       u7730 07F4                       u5970 1C75  
                     u7810 12DF                       u6851 0A56                       u6771 0A17  
                     u6931 0AC0                       u7571 0393                       u7475 0311  
                     u7731 07F3                       u7715 07DB                       u7635 0781  
                     u5971 1C74                       u7811 12DE                       u6860 0A66  
                     u6780 0A1D                       u6940 0ACB                       u7580 03AE  
                     u7660 07B1                       u7740 1D0C                       u5980 1CEA  
                     u7820 12EA                       u6781 0A1C                       u6765 0A0D  
                     u6941 0ACA                       u7581 03AD                       u7565 0372  
                     u7661 07B0                       u7741 1D0B                       u5981 1CE9  
                     u7821 12E9                       u6870 0A75                       u6790 0A27  
                     u6950 0AD0                       u7590 03CC                       u7830 12FC  
                     u7750 1268                       u6871 0A74                       u6791 0A26  
                     u6695 096D                       u6951 0ACF                       u7591 03CB  
                     u7575 0390                       u7495 031F                       u7655 07A3  
                     u7831 12FB                       u7751 1267                       u6880 0A7E  
                     u6960 0AFF                       u7680 07C1                       u7840 1319  
                     u7760 1273                       u6881 0A7D                       u6865 0A61  
                     u6961 0AFE                       u7585 03AA                       u7681 07C0  
                     u7841 1318                       u7761 1272                       u6890 0A83  
                     u6970 0B09                       u7690 07C7                       u7850 134D  
                     u7770 1287                       u6891 0A82                       u6971 0B08  
                     u7691 07C6                       u7675 07B6                       u7851 134C  
                     u7907 1303                       u7771 1286                       u6980 0B0E  
                     u7860 136A                       u7780 129B                       u6981 0B0D  
                     u7861 1369                       u7917 130E                       u7781 129A  
                     u6990 0B2E                       u7790 12AF                       u6991 0B2D  
                     u7927 1320                       u7791 12AE                       u7937 132B  
                     u7947 1337                       u7957 1342                       u7877 1224  
                     u7967 1354                       u7887 125D                       u7977 135F  
                     u7897 12D2                       u7987 1371                       u7997 137C  
                     _main 11EB              i1___flmul@grs 0048                       btemp 007E  
           i1___fladd@aexp 0065             i1___fladd@bexp 0066                       start 0010  
          ___fldiv@new_exp 0195               ?_read_EEPROM 0070                      ??_isr 00B0  
           i1___fldiv@aexp 0039             i1___fldiv@bexp 0038             i1___fldiv@sign 0031  
            ___fltol@sign1 00D0            __end_of___fladd 0AA8                      ?_main 0070  
          __end_of___fldiv 0D48                      _EEADR 010D                      _EEDAT 010C  
          __end_of___flmul 03E1            __end_of___fltol 1EB2                      _ANSEL 0188  
                    i1l201 1C43                      i1l114 0D60                      i1l204 081F  
                    i1l117 0E32                      i1l142 0FF2                      i1l138 0FF2  
                    i1l147 0FF5                      i1l192 1E1F                      i1l187 1FFF  
                    i1l195 1C59                      i1l604 174D                      i1l700 1029  
                    i1l197 1C5F                      i1l614 1793                      i1l198 1C62  
                    i1l608 1771                      i1l625 17F3                      i1l617 17D1  
                    i1l641 1577                      i1l626 17FF                      i1l483 1F38  
                    i1l723 1075                      i1l476 1F4D                      i1l661 155B  
                    i1l725 110C                      i1l486 1F4D                      i1l583 15DB  
                    i1l663 156B                      i1l655 14E9                      i1l639 13F7  
                    i1l736 10D6                      i1l737 10E2                      i1l729 10BA  
                    i1l587 1682                      i1l691 0735                      i1l596 17FF  
                    i1l589 1659                      i1l685 06AD                      i1l679 0741  
                    i1l698 1017                      _PORTA 0005                      _PORTB 0006  
                    _PORTC 0007                      _PORTD 0008                      _PORTE 0009  
                    _TRISA 0085                      _TRISB 0086                      _TRISC 0087  
                    _TRISD 0088                      _TRISE 0089                i1_interpole 1F4E  
           i1___flmul@aexp 004C             i1___flmul@bexp 004D             i1___flmul@sign 0047  
           i1___flmul@temp 0052             i1___flmul@prod 004E                      _setup 1C79  
              i1_send_data 1C53                      pclath 000A             i1___fltol@exp1 006D  
                    status 0003                      wtemp0 007E            i1___fladd@signs 0064  
          __initialization 0013    move_servo@interpole_val 01DB               __end_of_main 139B  
                   ??_main 01E1                ?i1___xxtofl 0070  i1move_servo@interpole_val 006F  
             _write_EEPROM 0809                     _ADRESH 001E                     _CCPR1L 0015  
                   _CCPR2L 001B                     _EECON2 018D                     _CCPR_1 00D4  
                   _CCPR_2 00D2                     ?_setup 0070                     _ANSELH 0189  
                   i1l3000 159C                     i1l3010 15B2                     i1l3002 159D  
                   i1l3100 16BE                     i1l3020 15C3                     i1l3012 15B3  
                   i1l3004 159F                     i1l3110 16E7                     i1l3102 16C2  
                   i1l3030 15E1                     i1l3022 15C8                     i1l3014 15B9  
                   i1l3006 15A7                     i1l3120 1755                     i1l3112 1725  
                   i1l3104 16C3                     i1l3040 15F5                     i1l3032 15E5  
                   i1l3024 15D0                     i1l3016 15BD                     i1l3008 15AC  
                   i1l3200 13CA                     i1l3130 1770                     i1l3122 175A  
                   i1l3114 172B                     i1l3106 16CC                     i1l3050 1609  
                   i1l3042 15F9                     i1l3034 15E9                     i1l3026 15D1  
                   i1l3018 15BE                     i1l3210 13DF                     i1l3202 13CF  
                   i1l3132 1775                     i1l3140 1781                     i1l3116 1730  
                   i1l3108 16D1                     i1l3060 161D                     i1l3052 160D  
                   i1l3044 15FD                     i1l3036 15ED                     i1l3028 15D3  
                   i1l3300 1524                     i1l3220 13FF                     i1l3212 13E4  
                   i1l3204 13D5                     i1l3134 1778                     i1l3126 1763  
                   i1l3118 173F                     i1l3142 1785                     i1l3070 165D  
                   i1l3062 1621                     i1l3054 1611                     i1l3046 1601  
                   i1l3038 15F1                     i1l3310 155A                     i1l3302 1531  
                   i1l3230 141D                     i1l3222 140B                     i1l3214 13EC  
                   i1l3206 13D9                     i1l3160 17CD                     i1l3152 1798  
                   i1l3144 1786                     i1l3136 177A                     i1l3128 176C  
                   i1l3080 1676                     i1l3072 1666                     i1l3056 1615  
                   i1l3048 1605                     i1l3064 1625                     i1l3312 1561  
                   i1l3304 153F                     i1l3240 1448                     i1l3224 140F  
                   i1l3216 13ED                     i1l3208 13DA                     i1l3400 060B  
                   i1l3170 17E9                     i1l3162 17D6                     i1l3154 179D  
                   i1l3146 178A                     i1l3138 177F                     i1l3090 1694  
                   i1l3074 1668                     i1l3082 167A                     i1l3066 1626  
                   i1l3058 1619                     i1l3314 1565                     i1l3306 154E  
                   i1l3250 146D                     i1l3242 1450                     i1l3234 1426  
                   i1l3218 13EF                     i1l3410 0679                     i1l3402 0631  
                   i1l3330 03F3                     i1l3322 03E1                     i1l3172 17ED  
                   i1l3164 17DB                     i1l3156 17AB                     i1l3148 1790  
                   i1l3092 16AB                     i1l3084 1686                     i1l3076 166C  
                   i1l3068 163D                     i1l3316 1567                     i1l3308 1552  
                   i1l3260 1498                     i1l3252 146E                     i1l3244 1452  
                   i1l3236 1438                     i1l3228 1418                     i1l3180 139B  
                   i1l2380 1004                     i1l3420 0691                     i1l3412 067D  
                   i1l3404 0659                     i1l3340 040F                     i1l3332 03F8  
                   i1l3324 03E8                     i1l3500 1103                     i1l3174 17EF  
                   i1l3166 17E3                     i1l3158 17AF                     i1l3094 16AF  
                   i1l3086 168B                     i1l3078 166D                     i1l3270 14B5  
                   i1l3246 1457                     i1l3254 1477                     i1l3262 149C  
                   i1l3238 1440                     i1l3190 13B2                     i1l3182 13A2  
                   i1l2390 1025                     i1l2382 1006                     i1l3430 06B2  
                   i1l3422 0692                     i1l3414 067E                     i1l3406 0662  
                   i1l3350 0424                     i1l3342 0414                     i1l3334 03FD  
                   i1l3326 03EE                     i1l3502 1104                     i1l3510 1F51  
                   i1l3176 17FA                     i1l3168 17E8                     i1l3096 16B3  
                   i1l3280 14CD                     i1l3272 14B9                     i1l3264 14A2  
                   i1l3256 1489                     i1l3248 1469                     i1l3192 13B7  
                   i1l3184 13A8                     i1l2384 100D                     i1l3432 06B7  
                   i1l3440 06E8                     i1l3424 0696                     i1l3416 0687  
                   i1l3408 0670                     i1l3360 0440                     i1l3352 0429  
                   i1l3344 041A                     i1l3336 0405                     i1l3328 03F2  
                   i1l3178 17FE                     i1l3098 16BC                     i1l3290 14EE  
                   i1l3282 14CE                     i1l3274 14BA                     i1l3266 14AA  
                   i1l3258 148A                     i1l3194 13BF                     i1l3186 13AC  
                   i1l2386 1011                     i1l3450 071B                     i1l3442 06F5  
                   i1l3434 06C5                     i1l3426 06AA                     i1l3418 068D  
                   i1l3370 046B                     i1l3362 0445                     i1l3354 0431  
                   i1l3346 041E                     i1l3338 0407                     i1l3292 14F3  
                   i1l3284 14D2                     i1l3276 14C3                     i1l3268 14AC  
                   i1l3196 13C0                     i1l3188 13AD                     i1l2388 1020  
                   i1l3452 0729                     i1l3444 0700                     i1l3436 06C9  
                   i1l3380 0508                     i1l3372 0488                     i1l3356 0433  
                   i1l3348 041F                     i1l3700 0D4C                     i1l3550 0813  
                   i1l3294 1501                     i1l3286 14E6                     i1l3278 14C9  
                   i1l3198 13C2                     i1l3454 072D                     i1l3446 070F  
                   i1l3438 06E2                     i1l3390 056B                     i1l3382 0511  
                   i1l3374 04A4                     i1l3366 044E                     i1l3358 043B  
                   i1l3470 107D                     i1l3462 1054                     i1l3710 0D6B  
                   i1l3702 0D52                     i1l3560 081C                     i1l3552 0814  
                   i1l3296 1505                     i1l3456 072E                     i1l3448 0719  
                   i1l3392 0584                     i1l3384 0521                     i1l3376 04D0  
                   i1l3368 045E                     i1l3480 109F                     i1l3464 1059  
                   i1l3800 0F4B                     i1l3720 0D9E                     i1l3712 0D79  
                   i1l3704 0D58                     i1l3562 081D                     i1l3554 0815  
                   i1l3546 080A                     i1l3298 151E                     i1l3458 0739  
                   i1l3394 05A1                     i1l3386 053E                     i1l3378 04EC  
                   i1l3490 10D0                     i1l3482 10A3                     i1l3474 1086  
                   i1l3466 105D                     i1l3810 0F72                     i1l3802 0F54  
                   i1l3730 0DD7                     i1l3722 0DAC                     i1l3714 0D85  
                   i1l3706 0D5E                     i1l3564 081E                     i1l3556 081A  
                   i1l3548 0810                     i1l3396 05CE                     i1l3388 054E  
                   i1l3492 10DA                     i1l3484 10B1                     i1l3476 108B  
                   i1l3468 106D                     i1l3820 0FA1                     i1l3812 0F83  
                   i1l3804 0F57                     i1l3740 0E26                     i1l3732 0DE1  
                   i1l3724 0DB8                     i1l3716 0D88                     i1l3708 0D64  
                   i1l3558 081B                     i1l3398 05DE                     i1l2950 1EB2  
                   i1l3494 10E4                     i1l3486 10C1                     i1l3478 1098  
                   i1l3670 1D98                     i1l3830 0FE0                     i1l3814 0F90  
                   i1l3822 0FAD                     i1l3806 0F5D                     i1l3750 0E5A  
                   i1l3742 0E36                     i1l3734 0DEC                     i1l3726 0DBB  
                   i1l3718 0D93                     i1l2960 1EF2                     i1l2952 1EC3  
                   i1l3496 10FA                     i1l3488 10CC                     i1l3680 1DFC  
                   i1l3672 1DB3                     i1l3832 0FE8                     i1l3824 0FBA  
                   i1l3816 0F98                     i1l3808 0F6A                     i1l3760 0E8D  
                   i1l3752 0E65                     i1l3744 0E3D                     i1l3736 0E03  
                   i1l3728 0DD2                     i1l2962 1EFA                     i1l3498 10FF  
                   i1l3682 1E0D                     i1l3674 1DC1                     i1l3666 1D93  
                   i1l3690 1C38                     i1l3834 0FEB                     i1l3826 0FC2  
                   i1l3818 0F9B                     i1l3770 0ED5                     i1l3754 0E70  
                   i1l3746 0E4B                     i1l3762 0EA4                     i1l3738 0E0F  
                   i1l2980 1F25                     i1l2972 1F08                     i1l2964 1EFC  
                   i1l2956 1ECC                     i1l3676 1DD3                     i1l3668 1D93  
                   i1l3692 1C3C                     i1l3828 0FD3                     i1l3780 0F00  
                   i1l3772 0EE1                     i1l3764 0EA9                     i1l3756 0E7E  
                   i1l3748 0E57                     i1l2990 1585                     i1l2982 1F3D  
                   i1l2966 1F00                     i1l2974 1F1E                     i1l2958 1EF1  
                   i1l3678 1DEE                     i1l3694 1C3F                     i1l3686 1C54  
                   i1l3790 0F27                     i1l3782 0F0B                     i1l3766 0EB3  
                   i1l3758 0E8A                     i1l2992 1589                     i1l2984 1F42  
                   i1l3688 1C57                     i1l3784 0F13                     i1l3792 0F2B  
                   i1l3768 0EBE                     i1l3776 0EF9                     i1l2994 158A  
                   i1l2986 1578                     i1l3794 0F38                     i1l3786 0F18  
                   i1l3778 0EFA                     i1l3698 0D48                     i1l2996 158F  
                   i1l2988 157F                     i1l3796 0F40                     i1l3788 0F1E  
                   i1l2998 1594                     i1l3798 0F45                     u320_20 1011  
                   u320_21 1010                     u321_25 1018                     u322_20 1025  
                   u322_21 1024                     u500_20 1770                     u500_21 176F  
                   u501_20 1775                     u501_21 1774                     u510_20 17CD  
                   u502_20 177F                     u510_21 17CC                     u502_21 177E  
                   u511_20 17D6                     u503_20 1785                     u511_21 17D5  
                   u503_21 1784                     u512_20 17DB                     u504_20 178A  
                   u520_20 13DF                     u600_20 1C5F                     u512_21 17DA  
                   u504_21 1789                     u520_21 13DE                     u600_21 1C5E  
                   u513_20 17E8                     u505_20 1790                     u521_20 13E4  
                   u601_20 0D4C                     u513_21 17E7                     u505_21 178F  
                   u521_21 13E3                     u601_21 0D4B                     u514_20 17ED  
                   u506_20 1797                     u530_20 14A2                     u522_20 13FF  
                   u610_20 0F00                     u602_20 0D52                     u514_21 17EC  
                   u506_21 1796                     u530_21 14A1                     u522_21 13FE  
                   u610_21 0EFF                     u602_21 0D51                     u515_20 17FE  
                   u507_20 179D                     u531_20 14AA                     u523_20 141D  
                   u611_20 0F0B                     u603_20 0D5E                     u515_21 17FD  
                   u507_21 179C                     u531_21 14A9                     u523_21 141C  
                   u611_21 0F0A                     u603_21 0D5D                     u508_20 17AF  
                   u540_20 1505                     u524_20 1457                     u516_20 13AC  
                   u460_20 1EC3                     u620_20 0FBA                     u612_20 0F13  
                   u604_20 0D64                     u508_21 17AE                     u540_21 1504  
                   u524_21 1456                     u516_21 13AB                     u460_21 1EC2  
                   u620_21 0FB9                     u612_21 0F12                     u604_21 0D63  
                   u532_25 14AE                     u509_20 17BE                     u541_20 1514  
                   u533_20 14B9                     u517_20 13B2                     u461_20 1EE8  
                   u621_20 0FE0                     u613_20 0F1E                     u605_20 0D6B  
                   u533_21 14B8                     u517_21 13B1                     u621_21 0FDF  
                   u613_21 0F1D                     u605_21 0D6A                     u509_25 17B9  
                   u541_25 150F                     u525_25 1459                     u461_25 1EE3  
                   u470_20 1589                     u542_20 1531                     u518_20 13B7  
                   u550_20 0429                     u462_20 1F00                     u614_20 0F38  
                   u606_20 0DD7                     u470_21 1588                     u542_21 1530  
                   u518_21 13B6                     u550_21 0428                     u462_21 1EFF  
                   u614_21 0F37                     u606_21 0DD6                     u542_25 152D  
                   u534_25 14BC                     u526_25 1462                     u471_20 158F  
                   u543_20 154E                     u535_20 14CD                     u527_20 146D  
                   u519_20 13D9                     u551_20 0440                     u463_20 1F07  
                   u615_20 0F40                     u607_20 0E36                     u471_21 158E  
                   u543_21 154D                     u535_21 14CC                     u527_21 146C  
                   u519_21 13D8                     u551_21 043F                     u463_21 1F06  
                   u615_21 0F3F                     u607_21 0E35                     u543_25 154A  
                   u480_20 1648                     u472_20 1594                     u544_20 1565  
                   u536_20 14D2                     u552_20 0445                     u616_20 0F4B  
                   u608_20 0E3D                     u480_21 1646                     u472_21 1593  
                   u544_21 1564                     u536_21 14D1                     u552_21 0444  
                   u616_21 0F4A                     u608_21 0E3C                     u528_25 1470  
                   u560_25 056D                     u464_25 1F09                     u481_20 1649  
                   u473_20 15B2                     u537_20 14E6                     u529_20 1489  
                   u545_20 03F2                     u465_20 1F1D                     u617_20 0F5D  
                   u609_20 0EA9                     u473_21 15B1                     u537_21 14E5  
                   u529_21 1488                     u561_21 0593                     u553_21 0496  
                   u545_21 03F1                     u465_21 1F1C                     u617_21 0F5C  
                   u609_21 0EA8                     u561_22 059A                     u553_22 049D  
                   u561_23 05A1                     u553_23 04A4                     u529_25 1485  
                   u490_20 16B3                     u482_20 165D                     u474_20 15BD  
                   u538_20 14ED                     u570_20 067D                     u546_20 03F8  
                   u466_20 1F24                     u618_20 0F6A                     u490_21 16B2  
                   u482_21 165C                     u474_21 15BC                     u538_21 14EC  
                   u570_21 067C                     u562_21 05C0                     u554_21 04B2  
                   u546_21 03F7                     u466_21 1F23                     u618_21 0F69  
                   u562_22 05C7                     u554_22 04B9                     u562_23 05CE  
                   u554_23 04C0                     u810_27 0EB9                     u802_27 0D99  
                   u491_20 16C2                     u483_20 166C                     u475_20 15C3  
                   u539_20 14F3                     u547_20 03FD                     u619_20 0F90  
                   u491_21 16C1                     u483_21 166B                     u475_21 15C2  
                   u539_21 14F2                     u563_21 05ED                     u555_21 04DE  
                   u547_21 03FC                     u619_21 0F8F                     u563_22 05F4  
                   u555_22 04E5                     u563_23 05FB                     u555_23 04EC  
                   u571_25 0680                     u467_25 1F29                     u811_27 0ED0  
                   u803_27 0DCC                     u476_20 15C8                     u580_20 070F  
                   u572_20 0691                     u564_20 0617                     u548_20 041E  
                   u468_20 1F3D                     u476_21 15C7                     u580_21 070E  
                   u572_21 0690                     u556_21 04FA                     u548_21 041D  
                   u468_21 1F3C                     u556_22 0501                     u556_23 0508  
                   u492_25 16C5                     u484_25 166F                     u580_25 070B  
                   u564_25 0612                     u812_27 0EE7                     u804_27 0DE7  
                   u493_20 16E7                     u485_20 1682                     u477_20 15E1  
                   u581_20 072D                     u573_20 0696                     u549_20 0424  
                   u469_20 1F42                     u493_21 16E6                     u485_21 1681  
                   u477_21 15E0                     u581_21 072C                     u573_21 0695  
                   u565_21 0623                     u549_21 0423                     u469_21 1F41  
                   u565_22 062A                     u493_23 16E3                     u565_23 0631  
                   u557_25 050A                     u813_27 0FA7                     u805_27 0DFE  
                   u486_20 1686                     u478_20 15E5                     u574_20 06AA  
                   u566_20 063F                     u590_20 10D0                     u582_20 1059  
                   u494_21 16FE                     u486_21 1685                     u478_21 15E4  
                   u574_21 06A9                     u558_21 0530                     u590_21 10CF  
                   u582_21 1058                     u494_22 16FF                     u558_22 0537  
                   u494_23 1704                     u558_23 053E                     u494_24 1705  
                   u494_25 170A                     u566_25 063A                     u494_26 170B  
                   u806_27 0E15                     u495_20 1712                     u487_20 168B  
                   u479_20 163D                     u575_20 06B1                     u591_20 10D6  
                   u583_20 105D                     u495_21 1713                     u487_21 168A  
                   u479_21 163C                     u575_21 06B0                     u567_21 064B  
                   u559_21 055D                     u591_21 10D5                     u583_21 105C  
                   u495_22 1718                     u567_22 0652                     u559_22 0564  
                   u495_23 1719                     u567_23 0659                     u559_23 056B  
                   u479_25 1639                     u807_27 0E2C                     u496_20 1730  
                   u576_20 06B7                     u592_20 10DA                     u584_20 107D  
                   u496_21 172F                     u488_21 169D                     u576_21 06B6  
                   u592_21 10D9                     u584_21 107C                     u488_22 16A4  
                   u488_23 16AB                     u568_25 065B                     u808_27 0E6B  
                   u497_20 1755                     u489_20 16AF                     u577_20 06C9  
                   u593_20 10EF                     u497_21 1754                     u489_21 16AE  
                   u577_21 06C8                     u569_25 0672                     u593_25 10EA  
                   u585_25 1090                     u809_27 0E9E                     u498_20 175A  
                   u578_20 06D8                     u594_20 10FF                     u586_20 109E  
                   u498_21 1759                     u594_21 10FE                     u586_21 109D  
                   u578_25 06D3                     u579_20 06F5                     u595_20 1103  
                   u579_21 06F4                     u595_21 1102                     u499_25 1765  
                   u579_25 06F1                     u587_25 10B2                     u588_20 10C0  
                   u588_21 10BF                     u589_25 10C5                     u599_20 1D98  
                   u599_21 1D97                     _SSPBUF 0013           __end_of___xxtofl 07FE  
                ??___fladd 01BF                  ??___fldiv 00CB                  ??___flmul 01A5  
                ??___fltol 01CF          __end_ofi1___fladd 1800          __end_ofi1___fldiv 1578  
        __end_ofi1___flmul 0742          __end_ofi1___fltol 1F4E                     saved_w 007E  
          i1___fltol@sign1 006C               i1_move_servo 1D90               ___xxtofl@arg 00BF  
             ___xxtofl@exp 00BE               ___xxtofl@val 00B5    __end_of__initialization 0022  
               ___fltol@f1 01CB               ?i1__Umul8_16 0070             __pcstackCOMMON 0070  
            __end_of_setup 1D04         read_EEPROM@address 00B5             _OPTION_REGbits 0081  
         write_EEPROM@data 0070                    ??_setup 00B5                 __pbssBANK1 00D2  
               __pbssBANK3 01E3             i1___xxtofl@arg 007A             i1___xxtofl@exp 0079  
           i1___xxtofl@val 0070          __end_of__Umul8_16 1053                 __pmaintext 11EB  
            i1_read_EEPROM 1C37                 __pintentry 0004                    _CCP1CON 0017  
        i1interpole@in_max 00A6          i1interpole@in_min 00A5                  ?___xxtofl 00B5  
      i1__Umul8_16@product 0074               ?i1_interpole 00A5               ?i1_send_data 0070  
           interpole@value 01DA             ?i1_read_EEPROM 0070                    ___fladd 0820  
                  ___fldiv 0AA8                    ___flmul 0026                    ___fltol 1E20  
             ??i1___xxtofl 0074                    __ptext1 1C79                    __ptext2 1C63  
                  __ptext3 1C44                    __ptext4 1D04                    __ptext5 110D  
                  __ptext6 0742                    __ptext7 1E20                    __ptext8 0026  
                  __ptext9 102A                  _T2CONbits 0012                 ??___xxtofl 00B9  
                  _pot_LA1 00D8                    _pot_RA1 00DA                    _pot_LP2 00D7  
                  _pot_RP2 00D9             move_servo@CCPR 01DF          __end_of_interpole 11EB  
     end_of_initialization 0022          __end_of_send_data 1C79        write_EEPROM@address 0071  
       __end_ofi1___xxtofl 110D                 _move_servo 1D04          i1move_servo@servo 00AD  
            send_data@data 00B5      i1__Umul8_16@word_mpld 0076                  _PORTBbits 0006  
                _PORTDbits 0008                ___fladd@grs 01CA              ___xxtofl@sign 00BD  
                _TRISCbits 0087                  i1___fladd 1578                  i1___fldiv 139B  
                i1___flmul 03E1                ___fldiv@grs 0197                  i1___fltol 1EB2  
              ___fldiv@rem 0190                ___flmul@grs 01AC                _CCP1CONbits 0017  
              _CCP2CONbits 001D            ??i1_read_EEPROM 0070           interpole@out_max 01D8  
         interpole@out_min 01D6        start_initialization 0013                 ?i1___fladd 0054  
               ?i1___fldiv 0020                __end_of_isr 1000                 ?i1___flmul 003A  
               ?i1___fltol 0068              ??_read_EEPROM 00B5                ?_move_servo 01DB  
                __Umul8_16 102A                  ___fladd@a 01BB                  ___fladd@b 01B7  
                ___fldiv@a 00C3                  ___fldiv@b 00C7            i1send_data@data 0070  
                ___flmul@a 01A1                  ___flmul@b 019D                  ___latbits 0002  
            __pcstackBANK0 0020              __pcstackBANK1 00A0              __pcstackBANK3 0190  
          i1___xxtofl@sign 0078          i1___fldiv@new_exp 0032   i1__Umul8_16@multiplicand 0070  
                 ?___fladd 01B7                   ?___fldiv 00C3                   ?___flmul 019D  
                 ?___fltol 01CB                 ?__Umul8_16 00B5           i1interpole@value 006E  
      __end_of_read_EEPROM 1C53              ?_write_EEPROM 0070                ??i1___fladd 005C  
              ??i1___fldiv 0028                ??i1___flmul 0042                ??i1___fltol 00A0  
                _mode_flag 00D6                  _interpole 110D          interrupt_function 0004  
       i1interpole@out_max 00A9         i1interpole@out_min 00A7                   _IOCBbits 0096  
                 _PIE1bits 008C                  _send_data 1C63           i1move_servo@CCPR 00AE  
                 _PIR1bits 000C                 _ADCON0bits 001F                 _ADCON1bits 009F  
           ??_write_EEPROM 0071                   _WPUBbits 0095            interpole@in_max 01D5  
          interpole@in_min 01D4              ?i1_move_servo 006F                 ?_interpole 01D4  
               _EECON1bits 018C              ??i1__Umul8_16 0072                 ?_send_data 0070  
              _read_EEPROM 1C44                ??__Umul8_16 00B7                   ___xxtofl 0742  
           ??i1_move_servo 00AB                   __ptext10 0AA8                   __ptext11 0820  
                 __ptext20 1003                   __ptext12 0D48                   __ptext21 139B  
                 __ptext13 1C53                   __ptext22 1578                   __ptext14 1C37  
                 __ptext23 0809                   __ptext15 1D90                   __ptext16 1F4E  
                 __ptext17 1053                   __ptext18 1EB2                   __ptext19 03E1  
             ??_move_servo 01DC      __end_ofi1_read_EEPROM 1C44        __end_ofi1__Umul8_16 102A  
          move_servo@servo 01DE                 _INTCONbits 000B              ??i1_interpole 007E  
       __end_of_move_servo 1D90              ??i1_send_data 0070                   intlevel1 0000  
              ??_interpole 00D2     i1__Umul8_16@multiplier 0078                ??_send_data 00B5  
     __end_of_write_EEPROM 0820                 _OSCCONbits 008F               _wheel_flag_l 01E3  
             _wheel_flag_r 01E4     __Umul8_16@multiplicand 00B5              ___fladd@signs 01C7  
      __end_ofi1_interpole 2000               ___fladd@aexp 01C8               ___fladd@bexp 01C9  
     __Umul8_16@multiplier 00BD                 _SSPCONbits 0014        __end_ofi1_send_data 1C63  
              i1__Umul8_16 1003       __end_ofi1_move_servo 1E20          __Umul8_16@product 00B9  
